Component: ARM Compiler 5.06 update 7 (build 960) Tool: armlink [4d3601]

==============================================================================

Section Cross References

    main.o(i._Z10writeSetupv) refers to gd32f30x_fmc.o(i._Z10fmc_unlockv) for fmc_unlock()
    main.o(i._Z10writeSetupv) refers to gd32f30x_fmc.o(i._Z12fmc_flag_getj) for fmc_flag_get(unsigned)
    main.o(i._Z10writeSetupv) refers to gd32f30x_fmc.o(i._Z14fmc_page_erasej) for fmc_page_erase(unsigned)
    main.o(i._Z10writeSetupv) refers to gd32f30x_fmc.o(i._Z16fmc_word_programjj) for fmc_word_program(unsigned, unsigned)
    main.o(i._Z10writeSetupv) refers to gd32f30x_fmc.o(i._Z8fmc_lockv) for fmc_lock()
    main.o(i._Z10writeSetupv) refers to display.o(.bss) for display
    main.o(i._Z10writeSetupv) refers to system.o(.bss) for air
    main.o(i._Z10writeSetupv) refers to hcu.o(.bss) for hcu
    main.o(i._Z10writeSetupv) refers to core.o(.bss) for core
    main.o(i._Z11activityAirv) refers to core.o(i._ZN4Core7getTickEv) for Core::getTick()
    main.o(i._Z11activityAirv) refers to slider.o(i._ZN6Slider11setPositionEs) for Slider::setPosition(short)
    main.o(i._Z11activityAirv) refers to dflt_clz.o(x$fpl$dflt) for __aeabi_i2d
    main.o(i._Z11activityAirv) refers to dleqf.o(x$fpl$dleqf) for __aeabi_cdcmple
    main.o(i._Z11activityAirv) refers to drleqf.o(x$fpl$drleqf) for __aeabi_cdrcmple
    main.o(i._Z11activityAirv) refers to system.o(i._ZN6System11viewHandlerEv) for System::viewHandler()
    main.o(i._Z11activityAirv) refers to about.o(i._ZN5About10viewScreenEv) for About::viewScreen()
    main.o(i._Z11activityAirv) refers to setup.o(i._ZN5Setup10viewScreenEv) for Setup::viewScreen()
    main.o(i._Z11activityAirv) refers to main.o(.data) for screen_visible
    main.o(i._Z11activityAirv) refers to core.o(.bss) for core
    main.o(i._Z11activityAirv) refers to hcu.o(.bss) for hcu
    main.o(i._Z11activityAirv) refers to sensor.o(.bss) for sensor
    main.o(i._Z11activityAirv) refers to system.o(.bss) for air
    main.o(i._Z11activityAirv) refers to slider.o(.bss) for slider
    main.o(i._Z11activityAirv) refers to display.o(.bss) for display
    main.o(i._Z11activityAirv) refers to about.o(.data) for about
    main.o(i._Z11activityAirv) refers to setup.o(.data) for setup
    main.o(i._Z12handlerClockv) refers to clock.o(i._ZN5Clock7handlerEv) for Clock::handler()
    main.o(i._Z12handlerClockv) refers to clock.o(.bss) for clock
    main.o(i._Z12handlerSleepv) refers to sleep.o(i._ZN5Sleep14checkSleepModeEv) for Sleep::checkSleepMode()
    main.o(i._Z12handlerSleepv) refers to sleep.o(i._ZN5Sleep10viewScreenEv) for Sleep::viewScreen()
    main.o(i._Z12handlerSleepv) refers to main.o(.data) for screen_visible
    main.o(i._Z12handlerSleepv) refers to sleep.o(.data) for sleep
    main.o(i._Z12handlerTimerv) refers to core.o(i._ZN4Core7getTickEv) for Core::getTick()
    main.o(i._Z12handlerTimerv) refers to system.o(.bss) for air
    main.o(i._Z12handlerTimerv) refers to hcu.o(.bss) for hcu
    main.o(i._Z12handlerTimerv) refers to core.o(.bss) for core
    main.o(i._Z12handlerUsartv) refers to hcu.o(i._ZN3Hcu7handlerEv) for Hcu::handler()
    main.o(i._Z12handlerUsartv) refers to hcu.o(.bss) for hcu
    main.o(i._Z13activityAboutv) refers to about.o(i._ZN5About11viewHandlerEv) for About::viewHandler()
    main.o(i._Z13activityAboutv) refers to system.o(i._ZN6System10viewScreenEb) for System::viewScreen(bool)
    main.o(i._Z13activityAboutv) refers to main.o(.data) for screen_visible
    main.o(i._Z13activityAboutv) refers to about.o(.data) for about
    main.o(i._Z13activityAboutv) refers to system.o(.bss) for air
    main.o(i._Z13activityErrorv) refers to sleep.o(i._ZN5Sleep11setLowPowerEb) for Sleep::setLowPower(bool)
    main.o(i._Z13activityErrorv) refers to display.o(i._ZN7Display8switchOnEv) for Display::switchOn()
    main.o(i._Z13activityErrorv) refers to display.o(i._ZN7Display8setLightEt) for Display::setLight(unsigned short)
    main.o(i._Z13activityErrorv) refers to error.o(i._ZN5Error10viewScreenEv) for Error::viewScreen()
    main.o(i._Z13activityErrorv) refers to system.o(i._ZN6System10viewScreenEb) for System::viewScreen(bool)
    main.o(i._Z13activityErrorv) refers to error.o(i._ZN5Error11viewHandlerEv) for Error::viewHandler()
    main.o(i._Z13activityErrorv) refers to search.o(i._ZN6Search10viewScreenEv) for Search::viewScreen()
    main.o(i._Z13activityErrorv) refers to hcu.o(.bss) for hcu
    main.o(i._Z13activityErrorv) refers to error.o(.data) for error
    main.o(i._Z13activityErrorv) refers to main.o(.data) for screen_visible
    main.o(i._Z13activityErrorv) refers to sleep.o(.data) for sleep
    main.o(i._Z13activityErrorv) refers to clock.o(.bss) for clock
    main.o(i._Z13activityErrorv) refers to display.o(.bss) for display
    main.o(i._Z13activityErrorv) refers to system.o(.bss) for air
    main.o(i._Z13activityErrorv) refers to search.o(.data) for search
    main.o(i._Z13activitySetupv) refers to setup.o(i._ZN5Setup7handlerEv) for Setup::handler()
    main.o(i._Z13activitySetupv) refers to system.o(i._ZN6System10viewScreenEb) for System::viewScreen(bool)
    main.o(i._Z13activitySetupv) refers to main.o(i._Z10writeSetupv) for writeSetup()
    main.o(i._Z13activitySetupv) refers to setup_clock.o(i._ZN10SetupClock10viewScreenEv) for SetupClock::viewScreen()
    main.o(i._Z13activitySetupv) refers to main.o(.data) for screen_visible
    main.o(i._Z13activitySetupv) refers to setup.o(.data) for setup
    main.o(i._Z13activitySetupv) refers to system.o(.bss) for air
    main.o(i._Z13activitySetupv) refers to clock.o(.bss) for clock
    main.o(i._Z13activitySetupv) refers to setup_clock.o(.bss) for setupClock
    main.o(i._Z13activitySetupv) refers to display.o(.bss) for display
    main.o(i._Z13activitySetupv) refers to hcu.o(.bss) for hcu
    main.o(i._Z13activitySleepv) refers to sleep.o(i._ZN5Sleep7handlerEv) for Sleep::handler()
    main.o(i._Z13activitySleepv) refers to sleep.o(i._ZN5Sleep11setLowPowerEb) for Sleep::setLowPower(bool)
    main.o(i._Z13activitySleepv) refers to display.o(i._ZN7Display8switchOnEv) for Display::switchOn()
    main.o(i._Z13activitySleepv) refers to display.o(i._ZN7Display8setLightEt) for Display::setLight(unsigned short)
    main.o(i._Z13activitySleepv) refers to system.o(i._ZN6System10viewScreenEb) for System::viewScreen(bool)
    main.o(i._Z13activitySleepv) refers to setup.o(i._ZN5Setup10viewScreenEv) for Setup::viewScreen()
    main.o(i._Z13activitySleepv) refers to start_timers.o(i._ZN11StartTimers10viewScreenEv) for StartTimers::viewScreen()
    main.o(i._Z13activitySleepv) refers to main.o(.data) for screen_visible
    main.o(i._Z13activitySleepv) refers to sleep.o(.data) for sleep
    main.o(i._Z13activitySleepv) refers to clock.o(.bss) for clock
    main.o(i._Z13activitySleepv) refers to display.o(.bss) for display
    main.o(i._Z13activitySleepv) refers to system.o(.bss) for air
    main.o(i._Z13activitySleepv) refers to setup.o(.data) for setup
    main.o(i._Z13activitySleepv) refers to start_timers.o(.data) for startTimers
    main.o(i._Z13activitySleepv) refers to sensor.o(.bss) for sensor
    main.o(i._Z13handlerSensorv) refers to sensor.o(i._ZN6Sensor7handlerEv) for Sensor::handler()
    main.o(i._Z13handlerSensorv) refers to display.o(i._ZN7Display8setTimerEj) for Display::setTimer(unsigned)
    main.o(i._Z13handlerSensorv) refers to main.o(.data) for screen_visible
    main.o(i._Z13handlerSensorv) refers to sensor.o(.bss) for sensor
    main.o(i._Z13handlerSensorv) refers to display.o(.bss) for display
    main.o(i._Z14activitySearchv) refers to search.o(i._ZN6Search10viewScreenEv) for Search::viewScreen()
    main.o(i._Z14activitySearchv) refers to system.o(i._ZN6System10viewScreenEb) for System::viewScreen(bool)
    main.o(i._Z14activitySearchv) refers to search.o(i._ZN6Search11viewHandlerEv) for Search::viewHandler()
    main.o(i._Z14activitySearchv) refers to hcu.o(.bss) for hcu
    main.o(i._Z14activitySearchv) refers to main.o(.data) for screen_visible
    main.o(i._Z14activitySearchv) refers to search.o(.data) for search
    main.o(i._Z14activitySearchv) refers to system.o(.bss) for air
    main.o(i._Z18activitySetupClockv) refers to setup_clock.o(i._ZN10SetupClock7handlerEv) for SetupClock::handler()
    main.o(i._Z18activitySetupClockv) refers to system.o(i._ZN6System10viewScreenEb) for System::viewScreen(bool)
    main.o(i._Z18activitySetupClockv) refers to setup.o(i._ZN5Setup10viewScreenEv) for Setup::viewScreen()
    main.o(i._Z18activitySetupClockv) refers to clock.o(i._ZN5Clock12timeRegulateEv) for Clock::timeRegulate()
    main.o(i._Z18activitySetupClockv) refers to main.o(.data) for screen_visible
    main.o(i._Z18activitySetupClockv) refers to clock.o(.bss) for clock
    main.o(i._Z18activitySetupClockv) refers to setup_clock.o(.bss) for setupClock
    main.o(i._Z18activitySetupClockv) refers to system.o(.bss) for air
    main.o(i._Z18activitySetupClockv) refers to setup.o(.data) for setup
    main.o(i._Z18handlerTemperaturev) refers to core.o(i._ZN4Core7getTickEv) for Core::getTick()
    main.o(i._Z18handlerTemperaturev) refers to temperature.o(i._ZN11Temperature7requestEv) for Temperature::request()
    main.o(i._Z18handlerTemperaturev) refers to core.o(.bss) for core
    main.o(i._Z18handlerTemperaturev) refers to main.o(.data) for timer
    main.o(i._Z18handlerTemperaturev) refers to temperature.o(.bss) for temperature
    main.o(i._Z19activityStartTimersv) refers to start_timers.o(i._ZN11StartTimers7handlerEv) for StartTimers::handler()
    main.o(i._Z19activityStartTimersv) refers to system.o(i._ZN6System10viewScreenEb) for System::viewScreen(bool)
    main.o(i._Z19activityStartTimersv) refers to main.o(.data) for screen_visible
    main.o(i._Z19activityStartTimersv) refers to start_timers.o(.data) for startTimers
    main.o(i._Z19activityStartTimersv) refers to system.o(.bss) for air
    main.o(i._Z7initAllv) refers to system_gd32f30x.o(i.SystemInit) for SystemInit
    main.o(i._Z7initAllv) refers to clock.o(i._ZN5Clock10initializeEv) for Clock::initialize()
    main.o(i._Z7initAllv) refers to gd32f30x_rcu.o(i._Z21rcu_apb2_clock_configj) for rcu_apb2_clock_config(unsigned)
    main.o(i._Z7initAllv) refers to core.o(i._ZN4Core10remapTableEv) for Core::remapTable()
    main.o(i._Z7initAllv) refers to core.o(i._ZN4Core10initializeEv) for Core::initialize()
    main.o(i._Z7initAllv) refers to display.o(i._ZN7Display10initializeEv) for Display::initialize()
    main.o(i._Z7initAllv) refers to can.o(i._ZN3Can10initializeEv) for Can::initialize()
    main.o(i._Z7initAllv) refers to usart.o(i._ZN5Usart10initializeEv) for Usart::initialize()
    main.o(i._Z7initAllv) refers to temperature.o(i._ZN11Temperature10initializeEv) for Temperature::initialize()
    main.o(i._Z7initAllv) refers to memory.o(i._ZN6Memory14initializeQuadEv) for Memory::initializeQuad()
    main.o(i._Z7initAllv) refers to slider.o(i._ZN6Slider10initializeEv) for Slider::initialize()
    main.o(i._Z7initAllv) refers to sensor.o(i._ZN6Sensor10initializeEv) for Sensor::initialize()
    main.o(i._Z7initAllv) refers to clock.o(.bss) for clock
    main.o(i._Z7initAllv) refers to core.o(.bss) for core
    main.o(i._Z7initAllv) refers to display.o(.bss) for display
    main.o(i._Z7initAllv) refers to can.o(.bss) for can
    main.o(i._Z7initAllv) refers to usart.o(.bss) for usart
    main.o(i._Z7initAllv) refers to temperature.o(.bss) for temperature
    main.o(i._Z7initAllv) refers to memory.o(.bss) for memory
    main.o(i._Z7initAllv) refers to slider.o(.bss) for slider
    main.o(i._Z7initAllv) refers to sensor.o(.bss) for sensor
    main.o(i._Z8addNewIdPh) refers to gd32f30x_fmc.o(i._Z10fmc_unlockv) for fmc_unlock()
    main.o(i._Z8addNewIdPh) refers to gd32f30x_fmc.o(i._Z12fmc_flag_getj) for fmc_flag_get(unsigned)
    main.o(i._Z8addNewIdPh) refers to gd32f30x_fmc.o(i._Z16fmc_word_programjj) for fmc_word_program(unsigned, unsigned)
    main.o(i._Z8addNewIdPh) refers to gd32f30x_fmc.o(i._Z8fmc_lockv) for fmc_lock()
    main.o(i._Z8addNewIdPh) refers to gd32f30x_fmc.o(i._Z14fmc_page_erasej) for fmc_page_erase(unsigned)
    main.o(i._Z8setNewIdv) refers to gd32f30x_fmc.o(i._Z10fmc_unlockv) for fmc_unlock()
    main.o(i._Z8setNewIdv) refers to gd32f30x_fmc.o(i._Z12fmc_flag_getj) for fmc_flag_get(unsigned)
    main.o(i._Z8setNewIdv) refers to gd32f30x_fmc.o(i._Z14fmc_page_erasej) for fmc_page_erase(unsigned)
    main.o(i._Z8setNewIdv) refers to gd32f30x_fmc.o(i._Z16fmc_word_programjj) for fmc_word_program(unsigned, unsigned)
    main.o(i._Z8setNewIdv) refers to gd32f30x_fmc.o(i._Z8fmc_lockv) for fmc_lock()
    main.o(i._Z8setNewIdv) refers to temperature.o(.bss) for temperature
    main.o(i._Z9readSetupv) refers to core.o(i._ZN4Core8celToFarEf) for Core::celToFar(float)
    main.o(i._Z9readSetupv) refers to main.o(i._Z10writeSetupv) for writeSetup()
    main.o(i._Z9readSetupv) refers to display.o(.bss) for display
    main.o(i._Z9readSetupv) refers to system.o(.bss) for air
    main.o(i._Z9readSetupv) refers to hcu.o(.bss) for hcu
    main.o(i._Z9readSetupv) refers to core.o(.bss) for core
    main.o(i._Z9setNewKeyv) refers to gd32f30x_fmc.o(i._Z10fmc_unlockv) for fmc_unlock()
    main.o(i._Z9setNewKeyv) refers to gd32f30x_fmc.o(i._Z12fmc_flag_getj) for fmc_flag_get(unsigned)
    main.o(i._Z9setNewKeyv) refers to gd32f30x_fmc.o(i._Z16fmc_word_programjj) for fmc_word_program(unsigned, unsigned)
    main.o(i._Z9setNewKeyv) refers to gd32f30x_fmc.o(i._Z8fmc_lockv) for fmc_lock()
    main.o(i._Z9setNewKeyv) refers to temperature.o(.bss) for temperature
    main.o(i.main) refers to main.o(i._Z9readSetupv) for readSetup()
    main.o(i.main) refers to main.o(i._Z7initAllv) for initAll()
    main.o(i.main) refers to display.o(i._ZN7Display8setLightEt) for Display::setLight(unsigned short)
    main.o(i.main) refers to search.o(i._ZN6Search10viewScreenEv) for Search::viewScreen()
    main.o(i.main) refers to main.o(i._Z8setNewIdv) for setNewId()
    main.o(i.main) refers to main.o(i._Z9setNewKeyv) for setNewKey()
    main.o(i.main) refers to system.o(i._ZN6System11changeScaleEhhhhhhhh) for System::changeScale(unsigned char, unsigned char, unsigned char, unsigned char, unsigned char, unsigned char, unsigned char, unsigned char)
    main.o(i.main) refers to main.o(i._Z14activitySearchv) for activitySearch()
    main.o(i.main) refers to main.o(i._Z13activityErrorv) for activityError()
    main.o(i.main) refers to main.o(i._Z13activityAboutv) for activityAbout()
    main.o(i.main) refers to main.o(i._Z11activityAirv) for activityAir()
    main.o(i.main) refers to main.o(i._Z13activitySetupv) for activitySetup()
    main.o(i.main) refers to main.o(i._Z19activityStartTimersv) for activityStartTimers()
    main.o(i.main) refers to main.o(i._Z18activitySetupClockv) for activitySetupClock()
    main.o(i.main) refers to main.o(i._Z13activitySleepv) for activitySleep()
    main.o(i.main) refers to main.o(i._Z12handlerSleepv) for handlerSleep()
    main.o(i.main) refers to main.o(i._Z13handlerSensorv) for handlerSensor()
    main.o(i.main) refers to main.o(i._Z12handlerUsartv) for handlerUsart()
    main.o(i.main) refers to can.o(i._ZN3Can7handlerEv) for Can::handler()
    main.o(i.main) refers to rvc.o(i._ZN9RVCModule7handlerEv) for RVCModule::handler()
    main.o(i.main) refers to main.o(i._Z18handlerTemperaturev) for handlerTemperature()
    main.o(i.main) refers to main.o(i._Z12handlerClockv) for handlerClock()
    main.o(i.main) refers to main.o(i._Z12handlerTimerv) for handlerTimer()
    main.o(i.main) refers to system.o(i._ZN6System13checkDayNightEv) for System::checkDayNight()
    main.o(i.main) refers to display.o(.bss) for display
    main.o(i.main) refers to search.o(.data) for search
    main.o(i.main) refers to system.o(.bss) for air
    main.o(i.main) refers to can.o(.bss) for can
    main.o(i.main) refers to rvc.o(.bss) for rvc
    main.o(i.main) refers to main.o(.data) for isTest
    main.o(i.main) refers to usart.o(.bss) for usart
    main.o(.ARM.exidx) refers to main.o(i._Z12handlerTimerv) for i._Z12handlerTimerv
    main.o(.ARM.exidx) refers to main.o(i._Z12handlerClockv) for i._Z12handlerClockv
    main.o(.ARM.exidx) refers to main.o(i._Z18handlerTemperaturev) for i._Z18handlerTemperaturev
    main.o(.ARM.exidx) refers to main.o(i._Z12handlerUsartv) for i._Z12handlerUsartv
    main.o(.ARM.exidx) refers to main.o(i._Z13handlerSensorv) for i._Z13handlerSensorv
    main.o(.ARM.exidx) refers to main.o(i._Z12handlerSleepv) for i._Z12handlerSleepv
    main.o(.ARM.exidx) refers to main.o(i._Z13activitySleepv) for i._Z13activitySleepv
    main.o(.ARM.exidx) refers to main.o(i._Z18activitySetupClockv) for i._Z18activitySetupClockv
    main.o(.ARM.exidx) refers to main.o(i._Z19activityStartTimersv) for i._Z19activityStartTimersv
    main.o(.ARM.exidx) refers to main.o(i._Z10writeSetupv) for i._Z10writeSetupv
    main.o(.ARM.exidx) refers to main.o(i._Z13activitySetupv) for i._Z13activitySetupv
    main.o(.ARM.exidx) refers to main.o(i._Z11activityAirv) for i._Z11activityAirv
    main.o(.ARM.exidx) refers to main.o(i._Z13activityAboutv) for i._Z13activityAboutv
    main.o(.ARM.exidx) refers to main.o(i._Z13activityErrorv) for i._Z13activityErrorv
    main.o(.ARM.exidx) refers to main.o(i._Z14activitySearchv) for i._Z14activitySearchv
    main.o(.ARM.exidx) refers to main.o(i._Z9setNewKeyv) for i._Z9setNewKeyv
    main.o(.ARM.exidx) refers to main.o(i._Z8setNewIdv) for i._Z8setNewIdv
    main.o(.ARM.exidx) refers to main.o(i._Z7initAllv) for i._Z7initAllv
    main.o(.ARM.exidx) refers to main.o(i._Z9readSetupv) for i._Z9readSetupv
    main.o(.ARM.exidx) refers to main.o(i.main) for i.main
    main.o(.ARM.exidx) refers to main.o(i._Z8addNewIdPh) for i._Z8addNewIdPh
    search.o(i._ZN6Search10viewScreenEv) refers to canvas.o(i._ZN6Canvas13writeFillRectEttttj) for Canvas::writeFillRect(unsigned short, unsigned short, unsigned short, unsigned short, unsigned)
    search.o(i._ZN6Search10viewScreenEv) refers to text.o(i._ZN4Text11writeStringEttPKc7FontDefjj) for Text::writeString(unsigned short, unsigned short, const char*, FontDef, unsigned, unsigned)
    search.o(i._ZN6Search10viewScreenEv) refers to display.o(i._ZN7Display8switchOnEv) for Display::switchOn()
    search.o(i._ZN6Search10viewScreenEv) refers to canvas.o(.bss) for canvas
    search.o(i._ZN6Search10viewScreenEv) refers to font.o(.data) for Font_11x18
    search.o(i._ZN6Search10viewScreenEv) refers to text.o(.bss) for text
    search.o(i._ZN6Search10viewScreenEv) refers to display.o(.bss) for display
    search.o(i._ZN6Search11sensorCheckEv) refers to core.o(i._ZN4Core8setTimerEj) for Core::setTimer(unsigned)
    search.o(i._ZN6Search11sensorCheckEv) refers to sensor.o(.bss) for sensor
    search.o(i._ZN6Search11sensorCheckEv) refers to slider.o(.bss) for slider
    search.o(i._ZN6Search11sensorCheckEv) refers to hcu.o(.bss) for hcu
    search.o(i._ZN6Search11sensorCheckEv) refers to main.o(.data) for isTest
    search.o(i._ZN6Search11sensorCheckEv) refers to core.o(.bss) for core
    search.o(i._ZN6Search11viewConnectEb) refers to canvas.o(i._ZN6Canvas13writeFillRectEttttj) for Canvas::writeFillRect(unsigned short, unsigned short, unsigned short, unsigned short, unsigned)
    search.o(i._ZN6Search11viewConnectEb) refers to usart.o(.bss) for usart
    search.o(i._ZN6Search11viewConnectEb) refers to hcu.o(.bss) for hcu
    search.o(i._ZN6Search11viewConnectEb) refers to canvas.o(.bss) for canvas
    search.o(i._ZN6Search11viewHandlerEv) refers to search.o(i._ZN6Search11viewConnectEb) for Search::viewConnect(bool)
    search.o(i._ZN6Search11viewHandlerEv) refers to search.o(i._ZN6Search11sensorCheckEv) for Search::sensorCheck()
    search.o(i.__sti___10_search_cpp_search) refers to search.o(i._ZN6SearchC1Ev) for Search::Search()
    search.o(i.__sti___10_search_cpp_search) refers to search.o(.data) for search
    search.o(.ARM.exidx) refers to search.o(i._ZN6SearchC1Ev) for i._ZN6SearchC1Ev
    search.o(.ARM.exidx) refers to search.o(i._ZN6Search10viewScreenEv) for i._ZN6Search10viewScreenEv
    search.o(.ARM.exidx) refers to search.o(i._ZN6Search11sensorCheckEv) for i._ZN6Search11sensorCheckEv
    search.o(.ARM.exidx) refers to search.o(i._ZN6Search11viewConnectEb) for i._ZN6Search11viewConnectEb
    search.o(.ARM.exidx) refers to search.o(i._ZN6Search11viewHandlerEv) for i._ZN6Search11viewHandlerEv
    search.o(.ARM.exidx) refers to search.o(i.__sti___10_search_cpp_search) for i.__sti___10_search_cpp_search
    search.o(.init_array) refers to search.o(i.__sti___10_search_cpp_search) for __sti___10_search_cpp_search
    search.o(.init_array) refers to init_aeabi.o(.text) for __cpp_initialize__aeabi_
    error.o(i._ZN5Error10viewScreenEv) refers to canvas.o(i._ZN6Canvas13writeFillRectEttttj) for Canvas::writeFillRect(unsigned short, unsigned short, unsigned short, unsigned short, unsigned)
    error.o(i._ZN5Error10viewScreenEv) refers to text.o(i._ZN4Text12charToStringEPcPKc) for Text::charToString(char*, const char*)
    error.o(i._ZN5Error10viewScreenEv) refers to text.o(i._ZN4Text11writeStringEttPKc7FontDefjj) for Text::writeString(unsigned short, unsigned short, const char*, FontDef, unsigned, unsigned)
    error.o(i._ZN5Error10viewScreenEv) refers to display.o(i._ZN7Display8switchOnEv) for Display::switchOn()
    error.o(i._ZN5Error10viewScreenEv) refers to canvas.o(.bss) for canvas
    error.o(i._ZN5Error10viewScreenEv) refers to text.o(.bss) for text
    error.o(i._ZN5Error10viewScreenEv) refers to font.o(.data) for Font_11x18
    error.o(i._ZN5Error10viewScreenEv) refers to display.o(.bss) for display
    error.o(i._ZN5Error11buttonPressEv) refers to core.o(i._ZN4Core8getTimerEv) for Core::getTimer()
    error.o(i._ZN5Error11buttonPressEv) refers to hcu.o(.bss) for hcu
    error.o(i._ZN5Error11buttonPressEv) refers to core.o(.bss) for core
    error.o(i._ZN5Error11buttonPressEv) refers to usart.o(.bss) for usart
    error.o(i._ZN5Error11buttonPressEv) refers to error.o(.data) for error
    error.o(i._ZN5Error11sensorCheckEv) refers to error.o(i._ZN5Error11buttonPressEv) for Error::buttonPress()
    error.o(i._ZN5Error11sensorCheckEv) refers to core.o(i._ZN4Core8setTimerEj) for Core::setTimer(unsigned)
    error.o(i._ZN5Error11sensorCheckEv) refers to sensor.o(.bss) for sensor
    error.o(i._ZN5Error11sensorCheckEv) refers to slider.o(.bss) for slider
    error.o(i._ZN5Error11sensorCheckEv) refers to core.o(.bss) for core
    error.o(i._ZN5Error11viewHandlerEv) refers to error.o(i._ZN5Error8viewModeEv) for Error::viewMode()
    error.o(i._ZN5Error11viewHandlerEv) refers to error.o(i._ZN5Error11sensorCheckEv) for Error::sensorCheck()
    error.o(i._ZN5Error11viewHandlerEv) refers to hcu.o(.bss) for hcu
    error.o(i._ZN5Error8viewModeEv) refers to text.o(i._ZN4Text12charToStringEPcPKc) for Text::charToString(char*, const char*)
    error.o(i._ZN5Error8viewModeEv) refers to text.o(i._ZN4Text11decToStringEPci) for Text::decToString(char*, int)
    error.o(i._ZN5Error8viewModeEv) refers to text.o(i._ZN4Text11writeStringEttPKc7FontDefjj) for Text::writeString(unsigned short, unsigned short, const char*, FontDef, unsigned, unsigned)
    error.o(i._ZN5Error8viewModeEv) refers to canvas.o(i._ZN6Canvas15loadImageEffectEttjjh) for Canvas::loadImageEffect(unsigned short, unsigned short, unsigned, unsigned, unsigned char)
    error.o(i._ZN5Error8viewModeEv) refers to error.o(i._ZN5Error9viewErrorEh) for Error::viewError(unsigned char)
    error.o(i._ZN5Error8viewModeEv) refers to hcu.o(.bss) for hcu
    error.o(i._ZN5Error8viewModeEv) refers to error.o(.data) for error
    error.o(i._ZN5Error8viewModeEv) refers to text.o(.bss) for text
    error.o(i._ZN5Error8viewModeEv) refers to font.o(.data) for Font_11x18
    error.o(i._ZN5Error8viewModeEv) refers to canvas.o(.bss) for canvas
    error.o(i._ZN5Error9viewErrorEh) refers to text.o(i._ZN4Text15writeStringOverEssPc7FontDefjjh) for Text::writeStringOver(short, short, char*, FontDef, unsigned, unsigned, unsigned char)
    error.o(i._ZN5Error9viewErrorEh) refers to text.o(i._ZN4Text11decToStringEPci) for Text::decToString(char*, int)
    error.o(i._ZN5Error9viewErrorEh) refers to main.o(.constdata) for errors
    error.o(i._ZN5Error9viewErrorEh) refers to font.o(.data) for Font_11x18
    error.o(i._ZN5Error9viewErrorEh) refers to text.o(.bss) for text
    error.o(i.__sti___9_error_cpp_error) refers to error.o(i._ZN5ErrorC1Ev) for Error::Error()
    error.o(i.__sti___9_error_cpp_error) refers to error.o(.data) for error
    error.o(.ARM.exidx) refers to error.o(i._ZN5ErrorC1Ev) for i._ZN5ErrorC1Ev
    error.o(.ARM.exidx) refers to error.o(i._ZN5Error10viewScreenEv) for i._ZN5Error10viewScreenEv
    error.o(.ARM.exidx) refers to error.o(i._ZN5Error11buttonPressEv) for i._ZN5Error11buttonPressEv
    error.o(.ARM.exidx) refers to error.o(i._ZN5Error11sensorCheckEv) for i._ZN5Error11sensorCheckEv
    error.o(.ARM.exidx) refers to error.o(i._ZN5Error9viewErrorEh) for i._ZN5Error9viewErrorEh
    error.o(.ARM.exidx) refers to error.o(i._ZN5Error8viewModeEv) for i._ZN5Error8viewModeEv
    error.o(.ARM.exidx) refers to error.o(i._ZN5Error11viewHandlerEv) for i._ZN5Error11viewHandlerEv
    error.o(.ARM.exidx) refers to error.o(i.__sti___9_error_cpp_error) for i.__sti___9_error_cpp_error
    error.o(.init_array) refers to error.o(i.__sti___9_error_cpp_error) for __sti___9_error_cpp_error
    error.o(.init_array) refers to init_aeabi.o(.text) for __cpp_initialize__aeabi_
    system.o(i._ZN6System10viewScreenEb) refers to canvas.o(i._ZN6Canvas13writeFillRectEttttj) for Canvas::writeFillRect(unsigned short, unsigned short, unsigned short, unsigned short, unsigned)
    system.o(i._ZN6System10viewScreenEb) refers to slider.o(i._ZN6Slider10viewScreenEv) for Slider::viewScreen()
    system.o(i._ZN6System10viewScreenEb) refers to canvas.o(i._ZN6Canvas15loadImageEffectEttjjh) for Canvas::loadImageEffect(unsigned short, unsigned short, unsigned, unsigned, unsigned char)
    system.o(i._ZN6System10viewScreenEb) refers to system.o(i._ZN6System8viewModeEv) for System::viewMode()
    system.o(i._ZN6System10viewScreenEb) refers to slider.o(i._ZN6Slider9setMinMaxEshhhh) for Slider::setMinMax(short, unsigned char, unsigned char, unsigned char, unsigned char)
    system.o(i._ZN6System10viewScreenEb) refers to slider.o(i._ZN6Slider12viewGridSensEtjb) for Slider::viewGridSens(unsigned short, unsigned, bool)
    system.o(i._ZN6System10viewScreenEb) refers to system.o(i._ZN6System11sensorCheckEv) for System::sensorCheck()
    system.o(i._ZN6System10viewScreenEb) refers to slider.o(i._ZN6Slider11drawDigGridEv) for Slider::drawDigGrid()
    system.o(i._ZN6System10viewScreenEb) refers to slider.o(i._ZN6Slider6setValEt) for Slider::setVal(unsigned short)
    system.o(i._ZN6System10viewScreenEb) refers to core.o(i._ZN4Core7getTickEv) for Core::getTick()
    system.o(i._ZN6System10viewScreenEb) refers to system.o(i._ZN6System15viewTemperatureEb) for System::viewTemperature(bool)
    system.o(i._ZN6System10viewScreenEb) refers to hcu.o(.bss) for hcu
    system.o(i._ZN6System10viewScreenEb) refers to temperature.o(.bss) for temperature
    system.o(i._ZN6System10viewScreenEb) refers to canvas.o(.bss) for canvas
    system.o(i._ZN6System10viewScreenEb) refers to slider.o(.bss) for slider
    system.o(i._ZN6System10viewScreenEb) refers to system.o(.bss) for air
    system.o(i._ZN6System10viewScreenEb) refers to main.o(.data) for isBleAccept
    system.o(i._ZN6System10viewScreenEb) refers to core.o(.bss) for core
    system.o(i._ZN6System11buttonCheckEh) refers to core.o(i._ZN4Core7delayMsEj) for Core::delayMs(unsigned)
    system.o(i._ZN6System11buttonCheckEh) refers to gd32f30x_gpio.o(i._Z18gpio_input_bit_getjj) for gpio_input_bit_get(unsigned, unsigned)
    system.o(i._ZN6System11buttonCheckEh) refers to system.o(i._ZN6System11buttonPressEv) for System::buttonPress()
    system.o(i._ZN6System11buttonCheckEh) refers to sensor.o(.bss) for sensor
    system.o(i._ZN6System11buttonCheckEh) refers to core.o(.bss) for core
    system.o(i._ZN6System11sensorCheckEv) refers to core.o(i._ZN4Core7getTickEv) for Core::getTick()
    system.o(i._ZN6System11sensorCheckEv) refers to core.o(i._ZN4Core8getTimerEv) for Core::getTimer()
    system.o(i._ZN6System11sensorCheckEv) refers to core.o(i._ZN4Core8setTimerEj) for Core::setTimer(unsigned)
    system.o(i._ZN6System11sensorCheckEv) refers to system.o(i._ZN6System12viewDurationEbt) for System::viewDuration(bool, unsigned short)
    system.o(i._ZN6System11sensorCheckEv) refers to canvas.o(i._ZN6Canvas15loadImageEffectEttjjh) for Canvas::loadImageEffect(unsigned short, unsigned short, unsigned, unsigned, unsigned char)
    system.o(i._ZN6System11sensorCheckEv) refers to slider.o(i._ZN6Slider11setPositionEs) for Slider::setPosition(short)
    system.o(i._ZN6System11sensorCheckEv) refers to sensor.o(.bss) for sensor
    system.o(i._ZN6System11sensorCheckEv) refers to slider.o(.bss) for slider
    system.o(i._ZN6System11sensorCheckEv) refers to setup.o(.data) for setup
    system.o(i._ZN6System11sensorCheckEv) refers to core.o(.bss) for core
    system.o(i._ZN6System11sensorCheckEv) refers to hcu.o(.bss) for hcu
    system.o(i._ZN6System11sensorCheckEv) refers to canvas.o(.bss) for canvas
    system.o(i._ZN6System11sensorCheckEv) refers to system.o(.bss) for air
    system.o(i._ZN6System11sensorCheckEv) refers to sqrtf.o(i.__hardfp_sqrtf) for __hardfp_sqrtf
    system.o(i._ZN6System11sensorCheckEv) refers to text.o(i._ZN4Text11decToStringEPci) for Text::decToString(char*, int)
    system.o(i._ZN6System11sensorCheckEv) refers to text.o(i._ZN4Text15writeStringOverEssPc7FontDefjjh) for Text::writeStringOver(short, short, char*, FontDef, unsigned, unsigned, unsigned char)
    system.o(i._ZN6System11sensorCheckEv) refers to text.o(.bss) for text
    system.o(i._ZN6System11sensorCheckEv) refers to font.o(.data) for Font_16x26
    system.o(i._ZN6System11viewHandlerEv) refers to system.o(i._ZN6System15viewTemperatureEb) for System::viewTemperature(bool)
    system.o(i._ZN6System11viewHandlerEv) refers to slider.o(i._ZN6Slider12viewPositionEv) for Slider::viewPosition()
    system.o(i._ZN6System11viewHandlerEv) refers to system.o(i._ZN6System8viewModeEv) for System::viewMode()
    system.o(i._ZN6System11viewHandlerEv) refers to system.o(i._ZN6System12viewDurationEv) for System::viewDuration()
    system.o(i._ZN6System11viewHandlerEv) refers to system.o(i._ZN6System11buttonCheckEh) for System::buttonCheck(unsigned char)
    system.o(i._ZN6System11viewHandlerEv) refers to system.o(i._ZN6System12checkConnectEv) for System::checkConnect()
    system.o(i._ZN6System11viewHandlerEv) refers to system.o(i._ZN6System11sensorCheckEv) for System::sensorCheck()
    system.o(i._ZN6System11viewHandlerEv) refers to start_timer.o(i._ZN10StartTimer10viewButtonEv) for StartTimer::viewButton()
    system.o(i._ZN6System11viewHandlerEv) refers to slider.o(.bss) for slider
    system.o(i._ZN6System11viewHandlerEv) refers to sensor.o(.bss) for sensor
    system.o(i._ZN6System11viewHandlerEv) refers to system.o(.bss) for air
    system.o(i._ZN6System11viewHandlerEv) refers to start_timer.o(.bss) for startTimer
    system.o(i._ZN6System11viewMessageEPc) refers to text.o(i._ZN4Text15writeStringOverEssPc7FontDefjjh) for Text::writeStringOver(short, short, char*, FontDef, unsigned, unsigned, unsigned char)
    system.o(i._ZN6System11viewMessageEPc) refers to font.o(.data) for Font_11x18
    system.o(i._ZN6System11viewMessageEPc) refers to text.o(.bss) for text
    system.o(i._ZN6System12checkConnectEv) refers to usart.o(.bss) for usart
    system.o(i._ZN6System12checkConnectEv) refers to hcu.o(.bss) for hcu
    system.o(i._ZN6System12viewDurationEbt) refers to core.o(i._ZN4Core7getTickEv) for Core::getTick()
    system.o(i._ZN6System12viewDurationEbt) refers to core.o(.bss) for core
    system.o(i._ZN6System12viewDurationEv) refers to core.o(i._ZN4Core7getTickEv) for Core::getTick()
    system.o(i._ZN6System12viewDurationEv) refers to canvas.o(i._ZN6Canvas19loadImageEffectPolyEttjjh) for Canvas::loadImageEffectPoly(unsigned short, unsigned short, unsigned, unsigned, unsigned char)
    system.o(i._ZN6System12viewDurationEv) refers to text.o(i._ZN4Text12charToStringEPcPKc) for Text::charToString(char*, const char*)
    system.o(i._ZN6System12viewDurationEv) refers to text.o(i._ZN4Text11decToStringEPci) for Text::decToString(char*, int)
    system.o(i._ZN6System12viewDurationEv) refers to system.o(i._ZN6System11viewMessageEPc) for System::viewMessage(char*)
    system.o(i._ZN6System12viewDurationEv) refers to core.o(.bss) for core
    system.o(i._ZN6System12viewDurationEv) refers to canvas.o(.bss) for canvas
    system.o(i._ZN6System12viewDurationEv) refers to text.o(.bss) for text
    system.o(i._ZN6System13checkDayNightEv) refers to core.o(i._ZN4Core7getTickEv) for Core::getTick()
    system.o(i._ZN6System13checkDayNightEv) refers to canvas.o(i._ZN6Canvas15loadImageEffectEttjjh) for Canvas::loadImageEffect(unsigned short, unsigned short, unsigned, unsigned, unsigned char)
    system.o(i._ZN6System13checkDayNightEv) refers to slider.o(i._ZN6Slider11setPositionEs) for Slider::setPosition(short)
    system.o(i._ZN6System13checkDayNightEv) refers to clock.o(.bss) for clock
    system.o(i._ZN6System13checkDayNightEv) refers to core.o(.bss) for core
    system.o(i._ZN6System13checkDayNightEv) refers to main.o(.data) for screen_visible
    system.o(i._ZN6System13checkDayNightEv) refers to canvas.o(.bss) for canvas
    system.o(i._ZN6System13checkDayNightEv) refers to system.o(.bss) for air
    system.o(i._ZN6System13checkDayNightEv) refers to hcu.o(.bss) for hcu
    system.o(i._ZN6System13checkDayNightEv) refers to slider.o(.bss) for slider
    system.o(i._ZN6System15viewTemperatureEb) refers to core.o(i._ZN4Core7getTickEv) for Core::getTick()
    system.o(i._ZN6System15viewTemperatureEb) refers to core.o(i._ZN4Core8farToCelEf) for Core::farToCel(float)
    system.o(i._ZN6System15viewTemperatureEb) refers to text.o(i._ZN4Text11decToStringEPci) for Text::decToString(char*, int)
    system.o(i._ZN6System15viewTemperatureEb) refers to canvas.o(i._ZN6Canvas13writeFillRectEttttj) for Canvas::writeFillRect(unsigned short, unsigned short, unsigned short, unsigned short, unsigned)
    system.o(i._ZN6System15viewTemperatureEb) refers to text.o(i._ZN4Text13writeOneDigitEttcjh) for Text::writeOneDigit(unsigned short, unsigned short, char, unsigned, unsigned char)
    system.o(i._ZN6System15viewTemperatureEb) refers to core.o(.bss) for core
    system.o(i._ZN6System15viewTemperatureEb) refers to system.o(.data) for timer
    system.o(i._ZN6System15viewTemperatureEb) refers to display.o(.bss) for display
    system.o(i._ZN6System15viewTemperatureEb) refers to temperature.o(.bss) for temperature
    system.o(i._ZN6System15viewTemperatureEb) refers to system.o(.bss) for air
    system.o(i._ZN6System15viewTemperatureEb) refers to hcu.o(.bss) for hcu
    system.o(i._ZN6System15viewTemperatureEb) refers to setup.o(.data) for setup
    system.o(i._ZN6System15viewTemperatureEb) refers to text.o(.bss) for text
    system.o(i._ZN6System15viewTemperatureEb) refers to font.o(.data) for Font_16x26
    system.o(i._ZN6System15viewTemperatureEb) refers to canvas.o(.bss) for canvas
    system.o(i._ZN6System8viewModeEv) refers to canvas.o(i._ZN6Canvas15loadImageEffectEttjjh) for Canvas::loadImageEffect(unsigned short, unsigned short, unsigned, unsigned, unsigned char)
    system.o(i._ZN6System8viewModeEv) refers to canvas.o(i._ZN6Canvas18loadImageEffectRedEttjj) for Canvas::loadImageEffectRed(unsigned short, unsigned short, unsigned, unsigned)
    system.o(i._ZN6System8viewModeEv) refers to canvas.o(.bss) for canvas
    system.o(i.__sti___10_system_cpp_air) refers to system.o(i._ZN6SystemC1Ehhhhhhhh) for System::System(unsigned char, unsigned char, unsigned char, unsigned char, unsigned char, unsigned char, unsigned char, unsigned char)
    system.o(i.__sti___10_system_cpp_air) refers to system.o(.bss) for air
    system.o(.ARM.exidx) refers to system.o(i._ZN6SystemC1Ehhhhhhhh) for i._ZN6SystemC1Ehhhhhhhh
    system.o(.ARM.exidx) refers to system.o(i._ZN6System15viewTemperatureEb) for i._ZN6System15viewTemperatureEb
    system.o(.ARM.exidx) refers to system.o(i._ZN6System12viewDurationEbt) for i._ZN6System12viewDurationEbt
    system.o(.ARM.exidx) refers to system.o(i._ZN6System11sensorCheckEv) for i._ZN6System11sensorCheckEv
    system.o(.ARM.exidx) refers to system.o(i._ZN6System8viewModeEv) for i._ZN6System8viewModeEv
    system.o(.ARM.exidx) refers to system.o(i._ZN6System10viewScreenEb) for i._ZN6System10viewScreenEb
    system.o(.ARM.exidx) refers to system.o(i._ZN6System12checkConnectEv) for i._ZN6System12checkConnectEv
    system.o(.ARM.exidx) refers to system.o(i._ZN6System11buttonPressEv) for i._ZN6System11buttonPressEv
    system.o(.ARM.exidx) refers to system.o(i._ZN6System11buttonCheckEh) for i._ZN6System11buttonCheckEh
    system.o(.ARM.exidx) refers to system.o(i._ZN6System11viewMessageEPc) for i._ZN6System11viewMessageEPc
    system.o(.ARM.exidx) refers to system.o(i._ZN6System12viewDurationEv) for i._ZN6System12viewDurationEv
    system.o(.ARM.exidx) refers to system.o(i._ZN6System11viewHandlerEv) for i._ZN6System11viewHandlerEv
    system.o(.ARM.exidx) refers to system.o(i._ZN6System13checkDayNightEv) for i._ZN6System13checkDayNightEv
    system.o(.ARM.exidx) refers to system.o(i._ZN6System11changeScaleEhhhhhhhh) for i._ZN6System11changeScaleEhhhhhhhh
    system.o(.ARM.exidx) refers to system.o(i.__sti___10_system_cpp_air) for i.__sti___10_system_cpp_air
    system.o(.init_array) refers to system.o(i.__sti___10_system_cpp_air) for __sti___10_system_cpp_air
    system.o(.init_array) refers to init_aeabi.o(.text) for __cpp_initialize__aeabi_
    sleep.o(i._Z14SysTick_Configj) refers to sleep.o(i._Z18__NVIC_SetPriority4IRQnj) for __NVIC_SetPriority(IRQn, unsigned)
    sleep.o(i._ZN5Sleep10viewScreenEv) refers to clock.o(i._ZN5Clock11viewAnClockEh) for Clock::viewAnClock(unsigned char)
    sleep.o(i._ZN5Sleep10viewScreenEv) refers to display.o(i._ZN7Display7turnOffEv) for Display::turnOff()
    sleep.o(i._ZN5Sleep10viewScreenEv) refers to display.o(i._ZN7Display8setLightEt) for Display::setLight(unsigned short)
    sleep.o(i._ZN5Sleep10viewScreenEv) refers to sleep.o(i._ZN5Sleep11setLowPowerEb) for Sleep::setLowPower(bool)
    sleep.o(i._ZN5Sleep10viewScreenEv) refers to display.o(.bss) for display
    sleep.o(i._ZN5Sleep10viewScreenEv) refers to clock.o(.bss) for clock
    sleep.o(i._ZN5Sleep11setLowPowerEb) refers to system_gd32f30x.o(i.SystemCoreClockUpdate) for SystemCoreClockUpdate
    sleep.o(i._ZN5Sleep11setLowPowerEb) refers to sleep.o(i._Z14SysTick_Configj) for SysTick_Config(unsigned)
    sleep.o(i._ZN5Sleep11setLowPowerEb) refers to sleep.o(i._Z18__NVIC_SetPriority4IRQnj) for __NVIC_SetPriority(IRQn, unsigned)
    sleep.o(i._ZN5Sleep11setLowPowerEb) refers to usart.o(i._ZN5Usart14changeBaudrateEj) for Usart::changeBaudrate(unsigned)
    sleep.o(i._ZN5Sleep11setLowPowerEb) refers to display.o(i._ZN7Display8setTimerEj) for Display::setTimer(unsigned)
    sleep.o(i._ZN5Sleep11setLowPowerEb) refers to system_gd32f30x.o(.data) for SystemCoreClock
    sleep.o(i._ZN5Sleep11setLowPowerEb) refers to usart.o(.bss) for usart
    sleep.o(i._ZN5Sleep11setLowPowerEb) refers to display.o(.bss) for display
    sleep.o(i._ZN5Sleep14checkSleepModeEv) refers to sleep.o(i._ZN5Sleep7handlerEv) for Sleep::handler()
    sleep.o(i._ZN5Sleep14checkSleepModeEv) refers to display.o(i._ZN7Display8getTimerEv) for Display::getTimer()
    sleep.o(i._ZN5Sleep14checkSleepModeEv) refers to display.o(.bss) for display
    sleep.o(i._ZN5Sleep7handlerEv) refers to sensor.o(i._ZN6Sensor7handlerEv) for Sensor::handler()
    sleep.o(i._ZN5Sleep7handlerEv) refers to gd32f30x_gpio.o(i._Z18gpio_input_bit_getjj) for gpio_input_bit_get(unsigned, unsigned)
    sleep.o(i._ZN5Sleep7handlerEv) refers to clock.o(i._ZN5Clock17viewAnClockSecondEv) for Clock::viewAnClockSecond()
    sleep.o(i._ZN5Sleep7handlerEv) refers to clock.o(i._ZN5Clock17viewAnClockMinuteEv) for Clock::viewAnClockMinute()
    sleep.o(i._ZN5Sleep7handlerEv) refers to clock.o(i._ZN5Clock15viewAnClockHourEPcPah) for Clock::viewAnClockHour(char*, signed char*, unsigned char)
    sleep.o(i._ZN5Sleep7handlerEv) refers to clock.o(i._ZN5Clock18viewCenterDigClockEc) for Clock::viewCenterDigClock(char)
    sleep.o(i._ZN5Sleep7handlerEv) refers to core.o(i._ZN4Core7delayMsEj) for Core::delayMs(unsigned)
    sleep.o(i._ZN5Sleep7handlerEv) refers to sensor.o(.bss) for sensor
    sleep.o(i._ZN5Sleep7handlerEv) refers to hcu.o(.bss) for hcu
    sleep.o(i._ZN5Sleep7handlerEv) refers to error.o(.data) for error
    sleep.o(i._ZN5Sleep7handlerEv) refers to sleep.o(.data) for stageTemp
    sleep.o(i._ZN5Sleep7handlerEv) refers to main.o(.data) for screen_visible
    sleep.o(i._ZN5Sleep7handlerEv) refers to clock.o(.bss) for clock
    sleep.o(i._ZN5Sleep7handlerEv) refers to core.o(.bss) for core
    sleep.o(i.__sti___9_sleep_cpp_sleep) refers to sleep.o(i._ZN5SleepC1Ev) for Sleep::Sleep()
    sleep.o(i.__sti___9_sleep_cpp_sleep) refers to sleep.o(.data) for sleep
    sleep.o(.ARM.exidx) refers to sleep.o(i._Z18__NVIC_SetPriority4IRQnj) for i._Z18__NVIC_SetPriority4IRQnj
    sleep.o(.ARM.exidx) refers to sleep.o(i._Z14SysTick_Configj) for i._Z14SysTick_Configj
    sleep.o(.ARM.exidx) refers to sleep.o(i._ZN5SleepC1Ev) for i._ZN5SleepC1Ev
    sleep.o(.ARM.exidx) refers to sleep.o(i._ZN5Sleep7handlerEv) for i._ZN5Sleep7handlerEv
    sleep.o(.ARM.exidx) refers to sleep.o(i._ZN5Sleep14checkSleepModeEv) for i._ZN5Sleep14checkSleepModeEv
    sleep.o(.ARM.exidx) refers to sleep.o(i._ZN5Sleep11setLowPowerEb) for i._ZN5Sleep11setLowPowerEb
    sleep.o(.ARM.exidx) refers to sleep.o(i._ZN5Sleep10viewScreenEv) for i._ZN5Sleep10viewScreenEv
    sleep.o(.ARM.exidx) refers to sleep.o(i.__sti___9_sleep_cpp_sleep) for i.__sti___9_sleep_cpp_sleep
    sleep.o(.init_array) refers to sleep.o(i.__sti___9_sleep_cpp_sleep) for __sti___9_sleep_cpp_sleep
    sleep.o(.init_array) refers to init_aeabi.o(.text) for __cpp_initialize__aeabi_
    start_timers.o(i._ZN11StartTimers10viewScreenEv) refers to start_timer.o(i._ZN10StartTimer10viewScreenEh) for StartTimer::viewScreen(unsigned char)
    start_timers.o(i._ZN11StartTimers10viewScreenEv) refers to start_timer.o(.bss) for startTimer
    start_timers.o(i._ZN11StartTimers7handlerEv) refers to start_timer.o(i._ZN10StartTimer10viewScreenEh) for StartTimer::viewScreen(unsigned char)
    start_timers.o(i._ZN11StartTimers7handlerEv) refers to start_timer.o(.bss) for startTimer
    start_timers.o(i.__sti___16_start_timers_cpp_1ec715f4) refers to start_timers.o(i._ZN11StartTimersC1Ev) for StartTimers::StartTimers()
    start_timers.o(i.__sti___16_start_timers_cpp_1ec715f4) refers to start_timers.o(.data) for startTimers
    start_timers.o(.ARM.exidx) refers to start_timers.o(i._ZN11StartTimersC1Ev) for i._ZN11StartTimersC1Ev
    start_timers.o(.ARM.exidx) refers to start_timers.o(i._ZN11StartTimers10viewScreenEv) for i._ZN11StartTimers10viewScreenEv
    start_timers.o(.ARM.exidx) refers to start_timers.o(i._ZN11StartTimers7handlerEv) for i._ZN11StartTimers7handlerEv
    start_timers.o(.ARM.exidx) refers to start_timers.o(i.__sti___16_start_timers_cpp_1ec715f4) for i.__sti___16_start_timers_cpp_1ec715f4
    start_timers.o(.init_array) refers to start_timers.o(i.__sti___16_start_timers_cpp_1ec715f4) for __sti___16_start_timers_cpp_1ec715f4
    start_timers.o(.init_array) refers to init_aeabi.o(.text) for __cpp_initialize__aeabi_
    setup.o(i._ZN5Setup10viewScreenEv) refers to display.o(i._ZN7Display7turnOffEv) for Display::turnOff()
    setup.o(i._ZN5Setup10viewScreenEv) refers to canvas.o(i._ZN6Canvas13writeFillRectEttttj) for Canvas::writeFillRect(unsigned short, unsigned short, unsigned short, unsigned short, unsigned)
    setup.o(i._ZN5Setup10viewScreenEv) refers to canvas.o(i._ZN6Canvas15loadImageEffectEttjjh) for Canvas::loadImageEffect(unsigned short, unsigned short, unsigned, unsigned, unsigned char)
    setup.o(i._ZN5Setup10viewScreenEv) refers to display.o(i._ZN7Display8switchOnEv) for Display::switchOn()
    setup.o(i._ZN5Setup10viewScreenEv) refers to setup.o(i._ZN5Setup8viewPageEhh) for Setup::viewPage(unsigned char, unsigned char)
    setup.o(i._ZN5Setup10viewScreenEv) refers to display.o(.bss) for display
    setup.o(i._ZN5Setup10viewScreenEv) refers to canvas.o(.bss) for canvas
    setup.o(i._ZN5Setup11viewScreen1Eh) refers to text.o(i._ZN4Text11writeStringEttPKc7FontDefjj) for Text::writeString(unsigned short, unsigned short, const char*, FontDef, unsigned, unsigned)
    setup.o(i._ZN5Setup11viewScreen1Eh) refers to slider.o(i._ZN6Slider8drawSlimEttfPKctcbPbbjh) for Slider::drawSlim(unsigned short, unsigned short, float, const char*, unsigned short, char, bool, bool*, bool, unsigned, unsigned char)
    setup.o(i._ZN5Setup11viewScreen1Eh) refers to display.o(i._ZN7Display8setLightEt) for Display::setLight(unsigned short)
    setup.o(i._ZN5Setup11viewScreen1Eh) refers to checkbox.o(i._ZN8Checkbox4drawEttPKcPc) for Checkbox::draw(unsigned short, unsigned short, const char*, char*)
    setup.o(i._ZN5Setup11viewScreen1Eh) refers to font.o(.data) for Font_11x18
    setup.o(i._ZN5Setup11viewScreen1Eh) refers to text.o(.bss) for text
    setup.o(i._ZN5Setup11viewScreen1Eh) refers to display.o(.bss) for display
    setup.o(i._ZN5Setup11viewScreen1Eh) refers to setup.o(.data) for posTimeout
    setup.o(i._ZN5Setup11viewScreen1Eh) refers to slider.o(.bss) for slider
    setup.o(i._ZN5Setup11viewScreen1Eh) refers to checkbox.o(.data) for checkbox
    setup.o(i._ZN5Setup11viewScreen1Eh) refers to sensor.o(.bss) for sensor
    setup.o(i._ZN5Setup12viewScreen10Eh) refers to text.o(i._ZN4Text11writeStringEttPKc7FontDefjj) for Text::writeString(unsigned short, unsigned short, const char*, FontDef, unsigned, unsigned)
    setup.o(i._ZN5Setup12viewScreen10Eh) refers to checkbox.o(i._ZN8Checkbox4drawEttPKcPc) for Checkbox::draw(unsigned short, unsigned short, const char*, char*)
    setup.o(i._ZN5Setup12viewScreen10Eh) refers to slider.o(i._ZN6Slider8drawSlimEttfPKctcbPbbjh) for Slider::drawSlim(unsigned short, unsigned short, float, const char*, unsigned short, char, bool, bool*, bool, unsigned, unsigned char)
    setup.o(i._ZN5Setup12viewScreen10Eh) refers to core.o(i._ZN4Core7getTickEv) for Core::getTick()
    setup.o(i._ZN5Setup12viewScreen10Eh) refers to font.o(.data) for Font_11x18
    setup.o(i._ZN5Setup12viewScreen10Eh) refers to text.o(.bss) for text
    setup.o(i._ZN5Setup12viewScreen10Eh) refers to hcu.o(.bss) for hcu
    setup.o(i._ZN5Setup12viewScreen10Eh) refers to checkbox.o(.data) for checkbox
    setup.o(i._ZN5Setup12viewScreen10Eh) refers to slider.o(.bss) for slider
    setup.o(i._ZN5Setup12viewScreen10Eh) refers to sensor.o(.bss) for sensor
    setup.o(i._ZN5Setup12viewScreen10Eh) refers to core.o(.bss) for core
    setup.o(i._ZN5Setup12viewScreen11Eh) refers to dflt_clz.o(x$fpl$dfltu) for __aeabi_ui2d
    setup.o(i._ZN5Setup12viewScreen11Eh) refers to ddiv.o(x$fpl$ddiv) for __aeabi_ddiv
    setup.o(i._ZN5Setup12viewScreen11Eh) refers to daddsub_clz.o(x$fpl$dadd) for __aeabi_dadd
    setup.o(i._ZN5Setup12viewScreen11Eh) refers to dmul.o(x$fpl$dmul) for __aeabi_dmul
    setup.o(i._ZN5Setup12viewScreen11Eh) refers to dfixu.o(x$fpl$dfixu) for __aeabi_d2uiz
    setup.o(i._ZN5Setup12viewScreen11Eh) refers to text.o(i._ZN4Text11writeStringEttPKc7FontDefjj) for Text::writeString(unsigned short, unsigned short, const char*, FontDef, unsigned, unsigned)
    setup.o(i._ZN5Setup12viewScreen11Eh) refers to canvas.o(i._ZN6Canvas10writeMinusEtt) for Canvas::writeMinus(unsigned short, unsigned short)
    setup.o(i._ZN5Setup12viewScreen11Eh) refers to canvas.o(i._ZN6Canvas9writePlusEtt) for Canvas::writePlus(unsigned short, unsigned short)
    setup.o(i._ZN5Setup12viewScreen11Eh) refers to text.o(i._ZN4Text11decToStringEPci) for Text::decToString(char*, int)
    setup.o(i._ZN5Setup12viewScreen11Eh) refers to text.o(i._ZN4Text14decToStringFixEPcih) for Text::decToStringFix(char*, int, unsigned char)
    setup.o(i._ZN5Setup12viewScreen11Eh) refers to text.o(i._ZN4Text10writeDigitEttPKcjh) for Text::writeDigit(unsigned short, unsigned short, const char*, unsigned, unsigned char)
    setup.o(i._ZN5Setup12viewScreen11Eh) refers to system.o(.bss) for air
    setup.o(i._ZN5Setup12viewScreen11Eh) refers to font.o(.data) for Font_11x18
    setup.o(i._ZN5Setup12viewScreen11Eh) refers to text.o(.bss) for text
    setup.o(i._ZN5Setup12viewScreen11Eh) refers to display.o(.bss) for display
    setup.o(i._ZN5Setup12viewScreen11Eh) refers to canvas.o(.bss) for canvas
    setup.o(i._ZN5Setup12viewScreen11Eh) refers to checkbox.o(i._ZN8Checkbox4drawEttPKcPc) for Checkbox::draw(unsigned short, unsigned short, const char*, char*)
    setup.o(i._ZN5Setup12viewScreen11Eh) refers to checkbox.o(i._ZN8Checkbox4drawEttPKcb) for Checkbox::draw(unsigned short, unsigned short, const char*, bool)
    setup.o(i._ZN5Setup12viewScreen11Eh) refers to slider.o(i._ZN6Slider10drawDoubleEtthhPKcbPbh) for Slider::drawDouble(unsigned short, unsigned short, unsigned char, unsigned char, const char*, bool, bool*, unsigned char)
    setup.o(i._ZN5Setup12viewScreen11Eh) refers to dflt_clz.o(x$fpl$dflt) for __aeabi_i2d
    setup.o(i._ZN5Setup12viewScreen11Eh) refers to dleqf.o(x$fpl$dleqf) for __aeabi_cdcmple
    setup.o(i._ZN5Setup12viewScreen11Eh) refers to daddsub_clz.o(x$fpl$dsub) for __aeabi_dsub
    setup.o(i._ZN5Setup12viewScreen11Eh) refers to d2f.o(x$fpl$d2f) for __aeabi_d2f
    setup.o(i._ZN5Setup12viewScreen11Eh) refers to drleqf.o(x$fpl$drleqf) for __aeabi_cdrcmple
    setup.o(i._ZN5Setup12viewScreen11Eh) refers to checkbox.o(.data) for checkbox
    setup.o(i._ZN5Setup12viewScreen11Eh) refers to setup.o(.data) for numSelectSlider
    setup.o(i._ZN5Setup12viewScreen11Eh) refers to slider.o(.bss) for slider
    setup.o(i._ZN5Setup12viewScreen11Eh) refers to sensor.o(.bss) for sensor
    setup.o(i._ZN5Setup12viewScreen12Eh) refers to text.o(i._ZN4Text11writeStringEttPKc7FontDefjj) for Text::writeString(unsigned short, unsigned short, const char*, FontDef, unsigned, unsigned)
    setup.o(i._ZN5Setup12viewScreen12Eh) refers to core.o(i._ZN4Core7getTickEv) for Core::getTick()
    setup.o(i._ZN5Setup12viewScreen12Eh) refers to text.o(i._ZN4Text11decToStringEPci) for Text::decToString(char*, int)
    setup.o(i._ZN5Setup12viewScreen12Eh) refers to display.o(.bss) for display
    setup.o(i._ZN5Setup12viewScreen12Eh) refers to font.o(.data) for Font_11x18
    setup.o(i._ZN5Setup12viewScreen12Eh) refers to text.o(.bss) for text
    setup.o(i._ZN5Setup12viewScreen12Eh) refers to core.o(.bss) for core
    setup.o(i._ZN5Setup12viewScreen12Eh) refers to setup.o(.data) for timer
    setup.o(i._ZN5Setup12viewScreen12Eh) refers to system.o(.bss) for air
    setup.o(i._ZN5Setup12viewScreen12Eh) refers to hcu.o(.bss) for hcu
    setup.o(i._ZN5Setup12viewScreen13Eh) refers to text.o(i._ZN4Text11writeStringEttPKc7FontDefjj) for Text::writeString(unsigned short, unsigned short, const char*, FontDef, unsigned, unsigned)
    setup.o(i._ZN5Setup12viewScreen13Eh) refers to dflt_clz.o(x$fpl$dflt) for __aeabi_i2d
    setup.o(i._ZN5Setup12viewScreen13Eh) refers to dmul.o(x$fpl$dmul) for __aeabi_dmul
    setup.o(i._ZN5Setup12viewScreen13Eh) refers to dfix.o(x$fpl$dfix) for __aeabi_d2iz
    setup.o(i._ZN5Setup12viewScreen13Eh) refers to slider.o(i._ZN6Slider8drawSlimEttfPKctcbPbbjh) for Slider::drawSlim(unsigned short, unsigned short, float, const char*, unsigned short, char, bool, bool*, bool, unsigned, unsigned char)
    setup.o(i._ZN5Setup12viewScreen13Eh) refers to canvas.o(i._ZN6Canvas13writeFillRectEttttj) for Canvas::writeFillRect(unsigned short, unsigned short, unsigned short, unsigned short, unsigned)
    setup.o(i._ZN5Setup12viewScreen13Eh) refers to slider.o(i._ZN6Slider8drawSlimEttfPKcbPbbjh) for Slider::drawSlim(unsigned short, unsigned short, float, const char*, bool, bool*, bool, unsigned, unsigned char)
    setup.o(i._ZN5Setup12viewScreen13Eh) refers to ddiv.o(x$fpl$ddiv) for __aeabi_ddiv
    setup.o(i._ZN5Setup12viewScreen13Eh) refers to daddsub_clz.o(x$fpl$dadd) for __aeabi_dadd
    setup.o(i._ZN5Setup12viewScreen13Eh) refers to dfixu.o(x$fpl$dfixu) for __aeabi_d2uiz
    setup.o(i._ZN5Setup12viewScreen13Eh) refers to font.o(.data) for Font_11x18
    setup.o(i._ZN5Setup12viewScreen13Eh) refers to text.o(.bss) for text
    setup.o(i._ZN5Setup12viewScreen13Eh) refers to hcu.o(.bss) for hcu
    setup.o(i._ZN5Setup12viewScreen13Eh) refers to setup.o(.data) for posDomesticWater
    setup.o(i._ZN5Setup12viewScreen13Eh) refers to slider.o(.bss) for slider
    setup.o(i._ZN5Setup12viewScreen13Eh) refers to canvas.o(.bss) for canvas
    setup.o(i._ZN5Setup12viewScreen14Eh) refers to text.o(i._ZN4Text11writeStringEttPKc7FontDefjj) for Text::writeString(unsigned short, unsigned short, const char*, FontDef, unsigned, unsigned)
    setup.o(i._ZN5Setup12viewScreen14Eh) refers to core.o(i._ZN4Core7getTickEv) for Core::getTick()
    setup.o(i._ZN5Setup12viewScreen14Eh) refers to text.o(i._ZN4Text11decToStringEPci) for Text::decToString(char*, int)
    setup.o(i._ZN5Setup12viewScreen14Eh) refers to text.o(i._ZN4Text12charToStringEPcPKc) for Text::charToString(char*, const char*)
    setup.o(i._ZN5Setup12viewScreen14Eh) refers to system.o(.bss) for air
    setup.o(i._ZN5Setup12viewScreen14Eh) refers to font.o(.data) for Font_11x18
    setup.o(i._ZN5Setup12viewScreen14Eh) refers to text.o(.bss) for text
    setup.o(i._ZN5Setup12viewScreen14Eh) refers to core.o(.bss) for core
    setup.o(i._ZN5Setup12viewScreen14Eh) refers to setup.o(.data) for timer
    setup.o(i._ZN5Setup12viewScreen14Eh) refers to hcu.o(.bss) for hcu
    setup.o(i._ZN5Setup12viewScreen15Eh) refers to text.o(i._ZN4Text11writeStringEttPKc7FontDefjj) for Text::writeString(unsigned short, unsigned short, const char*, FontDef, unsigned, unsigned)
    setup.o(i._ZN5Setup12viewScreen15Eh) refers to checkbox.o(i._ZN8Checkbox4drawEttPKcPc) for Checkbox::draw(unsigned short, unsigned short, const char*, char*)
    setup.o(i._ZN5Setup12viewScreen15Eh) refers to system.o(i._ZN6System11changeScaleEhhhhhhhh) for System::changeScale(unsigned char, unsigned char, unsigned char, unsigned char, unsigned char, unsigned char, unsigned char, unsigned char)
    setup.o(i._ZN5Setup12viewScreen15Eh) refers to core.o(i._ZN4Core8farToCelEf) for Core::farToCel(float)
    setup.o(i._ZN5Setup12viewScreen15Eh) refers to core.o(i._ZN4Core8celToFarEf) for Core::celToFar(float)
    setup.o(i._ZN5Setup12viewScreen15Eh) refers to font.o(.data) for Font_11x18
    setup.o(i._ZN5Setup12viewScreen15Eh) refers to text.o(.bss) for text
    setup.o(i._ZN5Setup12viewScreen15Eh) refers to display.o(.bss) for display
    setup.o(i._ZN5Setup12viewScreen15Eh) refers to system.o(.bss) for air
    setup.o(i._ZN5Setup12viewScreen15Eh) refers to checkbox.o(.data) for checkbox
    setup.o(i._ZN5Setup12viewScreen15Eh) refers to sensor.o(.bss) for sensor
    setup.o(i._ZN5Setup12viewScreen15Eh) refers to hcu.o(.bss) for hcu
    setup.o(i._ZN5Setup12viewScreen15Eh) refers to core.o(.bss) for core
    setup.o(i._ZN5Setup13viewScreen100Eh) refers to core.o(i._ZN4Core7getTickEv) for Core::getTick()
    setup.o(i._ZN5Setup13viewScreen100Eh) refers to text.o(i._ZN4Text11writeStringEttPKc7FontDefjj) for Text::writeString(unsigned short, unsigned short, const char*, FontDef, unsigned, unsigned)
    setup.o(i._ZN5Setup13viewScreen100Eh) refers to text.o(i._ZN4Text12charToStringEPcPKc) for Text::charToString(char*, const char*)
    setup.o(i._ZN5Setup13viewScreen100Eh) refers to text.o(i._ZN4Text13floatToStringEPcfh) for Text::floatToString(char*, float, unsigned char)
    setup.o(i._ZN5Setup13viewScreen100Eh) refers to text.o(i._ZN4Text11decToStringEPci) for Text::decToString(char*, int)
    setup.o(i._ZN5Setup13viewScreen100Eh) refers to core.o(.bss) for core
    setup.o(i._ZN5Setup13viewScreen100Eh) refers to setup.o(.data) for timer
    setup.o(i._ZN5Setup13viewScreen100Eh) refers to font.o(.data) for Font_11x18
    setup.o(i._ZN5Setup13viewScreen100Eh) refers to text.o(.bss) for text
    setup.o(i._ZN5Setup13viewScreen100Eh) refers to hcu.o(.bss) for hcu
    setup.o(i._ZN5Setup16viewScreenChangeEv) refers to canvas.o(i._ZN6Canvas13writeFillRectEttttj) for Canvas::writeFillRect(unsigned short, unsigned short, unsigned short, unsigned short, unsigned)
    setup.o(i._ZN5Setup16viewScreenChangeEv) refers to canvas.o(.bss) for canvas
    setup.o(i._ZN5Setup7handlerEv) refers to setup.o(i._ZN5Setup16viewScreenChangeEv) for Setup::viewScreenChange()
    setup.o(i._ZN5Setup7handlerEv) refers to setup.o(i._ZN5Setup8viewPageEhh) for Setup::viewPage(unsigned char, unsigned char)
    setup.o(i._ZN5Setup7handlerEv) refers to core.o(i._ZN4Core7getTickEv) for Core::getTick()
    setup.o(i._ZN5Setup7handlerEv) refers to sensor.o(.bss) for sensor
    setup.o(i._ZN5Setup7handlerEv) refers to slider.o(.bss) for slider
    setup.o(i._ZN5Setup7handlerEv) refers to core.o(.bss) for core
    setup.o(i._ZN5Setup7handlerEv) refers to hcu.o(.bss) for hcu
    setup.o(i._ZN5Setup8viewPageEhh) refers to setup.o(i._ZN5Setup13viewScreen100Eh) for Setup::viewScreen100(unsigned char)
    setup.o(i._ZN5Setup8viewPageEhh) refers to setup.o(i._ZN5Setup11viewScreen1Eh) for Setup::viewScreen1(unsigned char)
    setup.o(i._ZN5Setup8viewPageEhh) refers to setup.o(i._ZN5Setup12viewScreen10Eh) for Setup::viewScreen10(unsigned char)
    setup.o(i._ZN5Setup8viewPageEhh) refers to setup.o(i._ZN5Setup12viewScreen11Eh) for Setup::viewScreen11(unsigned char)
    setup.o(i._ZN5Setup8viewPageEhh) refers to setup.o(i._ZN5Setup12viewScreen12Eh) for Setup::viewScreen12(unsigned char)
    setup.o(i._ZN5Setup8viewPageEhh) refers to setup.o(i._ZN5Setup12viewScreen13Eh) for Setup::viewScreen13(unsigned char)
    setup.o(i._ZN5Setup8viewPageEhh) refers to setup.o(i._ZN5Setup12viewScreen14Eh) for Setup::viewScreen14(unsigned char)
    setup.o(i._ZN5Setup8viewPageEhh) refers to setup.o(i._ZN5Setup12viewScreen15Eh) for Setup::viewScreen15(unsigned char)
    setup.o(i.__sti___9_setup_cpp_setup) refers to setup.o(i._ZN5SetupC1Ev) for Setup::Setup()
    setup.o(i.__sti___9_setup_cpp_setup) refers to setup.o(.data) for setup
    setup.o(.ARM.exidx) refers to setup.o(i._ZN5SetupC1Ev) for i._ZN5SetupC1Ev
    setup.o(.ARM.exidx) refers to setup.o(i._ZN5Setup16viewScreenChangeEv) for i._ZN5Setup16viewScreenChangeEv
    setup.o(.ARM.exidx) refers to setup.o(i._ZN5Setup12viewScreen15Eh) for i._ZN5Setup12viewScreen15Eh
    setup.o(.ARM.exidx) refers to setup.o(i._ZN5Setup12viewScreen14Eh) for i._ZN5Setup12viewScreen14Eh
    setup.o(.ARM.exidx) refers to setup.o(i._ZN5Setup12viewScreen13Eh) for i._ZN5Setup12viewScreen13Eh
    setup.o(.ARM.exidx) refers to setup.o(i._ZN5Setup12viewScreen12Eh) for i._ZN5Setup12viewScreen12Eh
    setup.o(.ARM.exidx) refers to setup.o(i._ZN5Setup12viewScreen11Eh) for i._ZN5Setup12viewScreen11Eh
    setup.o(.ARM.exidx) refers to setup.o(i._ZN5Setup12viewScreen10Eh) for i._ZN5Setup12viewScreen10Eh
    setup.o(.ARM.exidx) refers to setup.o(i._ZN5Setup11viewScreen1Eh) for i._ZN5Setup11viewScreen1Eh
    setup.o(.ARM.exidx) refers to setup.o(i._ZN5Setup13viewScreen100Eh) for i._ZN5Setup13viewScreen100Eh
    setup.o(.ARM.exidx) refers to setup.o(i._ZN5Setup8viewPageEhh) for i._ZN5Setup8viewPageEhh
    setup.o(.ARM.exidx) refers to setup.o(i._ZN5Setup10viewScreenEv) for i._ZN5Setup10viewScreenEv
    setup.o(.ARM.exidx) refers to setup.o(i._ZN5Setup7handlerEv) for i._ZN5Setup7handlerEv
    setup.o(.ARM.exidx) refers to setup.o(i.__sti___9_setup_cpp_setup) for i.__sti___9_setup_cpp_setup
    setup.o(.init_array) refers to setup.o(i.__sti___9_setup_cpp_setup) for __sti___9_setup_cpp_setup
    setup.o(.init_array) refers to init_aeabi.o(.text) for __cpp_initialize__aeabi_
    setup_clock.o(i._ZN10SetupClock10viewMinuteEb) refers to canvas.o(i._ZN6Canvas13drawRoundRectEttttjjj) for Canvas::drawRoundRect(unsigned short, unsigned short, unsigned short, unsigned short, unsigned, unsigned, unsigned)
    setup_clock.o(i._ZN10SetupClock10viewMinuteEb) refers to text.o(i._ZN4Text11writeStringEttPKc7FontDefjj) for Text::writeString(unsigned short, unsigned short, const char*, FontDef, unsigned, unsigned)
    setup_clock.o(i._ZN10SetupClock10viewMinuteEb) refers to text.o(i._ZN4Text11decToStringEPci) for Text::decToString(char*, int)
    setup_clock.o(i._ZN10SetupClock10viewMinuteEb) refers to canvas.o(.bss) for canvas
    setup_clock.o(i._ZN10SetupClock10viewMinuteEb) refers to font.o(.data) for Font_11x18
    setup_clock.o(i._ZN10SetupClock10viewMinuteEb) refers to text.o(.bss) for text
    setup_clock.o(i._ZN10SetupClock10viewMinuteEb) refers to clock.o(.bss) for clock
    setup_clock.o(i._ZN10SetupClock10viewScreenEv) refers to setup_clock.o(i._ZN10SetupClock11setPositionEb) for SetupClock::setPosition(bool)
    setup_clock.o(i._ZN10SetupClock10viewScreenEv) refers to canvas.o(i._ZN6Canvas13writeFillRectEttttj) for Canvas::writeFillRect(unsigned short, unsigned short, unsigned short, unsigned short, unsigned)
    setup_clock.o(i._ZN10SetupClock10viewScreenEv) refers to canvas.o(i._ZN6Canvas15loadImageEffectEttjjh) for Canvas::loadImageEffect(unsigned short, unsigned short, unsigned, unsigned, unsigned char)
    setup_clock.o(i._ZN10SetupClock10viewScreenEv) refers to text.o(i._ZN4Text17writeStringCenterEttPKc7FontDefjj) for Text::writeStringCenter(unsigned short, unsigned short, const char*, FontDef, unsigned, unsigned)
    setup_clock.o(i._ZN10SetupClock10viewScreenEv) refers to setup_clock.o(i._ZN10SetupClock8viewWeekEb) for SetupClock::viewWeek(bool)
    setup_clock.o(i._ZN10SetupClock10viewScreenEv) refers to setup_clock.o(i._ZN10SetupClock8viewHourEb) for SetupClock::viewHour(bool)
    setup_clock.o(i._ZN10SetupClock10viewScreenEv) refers to setup_clock.o(i._ZN10SetupClock10viewMinuteEb) for SetupClock::viewMinute(bool)
    setup_clock.o(i._ZN10SetupClock10viewScreenEv) refers to setup_clock.o(i._ZN10SetupClock14viewCorrectionEb) for SetupClock::viewCorrection(bool)
    setup_clock.o(i._ZN10SetupClock10viewScreenEv) refers to display.o(.bss) for display
    setup_clock.o(i._ZN10SetupClock10viewScreenEv) refers to canvas.o(.bss) for canvas
    setup_clock.o(i._ZN10SetupClock10viewScreenEv) refers to font.o(.data) for Font_11x18
    setup_clock.o(i._ZN10SetupClock10viewScreenEv) refers to text.o(.bss) for text
    setup_clock.o(i._ZN10SetupClock14viewCorrectionEb) refers to canvas.o(i._ZN6Canvas13drawRoundRectEttttjjj) for Canvas::drawRoundRect(unsigned short, unsigned short, unsigned short, unsigned short, unsigned, unsigned, unsigned)
    setup_clock.o(i._ZN10SetupClock14viewCorrectionEb) refers to text.o(i._ZN4Text11writeStringEttPKc7FontDefjj) for Text::writeString(unsigned short, unsigned short, const char*, FontDef, unsigned, unsigned)
    setup_clock.o(i._ZN10SetupClock14viewCorrectionEb) refers to text.o(i._ZN4Text11decToStringEPci) for Text::decToString(char*, int)
    setup_clock.o(i._ZN10SetupClock14viewCorrectionEb) refers to text.o(i._ZN4Text17writeStringCenterEttPKc7FontDefjj) for Text::writeStringCenter(unsigned short, unsigned short, const char*, FontDef, unsigned, unsigned)
    setup_clock.o(i._ZN10SetupClock14viewCorrectionEb) refers to canvas.o(.bss) for canvas
    setup_clock.o(i._ZN10SetupClock14viewCorrectionEb) refers to font.o(.data) for Font_11x18
    setup_clock.o(i._ZN10SetupClock14viewCorrectionEb) refers to text.o(.bss) for text
    setup_clock.o(i._ZN10SetupClock14viewCorrectionEb) refers to core.o(.bss) for core
    setup_clock.o(i._ZN10SetupClock7handlerEv) refers to setup_clock.o(i._ZN10SetupClock8viewWeekEb) for SetupClock::viewWeek(bool)
    setup_clock.o(i._ZN10SetupClock7handlerEv) refers to setup_clock.o(i._ZN10SetupClock8viewHourEb) for SetupClock::viewHour(bool)
    setup_clock.o(i._ZN10SetupClock7handlerEv) refers to setup_clock.o(i._ZN10SetupClock10viewMinuteEb) for SetupClock::viewMinute(bool)
    setup_clock.o(i._ZN10SetupClock7handlerEv) refers to setup_clock.o(i._ZN10SetupClock14viewCorrectionEb) for SetupClock::viewCorrection(bool)
    setup_clock.o(i._ZN10SetupClock7handlerEv) refers to main.o(i._Z10writeSetupv) for writeSetup()
    setup_clock.o(i._ZN10SetupClock7handlerEv) refers to core.o(i._ZN4Core8getTimerEv) for Core::getTimer()
    setup_clock.o(i._ZN10SetupClock7handlerEv) refers to core.o(i._ZN4Core8setTimerEj) for Core::setTimer(unsigned)
    setup_clock.o(i._ZN10SetupClock7handlerEv) refers to clock.o(.bss) for clock
    setup_clock.o(i._ZN10SetupClock7handlerEv) refers to core.o(.bss) for core
    setup_clock.o(i._ZN10SetupClock7handlerEv) refers to sensor.o(.bss) for sensor
    setup_clock.o(i._ZN10SetupClock7handlerEv) refers to slider.o(.bss) for slider
    setup_clock.o(i._ZN10SetupClock7handlerEv) refers to setup_clock.o(.data) for isFast
    setup_clock.o(i._ZN10SetupClock7handlerEv) refers to display.o(.bss) for display
    setup_clock.o(i._ZN10SetupClock8viewHourEb) refers to canvas.o(i._ZN6Canvas13drawRoundRectEttttjjj) for Canvas::drawRoundRect(unsigned short, unsigned short, unsigned short, unsigned short, unsigned, unsigned, unsigned)
    setup_clock.o(i._ZN10SetupClock8viewHourEb) refers to text.o(i._ZN4Text11writeStringEttPKc7FontDefjj) for Text::writeString(unsigned short, unsigned short, const char*, FontDef, unsigned, unsigned)
    setup_clock.o(i._ZN10SetupClock8viewHourEb) refers to text.o(i._ZN4Text11decToStringEPci) for Text::decToString(char*, int)
    setup_clock.o(i._ZN10SetupClock8viewHourEb) refers to canvas.o(.bss) for canvas
    setup_clock.o(i._ZN10SetupClock8viewHourEb) refers to font.o(.data) for Font_11x18
    setup_clock.o(i._ZN10SetupClock8viewHourEb) refers to text.o(.bss) for text
    setup_clock.o(i._ZN10SetupClock8viewHourEb) refers to display.o(.bss) for display
    setup_clock.o(i._ZN10SetupClock8viewHourEb) refers to clock.o(.bss) for clock
    setup_clock.o(i._ZN10SetupClock8viewWeekEb) refers to rt_memcpy_w.o(.text) for __aeabi_memcpy4
    setup_clock.o(i._ZN10SetupClock8viewWeekEb) refers to canvas.o(i._ZN6Canvas13drawRoundRectEttttjjj) for Canvas::drawRoundRect(unsigned short, unsigned short, unsigned short, unsigned short, unsigned, unsigned, unsigned)
    setup_clock.o(i._ZN10SetupClock8viewWeekEb) refers to text.o(i._ZN4Text11writeStringEttPKc7FontDefjj) for Text::writeString(unsigned short, unsigned short, const char*, FontDef, unsigned, unsigned)
    setup_clock.o(i._ZN10SetupClock8viewWeekEb) refers to setup_clock.o(.constdata) for .constdata
    setup_clock.o(i._ZN10SetupClock8viewWeekEb) refers to canvas.o(.bss) for canvas
    setup_clock.o(i._ZN10SetupClock8viewWeekEb) refers to clock.o(.bss) for clock
    setup_clock.o(i._ZN10SetupClock8viewWeekEb) refers to font.o(.data) for Font_11x18
    setup_clock.o(i._ZN10SetupClock8viewWeekEb) refers to text.o(.bss) for text
    setup_clock.o(i.__sti___15_setup_clock_cpp_ccf099aa) refers to setup_clock.o(i._ZN10SetupClockC1Ev) for SetupClock::SetupClock()
    setup_clock.o(i.__sti___15_setup_clock_cpp_ccf099aa) refers to setup_clock.o(.bss) for setupClock
    setup_clock.o(.ARM.exidx) refers to setup_clock.o(i._ZN10SetupClockC1Ev) for i._ZN10SetupClockC1Ev
    setup_clock.o(.ARM.exidx) refers to setup_clock.o(i._ZN10SetupClock14viewCorrectionEb) for i._ZN10SetupClock14viewCorrectionEb
    setup_clock.o(.ARM.exidx) refers to setup_clock.o(i._ZN10SetupClock10viewMinuteEb) for i._ZN10SetupClock10viewMinuteEb
    setup_clock.o(.ARM.exidx) refers to setup_clock.o(i._ZN10SetupClock8viewHourEb) for i._ZN10SetupClock8viewHourEb
    setup_clock.o(.ARM.exidx) refers to setup_clock.o(i._ZN10SetupClock8viewWeekEb) for i._ZN10SetupClock8viewWeekEb
    setup_clock.o(.ARM.exidx) refers to setup_clock.o(i._ZN10SetupClock11setPositionEb) for i._ZN10SetupClock11setPositionEb
    setup_clock.o(.ARM.exidx) refers to setup_clock.o(i._ZN10SetupClock10viewScreenEv) for i._ZN10SetupClock10viewScreenEv
    setup_clock.o(.ARM.exidx) refers to setup_clock.o(i._ZN10SetupClock7handlerEv) for i._ZN10SetupClock7handlerEv
    setup_clock.o(.ARM.exidx) refers to setup_clock.o(i.__sti___15_setup_clock_cpp_ccf099aa) for i.__sti___15_setup_clock_cpp_ccf099aa
    setup_clock.o(.init_array) refers to setup_clock.o(i.__sti___15_setup_clock_cpp_ccf099aa) for __sti___15_setup_clock_cpp_ccf099aa
    setup_clock.o(.init_array) refers to init_aeabi.o(.text) for __cpp_initialize__aeabi_
    about.o(i._ZN5About10viewScreenEv) refers to display.o(i._ZN7Display7turnOffEv) for Display::turnOff()
    about.o(i._ZN5About10viewScreenEv) refers to canvas.o(i._ZN6Canvas9loadImageEttj) for Canvas::loadImage(unsigned short, unsigned short, unsigned)
    about.o(i._ZN5About10viewScreenEv) refers to display.o(i._ZN7Display8switchOnEv) for Display::switchOn()
    about.o(i._ZN5About10viewScreenEv) refers to display.o(.bss) for display
    about.o(i._ZN5About10viewScreenEv) refers to canvas.o(.bss) for canvas
    about.o(i._ZN5About11sensorCheckEv) refers to core.o(i._ZN4Core8setTimerEj) for Core::setTimer(unsigned)
    about.o(i._ZN5About11sensorCheckEv) refers to sensor.o(.bss) for sensor
    about.o(i._ZN5About11sensorCheckEv) refers to slider.o(.bss) for slider
    about.o(i._ZN5About11sensorCheckEv) refers to core.o(.bss) for core
    about.o(i._ZN5About11viewHandlerEv) refers to about.o(i._ZN5About11sensorCheckEv) for About::sensorCheck()
    about.o(i.__sti___9_about_cpp_about) refers to about.o(i._ZN5AboutC1Ev) for About::About()
    about.o(i.__sti___9_about_cpp_about) refers to about.o(.data) for about
    about.o(.ARM.exidx) refers to about.o(i._ZN5AboutC1Ev) for i._ZN5AboutC1Ev
    about.o(.ARM.exidx) refers to about.o(i._ZN5About10viewScreenEv) for i._ZN5About10viewScreenEv
    about.o(.ARM.exidx) refers to about.o(i._ZN5About11sensorCheckEv) for i._ZN5About11sensorCheckEv
    about.o(.ARM.exidx) refers to about.o(i._ZN5About11viewHandlerEv) for i._ZN5About11viewHandlerEv
    about.o(.ARM.exidx) refers to about.o(i.__sti___9_about_cpp_about) for i.__sti___9_about_cpp_about
    about.o(.init_array) refers to about.o(i.__sti___9_about_cpp_about) for __sti___9_about_cpp_about
    about.o(.init_array) refers to init_aeabi.o(.text) for __cpp_initialize__aeabi_
    text.o(i._ZN4Text10writeDigitEttPKcjh) refers to text.o(i._ZN4Text13writeOneDigitEttcjh) for Text::writeOneDigit(unsigned short, unsigned short, char, unsigned, unsigned char)
    text.o(i._ZN4Text11writeStringEttPKc7FontDefjj) refers to text.o(i._ZN4Text9writeCharEttc7FontDefjj) for Text::writeChar(unsigned short, unsigned short, char, FontDef, unsigned, unsigned)
    text.o(i._ZN4Text13floatToStringEPcfh) refers to text.o(i._ZN4Text11decToStringEPci) for Text::decToString(char*, int)
    text.o(i._ZN4Text13writeCharOverEttc7FontDefjjh) refers to display.o(i._ZN7Display13setAddrWindowEtttt) for Display::setAddrWindow(unsigned short, unsigned short, unsigned short, unsigned short)
    text.o(i._ZN4Text13writeCharOverEttc7FontDefjjh) refers to display.o(i._ZN7Display10writeColorEj) for Display::writeColor(unsigned)
    text.o(i._ZN4Text13writeCharOverEttc7FontDefjjh) refers to display.o(.bss) for display
    text.o(i._ZN4Text13writeOneDigitEttcjh) refers to canvas.o(i._ZN6Canvas13writeFillRectEttttj) for Canvas::writeFillRect(unsigned short, unsigned short, unsigned short, unsigned short, unsigned)
    text.o(i._ZN4Text13writeOneDigitEttcjh) refers to canvas.o(i._ZN6Canvas14loadImageColorEttjj) for Canvas::loadImageColor(unsigned short, unsigned short, unsigned, unsigned)
    text.o(i._ZN4Text13writeOneDigitEttcjh) refers to canvas.o(i._ZN6Canvas18loadImageOverColorEttjjhj) for Canvas::loadImageOverColor(unsigned short, unsigned short, unsigned, unsigned, unsigned char, unsigned)
    text.o(i._ZN4Text13writeOneDigitEttcjh) refers to canvas.o(.bss) for canvas
    text.o(i._ZN4Text13writeOneDigitEttcjh) refers to text.o(i._ZN4Text11writeStringEttPKc7FontDefjj) for Text::writeString(unsigned short, unsigned short, const char*, FontDef, unsigned, unsigned)
    text.o(i._ZN4Text13writeOneDigitEttcjh) refers to font.o(.data) for Font_11x18
    text.o(i._ZN4Text13writeOneDigitEttcjh) refers to text.o(.bss) for text
    text.o(i._ZN4Text14writeStringEndEttPc7FontDefjj) refers to text.o(i._ZN4Text11writeStringEttPKc7FontDefjj) for Text::writeString(unsigned short, unsigned short, const char*, FontDef, unsigned, unsigned)
    text.o(i._ZN4Text15writeStringOverEssPc7FontDefjjh) refers to text.o(i._ZN4Text13writeCharOverEttc7FontDefjjh) for Text::writeCharOver(unsigned short, unsigned short, char, FontDef, unsigned, unsigned, unsigned char)
    text.o(i._ZN4Text17writeStringCenterEttPKc7FontDefjj) refers to text.o(i._ZN4Text12getLenStringEPKc) for Text::getLenString(const char*)
    text.o(i._ZN4Text17writeStringCenterEttPKc7FontDefjj) refers to text.o(i._ZN4Text9writeCharEttc7FontDefjj) for Text::writeChar(unsigned short, unsigned short, char, FontDef, unsigned, unsigned)
    text.o(i._ZN4Text9writeCharEttc7FontDefjj) refers to display.o(i._ZN7Display13setAddrWindowEtttt) for Display::setAddrWindow(unsigned short, unsigned short, unsigned short, unsigned short)
    text.o(i._ZN4Text9writeCharEttc7FontDefjj) refers to gd32f30x_gpio.o(i._Z14gpio_bit_resetjj) for gpio_bit_reset(unsigned, unsigned)
    text.o(i._ZN4Text9writeCharEttc7FontDefjj) refers to display.o(i._ZN7Display14writeColorFastEj) for Display::writeColorFast(unsigned)
    text.o(i._ZN4Text9writeCharEttc7FontDefjj) refers to gd32f30x_spi.o(i._Z16spi_i2s_flag_getjj) for spi_i2s_flag_get(unsigned, unsigned)
    text.o(i._ZN4Text9writeCharEttc7FontDefjj) refers to gd32f30x_gpio.o(i._Z12gpio_bit_setjj) for gpio_bit_set(unsigned, unsigned)
    text.o(i._ZN4Text9writeCharEttc7FontDefjj) refers to display.o(.bss) for display
    text.o(i.__sti___8_text_cpp_text) refers to text.o(i._ZN4TextC1Ev) for Text::Text()
    text.o(i.__sti___8_text_cpp_text) refers to text.o(.bss) for text
    text.o(.ARM.exidx) refers to text.o(i._ZN4TextC1Ev) for i._ZN4TextC1Ev
    text.o(.ARM.exidx) refers to text.o(i._ZN4Text9writeCharEttc7FontDefjj) for i._ZN4Text9writeCharEttc7FontDefjj
    text.o(.ARM.exidx) refers to text.o(i._ZN4Text13writeCharOverEttc7FontDefjjh) for i._ZN4Text13writeCharOverEttc7FontDefjjh
    text.o(.ARM.exidx) refers to text.o(i._ZN4Text11writeStringEttPKc7FontDefjj) for i._ZN4Text11writeStringEttPKc7FontDefjj
    text.o(.ARM.exidx) refers to text.o(i._ZN4Text12getLenStringEPKc) for i._ZN4Text12getLenStringEPKc
    text.o(.ARM.exidx) refers to text.o(i._ZN4Text17writeStringCenterEttPKc7FontDefjj) for i._ZN4Text17writeStringCenterEttPKc7FontDefjj
    text.o(.ARM.exidx) refers to text.o(i._ZN4Text13writeOneDigitEttcjh) for i._ZN4Text13writeOneDigitEttcjh
    text.o(.ARM.exidx) refers to text.o(i._ZN4Text10writeDigitEttPKcjh) for i._ZN4Text10writeDigitEttPKcjh
    text.o(.ARM.exidx) refers to text.o(i._ZN4Text15writeStringOverEssPc7FontDefjjh) for i._ZN4Text15writeStringOverEssPc7FontDefjjh
    text.o(.ARM.exidx) refers to text.o(i._ZN4Text14writeStringEndEttPc7FontDefjj) for i._ZN4Text14writeStringEndEttPc7FontDefjj
    text.o(.ARM.exidx) refers to text.o(i._ZN4Text11decToStringEPci) for i._ZN4Text11decToStringEPci
    text.o(.ARM.exidx) refers to text.o(i._ZN4Text14decToStringFixEPcih) for i._ZN4Text14decToStringFixEPcih
    text.o(.ARM.exidx) refers to text.o(i._ZN4Text13floatToStringEPcfh) for i._ZN4Text13floatToStringEPcfh
    text.o(.ARM.exidx) refers to text.o(i._ZN4Text12charToStringEPcPKc) for i._ZN4Text12charToStringEPcPKc
    text.o(.ARM.exidx) refers to text.o(i.__sti___8_text_cpp_text) for i.__sti___8_text_cpp_text
    text.o(.init_array) refers to text.o(i.__sti___8_text_cpp_text) for __sti___8_text_cpp_text
    text.o(.init_array) refers to init_aeabi.o(.text) for __cpp_initialize__aeabi_
    start_timer.o(i._ZN10StartTimer10resetTimerEv) refers to core.o(i._ZN4Core7getTickEv) for Core::getTick()
    start_timer.o(i._ZN10StartTimer10resetTimerEv) refers to core.o(.bss) for core
    start_timer.o(i._ZN10StartTimer10viewButtonEv) refers to canvas.o(i._ZN6Canvas15loadImageEffectEttjjh) for Canvas::loadImageEffect(unsigned short, unsigned short, unsigned, unsigned, unsigned char)
    start_timer.o(i._ZN10StartTimer10viewButtonEv) refers to canvas.o(.bss) for canvas
    start_timer.o(i._ZN10StartTimer10viewScreenEh) refers to rt_memcpy_w.o(.text) for __aeabi_memcpy4
    start_timer.o(i._ZN10StartTimer10viewScreenEh) refers to start_timer.o(i._ZN10StartTimer16viewScreenChangeEv) for StartTimer::viewScreenChange()
    start_timer.o(i._ZN10StartTimer10viewScreenEh) refers to core.o(i._ZN4Core8setTimerEj) for Core::setTimer(unsigned)
    start_timer.o(i._ZN10StartTimer10viewScreenEh) refers to display.o(i._ZN7Display7turnOffEv) for Display::turnOff()
    start_timer.o(i._ZN10StartTimer10viewScreenEh) refers to canvas.o(i._ZN6Canvas13writeFillRectEttttj) for Canvas::writeFillRect(unsigned short, unsigned short, unsigned short, unsigned short, unsigned)
    start_timer.o(i._ZN10StartTimer10viewScreenEh) refers to canvas.o(i._ZN6Canvas15loadImageEffectEttjjh) for Canvas::loadImageEffect(unsigned short, unsigned short, unsigned, unsigned, unsigned char)
    start_timer.o(i._ZN10StartTimer10viewScreenEh) refers to display.o(i._ZN7Display8switchOnEv) for Display::switchOn()
    start_timer.o(i._ZN10StartTimer10viewScreenEh) refers to text.o(i._ZN4Text11decToStringEPci) for Text::decToString(char*, int)
    start_timer.o(i._ZN10StartTimer10viewScreenEh) refers to text.o(i._ZN4Text11writeStringEttPKc7FontDefjj) for Text::writeString(unsigned short, unsigned short, const char*, FontDef, unsigned, unsigned)
    start_timer.o(i._ZN10StartTimer10viewScreenEh) refers to dflt_clz.o(x$fpl$dflt) for __aeabi_i2d
    start_timer.o(i._ZN10StartTimer10viewScreenEh) refers to dmul.o(x$fpl$dmul) for __aeabi_dmul
    start_timer.o(i._ZN10StartTimer10viewScreenEh) refers to dfixu.o(x$fpl$dfixu) for __aeabi_d2uiz
    start_timer.o(i._ZN10StartTimer10viewScreenEh) refers to canvas.o(i._ZN6Canvas10drawSliderEsshc) for Canvas::drawSlider(short, short, unsigned char, char)
    start_timer.o(i._ZN10StartTimer10viewScreenEh) refers to start_timer.o(.constdata) for .constdata
    start_timer.o(i._ZN10StartTimer10viewScreenEh) refers to sensor.o(.bss) for sensor
    start_timer.o(i._ZN10StartTimer10viewScreenEh) refers to core.o(.bss) for core
    start_timer.o(i._ZN10StartTimer10viewScreenEh) refers to display.o(.bss) for display
    start_timer.o(i._ZN10StartTimer10viewScreenEh) refers to canvas.o(.bss) for canvas
    start_timer.o(i._ZN10StartTimer10viewScreenEh) refers to text.o(.bss) for text
    start_timer.o(i._ZN10StartTimer10viewScreenEh) refers to font.o(.data) for Font_11x18
    start_timer.o(i._ZN10StartTimer10viewScreenEh) refers to start_timer.o(.data) for h
    start_timer.o(i._ZN10StartTimer10viewScreenEh) refers to core.o(i._ZN4Core8getTimerEv) for Core::getTimer()
    start_timer.o(i._ZN10StartTimer16viewScreenChangeEv) refers to canvas.o(i._ZN6Canvas13writeFillRectEttttj) for Canvas::writeFillRect(unsigned short, unsigned short, unsigned short, unsigned short, unsigned)
    start_timer.o(i._ZN10StartTimer16viewScreenChangeEv) refers to canvas.o(.bss) for canvas
    start_timer.o(i._ZN10StartTimer5checkEv) refers to start_timer.o(i._ZN10StartTimer8getTimerEv) for StartTimer::getTimer()
    start_timer.o(i._ZN10StartTimer5checkEv) refers to clock.o(.bss) for clock
    start_timer.o(i._ZN10StartTimer8getTimerEv) refers to core.o(i._ZN4Core7getTickEv) for Core::getTick()
    start_timer.o(i._ZN10StartTimer8getTimerEv) refers to core.o(.bss) for core
    start_timer.o(i._ZN10StartTimer8setTimerEj) refers to core.o(i._ZN4Core7getTickEv) for Core::getTick()
    start_timer.o(i._ZN10StartTimer8setTimerEj) refers to core.o(.bss) for core
    start_timer.o(i.__sti___15_start_timer_cpp_c98decc7) refers to start_timer.o(i._ZN10StartTimerC1Ev) for StartTimer::StartTimer()
    start_timer.o(i.__sti___15_start_timer_cpp_c98decc7) refers to start_timer.o(.bss) for startTimer
    start_timer.o(.ARM.exidx) refers to start_timer.o(i._ZN10StartTimerC1Ev) for i._ZN10StartTimerC1Ev
    start_timer.o(.ARM.exidx) refers to start_timer.o(i._ZN10StartTimer10viewButtonEv) for i._ZN10StartTimer10viewButtonEv
    start_timer.o(.ARM.exidx) refers to start_timer.o(i._ZN10StartTimer8getTimerEv) for i._ZN10StartTimer8getTimerEv
    start_timer.o(.ARM.exidx) refers to start_timer.o(i._ZN10StartTimer5checkEv) for i._ZN10StartTimer5checkEv
    start_timer.o(.ARM.exidx) refers to start_timer.o(i._ZN10StartTimer16viewScreenChangeEv) for i._ZN10StartTimer16viewScreenChangeEv
    start_timer.o(.ARM.exidx) refers to start_timer.o(i._ZN10StartTimer10viewScreenEh) for i._ZN10StartTimer10viewScreenEh
    start_timer.o(.ARM.exidx) refers to start_timer.o(i._ZN10StartTimer8setTimerEj) for i._ZN10StartTimer8setTimerEj
    start_timer.o(.ARM.exidx) refers to start_timer.o(i._ZN10StartTimer10resetTimerEv) for i._ZN10StartTimer10resetTimerEv
    start_timer.o(.ARM.exidx) refers to start_timer.o(i.__sti___15_start_timer_cpp_c98decc7) for i.__sti___15_start_timer_cpp_c98decc7
    start_timer.o(.init_array) refers to start_timer.o(i.__sti___15_start_timer_cpp_c98decc7) for __sti___15_start_timer_cpp_c98decc7
    start_timer.o(.init_array) refers to init_aeabi.o(.text) for __cpp_initialize__aeabi_
    slider.o(i._ZN6Slider10drawDoubleEtthhPKcbPbh) refers to text.o(i._ZN4Text11writeStringEttPKc7FontDefjj) for Text::writeString(unsigned short, unsigned short, const char*, FontDef, unsigned, unsigned)
    slider.o(i._ZN6Slider10drawDoubleEtthhPKcbPbh) refers to canvas.o(i._ZN6Canvas20drawSliderSlimDoubleEsshhh) for Canvas::drawSliderSlimDouble(short, short, unsigned char, unsigned char, unsigned char)
    slider.o(i._ZN6Slider10drawDoubleEtthhPKcbPbh) refers to font.o(.data) for Font_11x18
    slider.o(i._ZN6Slider10drawDoubleEtthhPKcbPbh) refers to text.o(.bss) for text
    slider.o(i._ZN6Slider10drawDoubleEtthhPKcbPbh) refers to canvas.o(.bss) for canvas
    slider.o(i._ZN6Slider10initializeEv) refers to slider.o(i._ZSt3sinf) for std::sin(float)
    slider.o(i._ZN6Slider10initializeEv) refers to slider.o(i._ZSt3cosf) for std::cos(float)
    slider.o(i._ZN6Slider10viewScreenEv) refers to display.o(i._ZN7Display7turnOffEv) for Display::turnOff()
    slider.o(i._ZN6Slider10viewScreenEv) refers to canvas.o(i._ZN6Canvas9loadImageEttj) for Canvas::loadImage(unsigned short, unsigned short, unsigned)
    slider.o(i._ZN6Slider10viewScreenEv) refers to display.o(i._ZN7Display8switchOnEv) for Display::switchOn()
    slider.o(i._ZN6Slider10viewScreenEv) refers to slider.o(i._ZN6Slider6setValEt) for Slider::setVal(unsigned short)
    slider.o(i._ZN6Slider10viewScreenEv) refers to text.o(i._ZN4Text15writeStringOverEssPc7FontDefjjh) for Text::writeStringOver(short, short, char*, FontDef, unsigned, unsigned, unsigned char)
    slider.o(i._ZN6Slider10viewScreenEv) refers to display.o(.bss) for display
    slider.o(i._ZN6Slider10viewScreenEv) refers to canvas.o(.bss) for canvas
    slider.o(i._ZN6Slider10viewScreenEv) refers to slider.o(.bss) for slider
    slider.o(i._ZN6Slider10viewScreenEv) refers to font.o(.data) for Font_11x18
    slider.o(i._ZN6Slider10viewScreenEv) refers to text.o(.bss) for text
    slider.o(i._ZN6Slider10viewStringEv) refers to text.o(i._ZN4Text11decToStringEPci) for Text::decToString(char*, int)
    slider.o(i._ZN6Slider10viewStringEv) refers to text.o(i._ZN4Text15writeStringOverEssPc7FontDefjjh) for Text::writeStringOver(short, short, char*, FontDef, unsigned, unsigned, unsigned char)
    slider.o(i._ZN6Slider10viewStringEv) refers to text.o(.bss) for text
    slider.o(i._ZN6Slider10viewStringEv) refers to font.o(.data) for Font_16x26
    slider.o(i._ZN6Slider11drawDigGridEv) refers to slider.o(i._ZN6Slider11getPositionEPtS0_t) for Slider::getPosition(unsigned short*, unsigned short*, unsigned short)
    slider.o(i._ZN6Slider11drawDigGridEv) refers to slider.o(i._ZN6Slider18getCorrectXDigGridEt7FontDefh) for Slider::getCorrectXDigGrid(unsigned short, FontDef, unsigned char)
    slider.o(i._ZN6Slider11drawDigGridEv) refers to text.o(i._ZN4Text15writeStringOverEssPc7FontDefjjh) for Text::writeStringOver(short, short, char*, FontDef, unsigned, unsigned, unsigned char)
    slider.o(i._ZN6Slider11drawDigGridEv) refers to text.o(i._ZN4Text11decToStringEPci) for Text::decToString(char*, int)
    slider.o(i._ZN6Slider11drawDigGridEv) refers to font.o(.data) for Font_11x18
    slider.o(i._ZN6Slider11drawDigGridEv) refers to text.o(.bss) for text
    slider.o(i._ZN6Slider11textDigGridEtj) refers to slider.o(i._ZN6Slider11getPositionEPtS0_t) for Slider::getPosition(unsigned short*, unsigned short*, unsigned short)
    slider.o(i._ZN6Slider11textDigGridEtj) refers to slider.o(i._ZN6Slider18getCorrectXDigGridEt7FontDefh) for Slider::getCorrectXDigGrid(unsigned short, FontDef, unsigned char)
    slider.o(i._ZN6Slider11textDigGridEtj) refers to text.o(i._ZN4Text15writeStringOverEssPc7FontDefjjh) for Text::writeStringOver(short, short, char*, FontDef, unsigned, unsigned, unsigned char)
    slider.o(i._ZN6Slider11textDigGridEtj) refers to text.o(i._ZN4Text11decToStringEPci) for Text::decToString(char*, int)
    slider.o(i._ZN6Slider11textDigGridEtj) refers to font.o(.data) for Font_11x18
    slider.o(i._ZN6Slider11textDigGridEtj) refers to text.o(.bss) for text
    slider.o(i._ZN6Slider11viewDigLeftEt) refers to slider.o(i._ZN6Slider12checkDigGridEt) for Slider::checkDigGrid(unsigned short)
    slider.o(i._ZN6Slider11viewDigLeftEt) refers to slider.o(i._ZN6Slider11textDigGridEtj) for Slider::textDigGrid(unsigned short, unsigned)
    slider.o(i._ZN6Slider12clearDigLeftEt) refers to slider.o(i._ZN6Slider12checkDigGridEt) for Slider::checkDigGrid(unsigned short)
    slider.o(i._ZN6Slider12clearDigLeftEt) refers to slider.o(i._ZN6Slider11textDigGridEtj) for Slider::textDigGrid(unsigned short, unsigned)
    slider.o(i._ZN6Slider12eraseDigGridEv) refers to slider.o(i._ZN6Slider11getPositionEPtS0_t) for Slider::getPosition(unsigned short*, unsigned short*, unsigned short)
    slider.o(i._ZN6Slider12eraseDigGridEv) refers to slider.o(i._ZN6Slider18getCorrectXDigGridEt7FontDefh) for Slider::getCorrectXDigGrid(unsigned short, FontDef, unsigned char)
    slider.o(i._ZN6Slider12eraseDigGridEv) refers to text.o(i._ZN4Text15writeStringOverEssPc7FontDefjjh) for Text::writeStringOver(short, short, char*, FontDef, unsigned, unsigned, unsigned char)
    slider.o(i._ZN6Slider12eraseDigGridEv) refers to text.o(i._ZN4Text11decToStringEPci) for Text::decToString(char*, int)
    slider.o(i._ZN6Slider12eraseDigGridEv) refers to font.o(.data) for Font_11x18
    slider.o(i._ZN6Slider12eraseDigGridEv) refers to text.o(.bss) for text
    slider.o(i._ZN6Slider12viewDigRightEt) refers to slider.o(i._ZN6Slider12checkDigGridEt) for Slider::checkDigGrid(unsigned short)
    slider.o(i._ZN6Slider12viewDigRightEt) refers to slider.o(i._ZN6Slider11textDigGridEtj) for Slider::textDigGrid(unsigned short, unsigned)
    slider.o(i._ZN6Slider12viewGridSensEtjb) refers to memory.o(i._ZN6Memory8readPageEPhjj) for Memory::readPage(unsigned char*, unsigned, unsigned)
    slider.o(i._ZN6Slider12viewGridSensEtjb) refers to gd32f30x_gpio.o(i._Z14gpio_bit_resetjj) for gpio_bit_reset(unsigned, unsigned)
    slider.o(i._ZN6Slider12viewGridSensEtjb) refers to memory.o(i._ZN6Memory11quadOutInitEv) for Memory::quadOutInit()
    slider.o(i._ZN6Slider12viewGridSensEtjb) refers to memory.o(i._ZN6Memory8quadSendEh) for Memory::quadSend(unsigned char)
    slider.o(i._ZN6Slider12viewGridSensEtjb) refers to memory.o(i._ZN6Memory10quadInInitEv) for Memory::quadInInit()
    slider.o(i._ZN6Slider12viewGridSensEtjb) refers to memory.o(i._ZN6Memory10quadReceivEv) for Memory::quadReceiv()
    slider.o(i._ZN6Slider12viewGridSensEtjb) refers to canvas.o(i._ZN6Canvas16writePixelDoubleEssjj) for Canvas::writePixelDouble(short, short, unsigned, unsigned)
    slider.o(i._ZN6Slider12viewGridSensEtjb) refers to gd32f30x_gpio.o(i._Z12gpio_bit_setjj) for gpio_bit_set(unsigned, unsigned)
    slider.o(i._ZN6Slider12viewGridSensEtjb) refers to slider.o(.data) for isFirst
    slider.o(i._ZN6Slider12viewGridSensEtjb) refers to slider.o(.bss) for data
    slider.o(i._ZN6Slider12viewGridSensEtjb) refers to memory.o(.bss) for memory
    slider.o(i._ZN6Slider12viewGridSensEtjb) refers to canvas.o(.bss) for canvas
    slider.o(i._ZN6Slider12viewPositionEv) refers to core.o(i._ZN4Core7getTickEv) for Core::getTick()
    slider.o(i._ZN6Slider12viewPositionEv) refers to slider.o(i._ZN6Slider8viewGridEtj) for Slider::viewGrid(unsigned short, unsigned)
    slider.o(i._ZN6Slider12viewPositionEv) refers to text.o(i._ZN4Text11decToStringEPci) for Text::decToString(char*, int)
    slider.o(i._ZN6Slider12viewPositionEv) refers to slider.o(i._ZN6Slider13clearDigRightEt) for Slider::clearDigRight(unsigned short)
    slider.o(i._ZN6Slider12viewPositionEv) refers to slider.o(i._ZN6Slider10viewStringEv) for Slider::viewString()
    slider.o(i._ZN6Slider12viewPositionEv) refers to slider.o(i._ZN6Slider11viewDigLeftEt) for Slider::viewDigLeft(unsigned short)
    slider.o(i._ZN6Slider12viewPositionEv) refers to slider.o(i._ZN6Slider14viewGridInvertEtj) for Slider::viewGridInvert(unsigned short, unsigned)
    slider.o(i._ZN6Slider12viewPositionEv) refers to slider.o(i._ZN6Slider12clearDigLeftEt) for Slider::clearDigLeft(unsigned short)
    slider.o(i._ZN6Slider12viewPositionEv) refers to slider.o(i._ZN6Slider12viewDigRightEt) for Slider::viewDigRight(unsigned short)
    slider.o(i._ZN6Slider12viewPositionEv) refers to core.o(.bss) for core
    slider.o(i._ZN6Slider12viewPositionEv) refers to text.o(.bss) for text
    slider.o(i._ZN6Slider12viewPositionEv) refers to display.o(.bss) for display
    slider.o(i._ZN6Slider12viewPositionEv) refers to font.o(.data) for Font_16x26
    slider.o(i._ZN6Slider13clearDigRightEt) refers to slider.o(i._ZN6Slider12checkDigGridEt) for Slider::checkDigGrid(unsigned short)
    slider.o(i._ZN6Slider13clearDigRightEt) refers to slider.o(i._ZN6Slider11textDigGridEtj) for Slider::textDigGrid(unsigned short, unsigned)
    slider.o(i._ZN6Slider14viewGridInvertEtj) refers to memory.o(i._ZN6Memory8readPageEPhjj) for Memory::readPage(unsigned char*, unsigned, unsigned)
    slider.o(i._ZN6Slider14viewGridInvertEtj) refers to gd32f30x_gpio.o(i._Z14gpio_bit_resetjj) for gpio_bit_reset(unsigned, unsigned)
    slider.o(i._ZN6Slider14viewGridInvertEtj) refers to memory.o(i._ZN6Memory11quadOutInitEv) for Memory::quadOutInit()
    slider.o(i._ZN6Slider14viewGridInvertEtj) refers to memory.o(i._ZN6Memory8quadSendEh) for Memory::quadSend(unsigned char)
    slider.o(i._ZN6Slider14viewGridInvertEtj) refers to memory.o(i._ZN6Memory10quadInInitEv) for Memory::quadInInit()
    slider.o(i._ZN6Slider14viewGridInvertEtj) refers to memory.o(i._ZN6Memory10quadReceivEv) for Memory::quadReceiv()
    slider.o(i._ZN6Slider14viewGridInvertEtj) refers to canvas.o(i._ZN6Canvas15writePixelCountEssPjh) for Canvas::writePixelCount(short, short, unsigned*, unsigned char)
    slider.o(i._ZN6Slider14viewGridInvertEtj) refers to gd32f30x_gpio.o(i._Z12gpio_bit_setjj) for gpio_bit_set(unsigned, unsigned)
    slider.o(i._ZN6Slider14viewGridInvertEtj) refers to main.o(.data) for screen_visible
    slider.o(i._ZN6Slider14viewGridInvertEtj) refers to memory.o(.bss) for memory
    slider.o(i._ZN6Slider14viewGridInvertEtj) refers to canvas.o(.bss) for canvas
    slider.o(i._ZN6Slider4drawEtthPKcbPbb) refers to text.o(i._ZN4Text11writeStringEttPKc7FontDefjj) for Text::writeString(unsigned short, unsigned short, const char*, FontDef, unsigned, unsigned)
    slider.o(i._ZN6Slider4drawEtthPKcbPbb) refers to canvas.o(i._ZN6Canvas10drawSliderEsshc) for Canvas::drawSlider(short, short, unsigned char, char)
    slider.o(i._ZN6Slider4drawEtthPKcbPbb) refers to font.o(.data) for Font_11x18
    slider.o(i._ZN6Slider4drawEtthPKcbPbb) refers to text.o(.bss) for text
    slider.o(i._ZN6Slider4drawEtthPKcbPbb) refers to canvas.o(.bss) for canvas
    slider.o(i._ZN6Slider4drawEtthPctcbPbb) refers to text.o(i._ZN4Text11writeStringEttPKc7FontDefjj) for Text::writeString(unsigned short, unsigned short, const char*, FontDef, unsigned, unsigned)
    slider.o(i._ZN6Slider4drawEtthPctcbPbb) refers to canvas.o(i._ZN6Canvas10drawSliderEsshc) for Canvas::drawSlider(short, short, unsigned char, char)
    slider.o(i._ZN6Slider4drawEtthPctcbPbb) refers to text.o(i._ZN4Text11decToStringEPci) for Text::decToString(char*, int)
    slider.o(i._ZN6Slider4drawEtthPctcbPbb) refers to font.o(.data) for Font_11x18
    slider.o(i._ZN6Slider4drawEtthPctcbPbb) refers to text.o(.bss) for text
    slider.o(i._ZN6Slider4drawEtthPctcbPbb) refers to canvas.o(.bss) for canvas
    slider.o(i._ZN6Slider8drawSlimEttfPKcbPbbjh) refers to text.o(i._ZN4Text11writeStringEttPKc7FontDefjj) for Text::writeString(unsigned short, unsigned short, const char*, FontDef, unsigned, unsigned)
    slider.o(i._ZN6Slider8drawSlimEttfPKcbPbbjh) refers to canvas.o(i._ZN6Canvas14drawSliderSlimEsshbj) for Canvas::drawSliderSlim(short, short, unsigned char, bool, unsigned)
    slider.o(i._ZN6Slider8drawSlimEttfPKcbPbbjh) refers to canvas.o(i._ZN6Canvas10writeMinusEtt) for Canvas::writeMinus(unsigned short, unsigned short)
    slider.o(i._ZN6Slider8drawSlimEttfPKcbPbbjh) refers to canvas.o(i._ZN6Canvas9writePlusEtt) for Canvas::writePlus(unsigned short, unsigned short)
    slider.o(i._ZN6Slider8drawSlimEttfPKcbPbbjh) refers to canvas.o(i._ZN6Canvas13writeFillRectEttttj) for Canvas::writeFillRect(unsigned short, unsigned short, unsigned short, unsigned short, unsigned)
    slider.o(i._ZN6Slider8drawSlimEttfPKcbPbbjh) refers to core.o(i._ZN4Core8getTimerEv) for Core::getTimer()
    slider.o(i._ZN6Slider8drawSlimEttfPKcbPbbjh) refers to core.o(i._ZN4Core8setTimerEj) for Core::setTimer(unsigned)
    slider.o(i._ZN6Slider8drawSlimEttfPKcbPbbjh) refers to font.o(.data) for Font_11x18
    slider.o(i._ZN6Slider8drawSlimEttfPKcbPbbjh) refers to text.o(.bss) for text
    slider.o(i._ZN6Slider8drawSlimEttfPKcbPbbjh) refers to canvas.o(.bss) for canvas
    slider.o(i._ZN6Slider8drawSlimEttfPKcbPbbjh) refers to sensor.o(.bss) for sensor
    slider.o(i._ZN6Slider8drawSlimEttfPKcbPbbjh) refers to core.o(.bss) for core
    slider.o(i._ZN6Slider8drawSlimEttfPKcbPbbjh) refers to slider.o(.data) for modeBtn
    slider.o(i._ZN6Slider8drawSlimEttfPKctcbPbbjh) refers to text.o(i._ZN4Text11writeStringEttPKc7FontDefjj) for Text::writeString(unsigned short, unsigned short, const char*, FontDef, unsigned, unsigned)
    slider.o(i._ZN6Slider8drawSlimEttfPKctcbPbbjh) refers to canvas.o(i._ZN6Canvas14drawSliderSlimEsshbj) for Canvas::drawSliderSlim(short, short, unsigned char, bool, unsigned)
    slider.o(i._ZN6Slider8drawSlimEttfPKctcbPbbjh) refers to canvas.o(i._ZN6Canvas10writeMinusEtt) for Canvas::writeMinus(unsigned short, unsigned short)
    slider.o(i._ZN6Slider8drawSlimEttfPKctcbPbbjh) refers to canvas.o(i._ZN6Canvas9writePlusEtt) for Canvas::writePlus(unsigned short, unsigned short)
    slider.o(i._ZN6Slider8drawSlimEttfPKctcbPbbjh) refers to text.o(i._ZN4Text11decToStringEPci) for Text::decToString(char*, int)
    slider.o(i._ZN6Slider8drawSlimEttfPKctcbPbbjh) refers to core.o(i._ZN4Core8getTimerEv) for Core::getTimer()
    slider.o(i._ZN6Slider8drawSlimEttfPKctcbPbbjh) refers to core.o(i._ZN4Core8setTimerEj) for Core::setTimer(unsigned)
    slider.o(i._ZN6Slider8drawSlimEttfPKctcbPbbjh) refers to font.o(.data) for Font_11x18
    slider.o(i._ZN6Slider8drawSlimEttfPKctcbPbbjh) refers to text.o(.bss) for text
    slider.o(i._ZN6Slider8drawSlimEttfPKctcbPbbjh) refers to canvas.o(.bss) for canvas
    slider.o(i._ZN6Slider8drawSlimEttfPKctcbPbbjh) refers to sensor.o(.bss) for sensor
    slider.o(i._ZN6Slider8drawSlimEttfPKctcbPbbjh) refers to core.o(.bss) for core
    slider.o(i._ZN6Slider8drawSlimEttfPKctcbPbbjh) refers to slider.o(.data) for modeBtn
    slider.o(i._ZN6Slider8viewGridEtj) refers to memory.o(i._ZN6Memory8readPageEPhjj) for Memory::readPage(unsigned char*, unsigned, unsigned)
    slider.o(i._ZN6Slider8viewGridEtj) refers to gd32f30x_gpio.o(i._Z14gpio_bit_resetjj) for gpio_bit_reset(unsigned, unsigned)
    slider.o(i._ZN6Slider8viewGridEtj) refers to memory.o(i._ZN6Memory11quadOutInitEv) for Memory::quadOutInit()
    slider.o(i._ZN6Slider8viewGridEtj) refers to memory.o(i._ZN6Memory8quadSendEh) for Memory::quadSend(unsigned char)
    slider.o(i._ZN6Slider8viewGridEtj) refers to memory.o(i._ZN6Memory10quadInInitEv) for Memory::quadInInit()
    slider.o(i._ZN6Slider8viewGridEtj) refers to memory.o(i._ZN6Memory10quadReceivEv) for Memory::quadReceiv()
    slider.o(i._ZN6Slider8viewGridEtj) refers to canvas.o(i._ZN6Canvas15writePixelCountEssPjh) for Canvas::writePixelCount(short, short, unsigned*, unsigned char)
    slider.o(i._ZN6Slider8viewGridEtj) refers to gd32f30x_gpio.o(i._Z12gpio_bit_setjj) for gpio_bit_set(unsigned, unsigned)
    slider.o(i._ZN6Slider8viewGridEtj) refers to main.o(.data) for screen_visible
    slider.o(i._ZN6Slider8viewGridEtj) refers to memory.o(.bss) for memory
    slider.o(i._ZN6Slider8viewGridEtj) refers to canvas.o(.bss) for canvas
    slider.o(i._ZN6Slider9setMinMaxEshhhh) refers to text.o(i._ZN4Text11decToStringEPci) for Text::decToString(char*, int)
    slider.o(i._ZN6Slider9setMinMaxEshhhh) refers to text.o(i._ZN4Text15writeStringOverEssPc7FontDefjjh) for Text::writeStringOver(short, short, char*, FontDef, unsigned, unsigned, unsigned char)
    slider.o(i._ZN6Slider9setMinMaxEshhhh) refers to slider.o(i._ZN6Slider12eraseDigGridEv) for Slider::eraseDigGrid()
    slider.o(i._ZN6Slider9setMinMaxEshhhh) refers to slider.o(i._ZN6Slider10initializeEv) for Slider::initialize()
    slider.o(i._ZN6Slider9setMinMaxEshhhh) refers to slider.o(i._ZN6Slider11drawDigGridEv) for Slider::drawDigGrid()
    slider.o(i._ZN6Slider9setMinMaxEshhhh) refers to slider.o(i._ZN6Slider6setValEt) for Slider::setVal(unsigned short)
    slider.o(i._ZN6Slider9setMinMaxEshhhh) refers to main.o(.data) for screen_visible
    slider.o(i._ZN6Slider9setMinMaxEshhhh) refers to text.o(.bss) for text
    slider.o(i._ZN6Slider9setMinMaxEshhhh) refers to display.o(.bss) for display
    slider.o(i._ZN6Slider9setMinMaxEshhhh) refers to font.o(.data) for Font_16x26
    slider.o(i.__sti___10_slider_cpp_slider) refers to slider.o(.bss) for slider
    slider.o(.ARM.exidx) refers to slider.o(i._ZN6Slider10initializeEv) for i._ZN6Slider10initializeEv
    slider.o(.ARM.exidx) refers to slider.o(i._ZN6Slider6setValEt) for i._ZN6Slider6setValEt
    slider.o(.ARM.exidx) refers to slider.o(i._ZN6Slider10viewScreenEv) for i._ZN6Slider10viewScreenEv
    slider.o(.ARM.exidx) refers to slider.o(i._ZN6Slider11setPositionEs) for i._ZN6Slider11setPositionEs
    slider.o(.ARM.exidx) refers to slider.o(i._ZN6Slider18getCorrectXDigGridEt7FontDefh) for i._ZN6Slider18getCorrectXDigGridEt7FontDefh
    slider.o(.ARM.exidx) refers to slider.o(i._ZN6Slider11getPositionEPtS0_t) for i._ZN6Slider11getPositionEPtS0_t
    slider.o(.ARM.exidx) refers to slider.o(i._ZN6Slider11textDigGridEtj) for i._ZN6Slider11textDigGridEtj
    slider.o(.ARM.exidx) refers to slider.o(i._ZN6Slider12checkDigGridEt) for i._ZN6Slider12checkDigGridEt
    slider.o(.ARM.exidx) refers to slider.o(i._ZN6Slider12viewDigRightEt) for i._ZN6Slider12viewDigRightEt
    slider.o(.ARM.exidx) refers to slider.o(i._ZN6Slider10viewStringEv) for i._ZN6Slider10viewStringEv
    slider.o(.ARM.exidx) refers to slider.o(i._ZN6Slider12clearDigLeftEt) for i._ZN6Slider12clearDigLeftEt
    slider.o(.ARM.exidx) refers to slider.o(i._ZN6Slider14viewGridInvertEtj) for i._ZN6Slider14viewGridInvertEtj
    slider.o(.ARM.exidx) refers to slider.o(i._ZN6Slider11viewDigLeftEt) for i._ZN6Slider11viewDigLeftEt
    slider.o(.ARM.exidx) refers to slider.o(i._ZN6Slider13clearDigRightEt) for i._ZN6Slider13clearDigRightEt
    slider.o(.ARM.exidx) refers to slider.o(i._ZN6Slider8viewGridEtj) for i._ZN6Slider8viewGridEtj
    slider.o(.ARM.exidx) refers to slider.o(i._ZN6Slider12viewPositionEv) for i._ZN6Slider12viewPositionEv
    slider.o(.ARM.exidx) refers to slider.o(i._ZN6Slider12eraseDigGridEv) for i._ZN6Slider12eraseDigGridEv
    slider.o(.ARM.exidx) refers to slider.o(i._ZN6Slider11drawDigGridEv) for i._ZN6Slider11drawDigGridEv
    slider.o(.ARM.exidx) refers to slider.o(i._ZN6Slider12viewGridSensEtjb) for i._ZN6Slider12viewGridSensEtjb
    slider.o(.ARM.exidx) refers to slider.o(i._ZN6Slider4drawEtthPctcbPbb) for i._ZN6Slider4drawEtthPctcbPbb
    slider.o(.ARM.exidx) refers to slider.o(i._ZN6Slider8drawSlimEttfPKctcbPbbjh) for i._ZN6Slider8drawSlimEttfPKctcbPbbjh
    slider.o(.ARM.exidx) refers to slider.o(i._ZN6Slider8drawSlimEttfPKcbPbbjh) for i._ZN6Slider8drawSlimEttfPKcbPbbjh
    slider.o(.ARM.exidx) refers to slider.o(i._ZN6Slider10drawDoubleEtthhPKcbPbh) for i._ZN6Slider10drawDoubleEtthhPKcbPbh
    slider.o(.ARM.exidx) refers to slider.o(i._ZN6Slider4drawEtthPKcbPbb) for i._ZN6Slider4drawEtthPKcbPbb
    slider.o(.ARM.exidx) refers to slider.o(i._ZN6Slider9setMinMaxEshhhh) for i._ZN6Slider9setMinMaxEshhhh
    slider.o(.ARM.exidx) refers to slider.o(i.__sti___10_slider_cpp_slider) for i.__sti___10_slider_cpp_slider
    slider.o(.init_array) refers to slider.o(i.__sti___10_slider_cpp_slider) for __sti___10_slider_cpp_slider
    slider.o(.init_array) refers to init_aeabi.o(.text) for __cpp_initialize__aeabi_
    checkbox.o(i._ZN8Checkbox4drawEttPKcPc) refers to text.o(i._ZN4Text11writeStringEttPKc7FontDefjj) for Text::writeString(unsigned short, unsigned short, const char*, FontDef, unsigned, unsigned)
    checkbox.o(i._ZN8Checkbox4drawEttPKcPc) refers to canvas.o(i._ZN6Canvas15loadImageEffectEttjjh) for Canvas::loadImageEffect(unsigned short, unsigned short, unsigned, unsigned, unsigned char)
    checkbox.o(i._ZN8Checkbox4drawEttPKcPc) refers to font.o(.data) for Font_11x18
    checkbox.o(i._ZN8Checkbox4drawEttPKcPc) refers to text.o(.bss) for text
    checkbox.o(i._ZN8Checkbox4drawEttPKcPc) refers to canvas.o(.bss) for canvas
    checkbox.o(i._ZN8Checkbox4drawEttPKcb) refers to text.o(i._ZN4Text11writeStringEttPKc7FontDefjj) for Text::writeString(unsigned short, unsigned short, const char*, FontDef, unsigned, unsigned)
    checkbox.o(i._ZN8Checkbox4drawEttPKcb) refers to canvas.o(i._ZN6Canvas15loadImageEffectEttjjh) for Canvas::loadImageEffect(unsigned short, unsigned short, unsigned, unsigned, unsigned char)
    checkbox.o(i._ZN8Checkbox4drawEttPKcb) refers to font.o(.data) for Font_11x18
    checkbox.o(i._ZN8Checkbox4drawEttPKcb) refers to text.o(.bss) for text
    checkbox.o(i._ZN8Checkbox4drawEttPKcb) refers to canvas.o(.bss) for canvas
    checkbox.o(i.__sti___12_checkbox_cpp_checkbox) refers to checkbox.o(i._ZN8CheckboxC1Ev) for Checkbox::Checkbox()
    checkbox.o(i.__sti___12_checkbox_cpp_checkbox) refers to checkbox.o(.data) for checkbox
    checkbox.o(.ARM.exidx) refers to checkbox.o(i._ZN8CheckboxC1Ev) for i._ZN8CheckboxC1Ev
    checkbox.o(.ARM.exidx) refers to checkbox.o(i._ZN8Checkbox4drawEttPKcPc) for i._ZN8Checkbox4drawEttPKcPc
    checkbox.o(.ARM.exidx) refers to checkbox.o(i._ZN8Checkbox4drawEttPKcb) for i._ZN8Checkbox4drawEttPKcb
    checkbox.o(.ARM.exidx) refers to checkbox.o(i.__sti___12_checkbox_cpp_checkbox) for i.__sti___12_checkbox_cpp_checkbox
    checkbox.o(.init_array) refers to checkbox.o(i.__sti___12_checkbox_cpp_checkbox) for __sti___12_checkbox_cpp_checkbox
    checkbox.o(.init_array) refers to init_aeabi.o(.text) for __cpp_initialize__aeabi_
    clock.o(i._ZN5Clock10drawMinuteEth) refers to clock.o(i._ZN5Clock17setColorGridClockEc) for Clock::setColorGridClock(char)
    clock.o(i._ZN5Clock10drawMinuteEth) refers to canvas.o(i._ZN6Canvas8writeDotEttcc) for Canvas::writeDot(unsigned short, unsigned short, char, char)
    clock.o(i._ZN5Clock10drawMinuteEth) refers to canvas.o(.bss) for canvas
    clock.o(i._ZN5Clock10drawSecondEth) refers to canvas.o(i._ZN6Canvas8writeDotEttcc) for Canvas::writeDot(unsigned short, unsigned short, char, char)
    clock.o(i._ZN5Clock10drawSecondEth) refers to canvas.o(.bss) for canvas
    clock.o(i._ZN5Clock10initializeEv) refers to slider.o(i._ZSt3sinf) for std::sin(float)
    clock.o(i._ZN5Clock10initializeEv) refers to slider.o(i._ZSt3cosf) for std::cos(float)
    clock.o(i._ZN5Clock10initializeEv) refers to clock.o(i._ZN5Clock8isTimeOkEv) for Clock::isTimeOk()
    clock.o(i._ZN5Clock10initializeEv) refers to clock.o(i._ZN5Clock6configEv) for Clock::config()
    clock.o(i._ZN5Clock10initializeEv) refers to clock.o(i._ZN5Clock10timeUpdateEv) for Clock::timeUpdate()
    clock.o(i._ZN5Clock10resetTimerEv) refers to core.o(i._ZN4Core7getTickEv) for Core::getTick()
    clock.o(i._ZN5Clock10resetTimerEv) refers to core.o(.bss) for core
    clock.o(i._ZN5Clock10timeUpdateEv) refers to cxa_guard_acquire.o(i.__cxa_guard_acquire) for __cxa_guard_acquire
    clock.o(i._ZN5Clock10timeUpdateEv) refers to gd32f30x_rtc.o(i._Z15rtc_counter_getv) for rtc_counter_get()
    clock.o(i._ZN5Clock10timeUpdateEv) refers to unix_time.o(i._ZN8UnixTime10timerToCalEm) for UnixTime::timerToCal(unsigned long)
    clock.o(i._ZN5Clock10timeUpdateEv) refers to clock.o(.data) for _ZGVcorrect
    clock.o(i._ZN5Clock10timeUpdateEv) refers to core.o(.bss) for core
    clock.o(i._ZN5Clock10timeUpdateEv) refers to unix_time.o(.bss) for unixTime
    clock.o(i._ZN5Clock11sensorCheckEv) refers to clock.o(i._ZN5Clock15clearDrawMinuteEth) for Clock::clearDrawMinute(unsigned short, unsigned char)
    clock.o(i._ZN5Clock11sensorCheckEv) refers to clock.o(i._ZN5Clock10drawMinuteEth) for Clock::drawMinute(unsigned short, unsigned char)
    clock.o(i._ZN5Clock11sensorCheckEv) refers to clock.o(i._ZN5Clock8drawHourEtc) for Clock::drawHour(unsigned short, char)
    clock.o(i._ZN5Clock11sensorCheckEv) refers to clock.o(i._ZSt3powfi) for std::pow(float, int)
    clock.o(i._ZN5Clock11sensorCheckEv) refers to clock.o(i._ZSt4sqrtf) for std::sqrt(float)
    clock.o(i._ZN5Clock11sensorCheckEv) refers to core.o(i._ZN4Core8setTimerEj) for Core::setTimer(unsigned)
    clock.o(i._ZN5Clock11sensorCheckEv) refers to core.o(i._ZN4Core7getTickEv) for Core::getTick()
    clock.o(i._ZN5Clock11sensorCheckEv) refers to sensor.o(.bss) for sensor
    clock.o(i._ZN5Clock11sensorCheckEv) refers to clock.o(.bss) for clock
    clock.o(i._ZN5Clock11sensorCheckEv) refers to clock.o(.data) for isTouchElement
    clock.o(i._ZN5Clock11sensorCheckEv) refers to core.o(.bss) for core
    clock.o(i._ZN5Clock11viewAnClockEh) refers to display.o(i._ZN7Display7turnOffEv) for Display::turnOff()
    clock.o(i._ZN5Clock11viewAnClockEh) refers to canvas.o(i._ZN6Canvas13writeFillRectEttttj) for Canvas::writeFillRect(unsigned short, unsigned short, unsigned short, unsigned short, unsigned)
    clock.o(i._ZN5Clock11viewAnClockEh) refers to canvas.o(i._ZN6Canvas9loadImageEttj) for Canvas::loadImage(unsigned short, unsigned short, unsigned)
    clock.o(i._ZN5Clock11viewAnClockEh) refers to display.o(i._ZN7Display8switchOnEv) for Display::switchOn()
    clock.o(i._ZN5Clock11viewAnClockEh) refers to clock.o(i._ZN5Clock10drawMinuteEth) for Clock::drawMinute(unsigned short, unsigned char)
    clock.o(i._ZN5Clock11viewAnClockEh) refers to clock.o(i._ZN5Clock8drawHourEtc) for Clock::drawHour(unsigned short, char)
    clock.o(i._ZN5Clock11viewAnClockEh) refers to clock.o(i._ZN5Clock18viewCenterDigClockEc) for Clock::viewCenterDigClock(char)
    clock.o(i._ZN5Clock11viewAnClockEh) refers to clock.o(i._ZN5Clock10resetTimerEv) for Clock::resetTimer()
    clock.o(i._ZN5Clock11viewAnClockEh) refers to clock.o(i._ZN5Clock11sensorCheckEv) for Clock::sensorCheck()
    clock.o(i._ZN5Clock11viewAnClockEh) refers to clock.o(i._ZN5Clock17viewAnClockSecondEv) for Clock::viewAnClockSecond()
    clock.o(i._ZN5Clock11viewAnClockEh) refers to clock.o(i._ZN5Clock17viewAnClockMinuteEv) for Clock::viewAnClockMinute()
    clock.o(i._ZN5Clock11viewAnClockEh) refers to clock.o(i._ZN5Clock8setTimerEj) for Clock::setTimer(unsigned)
    clock.o(i._ZN5Clock11viewAnClockEh) refers to clock.o(i._ZN5Clock15viewAnClockHourEPcPah) for Clock::viewAnClockHour(char*, signed char*, unsigned char)
    clock.o(i._ZN5Clock11viewAnClockEh) refers to clock.o(i._ZN5Clock8getTimerEv) for Clock::getTimer()
    clock.o(i._ZN5Clock11viewAnClockEh) refers to display.o(.bss) for display
    clock.o(i._ZN5Clock11viewAnClockEh) refers to canvas.o(.bss) for canvas
    clock.o(i._ZN5Clock11viewAnClockEh) refers to clock.o(.data) for minute_f
    clock.o(i._ZN5Clock11viewAnTimerEhPaS0_Ph) refers to display.o(i._ZN7Display7turnOffEv) for Display::turnOff()
    clock.o(i._ZN5Clock11viewAnTimerEhPaS0_Ph) refers to canvas.o(i._ZN6Canvas13writeFillRectEttttj) for Canvas::writeFillRect(unsigned short, unsigned short, unsigned short, unsigned short, unsigned)
    clock.o(i._ZN5Clock11viewAnTimerEhPaS0_Ph) refers to canvas.o(i._ZN6Canvas9loadImageEttj) for Canvas::loadImage(unsigned short, unsigned short, unsigned)
    clock.o(i._ZN5Clock11viewAnTimerEhPaS0_Ph) refers to display.o(i._ZN7Display8switchOnEv) for Display::switchOn()
    clock.o(i._ZN5Clock11viewAnTimerEhPaS0_Ph) refers to clock.o(i._ZN5Clock10drawMinuteEth) for Clock::drawMinute(unsigned short, unsigned char)
    clock.o(i._ZN5Clock11viewAnTimerEhPaS0_Ph) refers to clock.o(i._ZN5Clock8drawHourEtc) for Clock::drawHour(unsigned short, char)
    clock.o(i._ZN5Clock11viewAnTimerEhPaS0_Ph) refers to clock.o(i._ZN5Clock18viewCenterDigClockEcaa) for Clock::viewCenterDigClock(char, signed char, signed char)
    clock.o(i._ZN5Clock11viewAnTimerEhPaS0_Ph) refers to clock.o(i._ZN5Clock10resetTimerEv) for Clock::resetTimer()
    clock.o(i._ZN5Clock11viewAnTimerEhPaS0_Ph) refers to clock.o(i._ZN5Clock11sensorCheckEv) for Clock::sensorCheck()
    clock.o(i._ZN5Clock11viewAnTimerEhPaS0_Ph) refers to clock.o(i._ZN5Clock17viewAnClockSecondEv) for Clock::viewAnClockSecond()
    clock.o(i._ZN5Clock11viewAnTimerEhPaS0_Ph) refers to clock.o(i._ZN5Clock17viewAnClockMinuteEv) for Clock::viewAnClockMinute()
    clock.o(i._ZN5Clock11viewAnTimerEhPaS0_Ph) refers to clock.o(i._ZN5Clock8setTimerEj) for Clock::setTimer(unsigned)
    clock.o(i._ZN5Clock11viewAnTimerEhPaS0_Ph) refers to clock.o(i._ZN5Clock15viewAnClockHourEPcPah) for Clock::viewAnClockHour(char*, signed char*, unsigned char)
    clock.o(i._ZN5Clock11viewAnTimerEhPaS0_Ph) refers to clock.o(i._ZN5Clock8getTimerEv) for Clock::getTimer()
    clock.o(i._ZN5Clock11viewAnTimerEhPaS0_Ph) refers to display.o(.bss) for display
    clock.o(i._ZN5Clock11viewAnTimerEhPaS0_Ph) refers to canvas.o(.bss) for canvas
    clock.o(i._ZN5Clock11viewAnTimerEhPaS0_Ph) refers to clock.o(.data) for minute_f
    clock.o(i._ZN5Clock12timeRegulateEv) refers to gd32f30x_rcu.o(i._Z23rcu_periph_clock_enable15rcu_periph_enum) for rcu_periph_clock_enable(rcu_periph_enum)
    clock.o(i._ZN5Clock12timeRegulateEv) refers to gd32f30x_pmu.o(i._Z23pmu_backup_write_enablev) for pmu_backup_write_enable()
    clock.o(i._ZN5Clock12timeRegulateEv) refers to gd32f30x_rtc.o(i._Z22rtc_register_sync_waitv) for rtc_register_sync_wait()
    clock.o(i._ZN5Clock12timeRegulateEv) refers to gd32f30x_rtc.o(i._Z14rtc_lwoff_waitv) for rtc_lwoff_wait()
    clock.o(i._ZN5Clock12timeRegulateEv) refers to unix_time.o(i._ZN8UnixTime10calToTimerEv) for UnixTime::calToTimer()
    clock.o(i._ZN5Clock12timeRegulateEv) refers to gd32f30x_rtc.o(i._Z15rtc_counter_setj) for rtc_counter_set(unsigned)
    clock.o(i._ZN5Clock12timeRegulateEv) refers to gd32f30x_bkp.o(i._Z14bkp_write_data22bkp_data_register_enumt) for bkp_write_data(bkp_data_register_enum, unsigned short)
    clock.o(i._ZN5Clock12timeRegulateEv) refers to unix_time.o(.bss) for unixTime
    clock.o(i._ZN5Clock12viewDigClockEhh) refers to rt_memcpy_w.o(.text) for __aeabi_memcpy4
    clock.o(i._ZN5Clock12viewDigClockEhh) refers to text.o(i._ZN4Text14decToStringFixEPcih) for Text::decToStringFix(char*, int, unsigned char)
    clock.o(i._ZN5Clock12viewDigClockEhh) refers to text.o(i._ZN4Text10writeDigitEttPKcjh) for Text::writeDigit(unsigned short, unsigned short, const char*, unsigned, unsigned char)
    clock.o(i._ZN5Clock12viewDigClockEhh) refers to text.o(i._ZN4Text11writeStringEttPKc7FontDefjj) for Text::writeString(unsigned short, unsigned short, const char*, FontDef, unsigned, unsigned)
    clock.o(i._ZN5Clock12viewDigClockEhh) refers to clock.o(.constdata) for .constdata
    clock.o(i._ZN5Clock12viewDigClockEhh) refers to display.o(.bss) for display
    clock.o(i._ZN5Clock12viewDigClockEhh) refers to text.o(.bss) for text
    clock.o(i._ZN5Clock12viewDigClockEhh) refers to font.o(.data) for Font_16x26
    clock.o(i._ZN5Clock12viewDigTimerEhh) refers to text.o(i._ZN4Text11writeStringEttPKc7FontDefjj) for Text::writeString(unsigned short, unsigned short, const char*, FontDef, unsigned, unsigned)
    clock.o(i._ZN5Clock12viewDigTimerEhh) refers to text.o(i._ZN4Text14decToStringFixEPcih) for Text::decToStringFix(char*, int, unsigned char)
    clock.o(i._ZN5Clock12viewDigTimerEhh) refers to text.o(i._ZN4Text10writeDigitEttPKcjh) for Text::writeDigit(unsigned short, unsigned short, const char*, unsigned, unsigned char)
    clock.o(i._ZN5Clock12viewDigTimerEhh) refers to font.o(.data) for Font_7x10
    clock.o(i._ZN5Clock12viewDigTimerEhh) refers to text.o(.bss) for text
    clock.o(i._ZN5Clock15clearDrawMinuteEth) refers to canvas.o(i._ZN6Canvas8clearDotEttcc) for Canvas::clearDot(unsigned short, unsigned short, char, char)
    clock.o(i._ZN5Clock15clearDrawMinuteEth) refers to canvas.o(.bss) for canvas
    clock.o(i._ZN5Clock15clearDrawSecondEth) refers to canvas.o(i._ZN6Canvas8clearDotEttcc) for Canvas::clearDot(unsigned short, unsigned short, char, char)
    clock.o(i._ZN5Clock15clearDrawSecondEth) refers to canvas.o(.bss) for canvas
    clock.o(i._ZN5Clock15viewAnClockHourEPcPah) refers to clock.o(i._ZN5Clock8drawHourEtc) for Clock::drawHour(unsigned short, char)
    clock.o(i._ZN5Clock15viewAnClockHourEPcPah) refers to clock.o(i._ZN5Clock10drawMinuteEth) for Clock::drawMinute(unsigned short, unsigned char)
    clock.o(i._ZN5Clock17setColorGridClockEc) refers to canvas.o(.bss) for canvas
    clock.o(i._ZN5Clock17viewAnClockMinuteEv) refers to clock.o(i._ZN5Clock15clearDrawMinuteEth) for Clock::clearDrawMinute(unsigned short, unsigned char)
    clock.o(i._ZN5Clock17viewAnClockMinuteEv) refers to clock.o(i._ZN5Clock10drawMinuteEth) for Clock::drawMinute(unsigned short, unsigned char)
    clock.o(i._ZN5Clock17viewAnClockMinuteEv) refers to clock.o(i._ZN5Clock8drawHourEtc) for Clock::drawHour(unsigned short, char)
    clock.o(i._ZN5Clock17viewAnClockSecondEv) refers to clock.o(i._ZN5Clock15clearDrawSecondEth) for Clock::clearDrawSecond(unsigned short, unsigned char)
    clock.o(i._ZN5Clock17viewAnClockSecondEv) refers to clock.o(i._ZN5Clock10drawSecondEth) for Clock::drawSecond(unsigned short, unsigned char)
    clock.o(i._ZN5Clock17viewAnClockSecondEv) refers to clock.o(i._ZN5Clock8drawHourEtc) for Clock::drawHour(unsigned short, char)
    clock.o(i._ZN5Clock17viewAnClockSecondEv) refers to clock.o(i._ZN5Clock10drawMinuteEth) for Clock::drawMinute(unsigned short, unsigned char)
    clock.o(i._ZN5Clock17viewGridClockHourEth) refers to text.o(i._ZN4Text11decToStringEPci) for Text::decToString(char*, int)
    clock.o(i._ZN5Clock17viewGridClockHourEth) refers to text.o(i._ZN4Text15writeStringOverEssPc7FontDefjjh) for Text::writeStringOver(short, short, char*, FontDef, unsigned, unsigned, unsigned char)
    clock.o(i._ZN5Clock17viewGridClockHourEth) refers to text.o(.bss) for text
    clock.o(i._ZN5Clock17viewGridClockHourEth) refers to font.o(.data) for Font_11x18
    clock.o(i._ZN5Clock18clearGridClockHourEv) refers to text.o(i._ZN4Text11decToStringEPci) for Text::decToString(char*, int)
    clock.o(i._ZN5Clock18clearGridClockHourEv) refers to text.o(i._ZN4Text15writeStringOverEssPc7FontDefjjh) for Text::writeStringOver(short, short, char*, FontDef, unsigned, unsigned, unsigned char)
    clock.o(i._ZN5Clock18clearGridClockHourEv) refers to text.o(.bss) for text
    clock.o(i._ZN5Clock18clearGridClockHourEv) refers to font.o(.data) for Font_11x18
    clock.o(i._ZN5Clock18viewCenterDigClockEc) refers to canvas.o(i._ZN6Canvas15loadImageEffectEttjjh) for Canvas::loadImageEffect(unsigned short, unsigned short, unsigned, unsigned, unsigned char)
    clock.o(i._ZN5Clock18viewCenterDigClockEc) refers to text.o(i._ZN4Text14decToStringFixEPcih) for Text::decToStringFix(char*, int, unsigned char)
    clock.o(i._ZN5Clock18viewCenterDigClockEc) refers to text.o(i._ZN4Text10writeDigitEttPKcjh) for Text::writeDigit(unsigned short, unsigned short, const char*, unsigned, unsigned char)
    clock.o(i._ZN5Clock18viewCenterDigClockEc) refers to canvas.o(i._ZN6Canvas13writeFillRectEttttj) for Canvas::writeFillRect(unsigned short, unsigned short, unsigned short, unsigned short, unsigned)
    clock.o(i._ZN5Clock18viewCenterDigClockEc) refers to text.o(i._ZN4Text15writeStringOverEssPc7FontDefjjh) for Text::writeStringOver(short, short, char*, FontDef, unsigned, unsigned, unsigned char)
    clock.o(i._ZN5Clock18viewCenterDigClockEc) refers to clock.o(.data) for h
    clock.o(i._ZN5Clock18viewCenterDigClockEc) refers to display.o(.bss) for display
    clock.o(i._ZN5Clock18viewCenterDigClockEc) refers to canvas.o(.bss) for canvas
    clock.o(i._ZN5Clock18viewCenterDigClockEc) refers to text.o(.bss) for text
    clock.o(i._ZN5Clock18viewCenterDigClockEc) refers to font.o(.data) for Font_7x10
    clock.o(i._ZN5Clock18viewCenterDigClockEcaa) refers to canvas.o(i._ZN6Canvas15loadImageEffectEttjjh) for Canvas::loadImageEffect(unsigned short, unsigned short, unsigned, unsigned, unsigned char)
    clock.o(i._ZN5Clock18viewCenterDigClockEcaa) refers to text.o(i._ZN4Text14decToStringFixEPcih) for Text::decToStringFix(char*, int, unsigned char)
    clock.o(i._ZN5Clock18viewCenterDigClockEcaa) refers to text.o(i._ZN4Text10writeDigitEttPKcjh) for Text::writeDigit(unsigned short, unsigned short, const char*, unsigned, unsigned char)
    clock.o(i._ZN5Clock18viewCenterDigClockEcaa) refers to clock.o(.data) for h
    clock.o(i._ZN5Clock18viewCenterDigClockEcaa) refers to display.o(.bss) for display
    clock.o(i._ZN5Clock18viewCenterDigClockEcaa) refers to canvas.o(.bss) for canvas
    clock.o(i._ZN5Clock18viewCenterDigClockEcaa) refers to text.o(.bss) for text
    clock.o(i._ZN5Clock19viewGridClockMinuteEth) refers to text.o(i._ZN4Text11decToStringEPci) for Text::decToString(char*, int)
    clock.o(i._ZN5Clock19viewGridClockMinuteEth) refers to text.o(i._ZN4Text15writeStringOverEssPc7FontDefjjh) for Text::writeStringOver(short, short, char*, FontDef, unsigned, unsigned, unsigned char)
    clock.o(i._ZN5Clock19viewGridClockMinuteEth) refers to text.o(.bss) for text
    clock.o(i._ZN5Clock19viewGridClockMinuteEth) refers to font.o(.data) for Font_11x18
    clock.o(i._ZN5Clock6configEv) refers to gd32f30x_rcu.o(i._Z23rcu_periph_clock_enable15rcu_periph_enum) for rcu_periph_clock_enable(rcu_periph_enum)
    clock.o(i._ZN5Clock6configEv) refers to gd32f30x_pmu.o(i._Z23pmu_backup_write_enablev) for pmu_backup_write_enable()
    clock.o(i._ZN5Clock6configEv) refers to gd32f30x_bkp.o(i._Z10bkp_deinitv) for bkp_deinit()
    clock.o(i._ZN5Clock6configEv) refers to gd32f30x_rcu.o(i._Z20rcu_rtc_clock_configj) for rcu_rtc_clock_config(unsigned)
    clock.o(i._ZN5Clock6configEv) refers to gd32f30x_rtc.o(i._Z22rtc_register_sync_waitv) for rtc_register_sync_wait()
    clock.o(i._ZN5Clock6configEv) refers to gd32f30x_rtc.o(i._Z14rtc_lwoff_waitv) for rtc_lwoff_wait()
    clock.o(i._ZN5Clock6configEv) refers to gd32f30x_rtc.o(i._Z17rtc_prescaler_setj) for rtc_prescaler_set(unsigned)
    clock.o(i._ZN5Clock7handlerEv) refers to clock.o(i._ZN5Clock10timeUpdateEv) for Clock::timeUpdate()
    clock.o(i._ZN5Clock8drawHourEtc) refers to clock.o(i._ZN5Clock17setColorGridClockEc) for Clock::setColorGridClock(char)
    clock.o(i._ZN5Clock8drawHourEtc) refers to dflt_clz.o(x$fpl$dflt) for __aeabi_i2d
    clock.o(i._ZN5Clock8drawHourEtc) refers to ddiv.o(x$fpl$ddiv) for __aeabi_ddiv
    clock.o(i._ZN5Clock8drawHourEtc) refers to dmul.o(x$fpl$dmul) for __aeabi_dmul
    clock.o(i._ZN5Clock8drawHourEtc) refers to d2f.o(x$fpl$d2f) for __aeabi_d2f
    clock.o(i._ZN5Clock8drawHourEtc) refers to slider.o(i._ZSt3sinf) for std::sin(float)
    clock.o(i._ZN5Clock8drawHourEtc) refers to slider.o(i._ZSt3cosf) for std::cos(float)
    clock.o(i._ZN5Clock8drawHourEtc) refers to canvas.o(i._ZN6Canvas8writeDotEttcc) for Canvas::writeDot(unsigned short, unsigned short, char, char)
    clock.o(i._ZN5Clock8drawHourEtc) refers to canvas.o(.bss) for canvas
    clock.o(i._ZN5Clock8getTimerEv) refers to core.o(i._ZN4Core7getTickEv) for Core::getTick()
    clock.o(i._ZN5Clock8getTimerEv) refers to core.o(.bss) for core
    clock.o(i._ZN5Clock8isTimeOkEv) refers to gd32f30x_bkp.o(i._Z13bkp_read_data22bkp_data_register_enum) for bkp_read_data(bkp_data_register_enum)
    clock.o(i._ZN5Clock8setTimerEj) refers to core.o(i._ZN4Core7getTickEv) for Core::getTick()
    clock.o(i._ZN5Clock8setTimerEj) refers to core.o(.bss) for core
    clock.o(i._ZN5ClockC1Ev) refers to strncat.o(.text) for strncat
    clock.o(i._ZN5ClockC1Ev) refers to canvas.o(.bss) for canvas
    clock.o(i.__sti___9_clock_cpp_clock) refers to clock.o(i._ZN5ClockC1Ev) for Clock::Clock()
    clock.o(i.__sti___9_clock_cpp_clock) refers to clock.o(.bss) for clock
    clock.o(.ARM.exidx) refers to clock.o(i._ZN5ClockC1Ev) for i._ZN5ClockC1Ev
    clock.o(.ARM.exidx) refers to clock.o(i._ZN5Clock10timeUpdateEv) for i._ZN5Clock10timeUpdateEv
    clock.o(.ARM.exidx) refers to clock.o(i._ZN5Clock7handlerEv) for i._ZN5Clock7handlerEv
    clock.o(.ARM.exidx) refers to clock.o(i._ZN5Clock12timeRegulateEv) for i._ZN5Clock12timeRegulateEv
    clock.o(.ARM.exidx) refers to clock.o(i._ZN5Clock8isTimeOkEv) for i._ZN5Clock8isTimeOkEv
    clock.o(.ARM.exidx) refers to clock.o(i._ZN5Clock6configEv) for i._ZN5Clock6configEv
    clock.o(.ARM.exidx) refers to clock.o(i._ZN5Clock10initializeEv) for i._ZN5Clock10initializeEv
    clock.o(.ARM.exidx) refers to clock.o(i._ZN5Clock18viewCenterDigClockEc) for i._ZN5Clock18viewCenterDigClockEc
    clock.o(.ARM.exidx) refers to clock.o(i._ZN5Clock8setTimerEj) for i._ZN5Clock8setTimerEj
    clock.o(.ARM.exidx) refers to clock.o(i._ZN5Clock8getTimerEv) for i._ZN5Clock8getTimerEv
    clock.o(.ARM.exidx) refers to clock.o(i._ZN5Clock17setColorGridClockEc) for i._ZN5Clock17setColorGridClockEc
    clock.o(.ARM.exidx) refers to clock.o(i._ZN5Clock10drawMinuteEth) for i._ZN5Clock10drawMinuteEth
    clock.o(.ARM.exidx) refers to clock.o(i._ZN5Clock8drawHourEtc) for i._ZN5Clock8drawHourEtc
    clock.o(.ARM.exidx) refers to clock.o(i._ZN5Clock15viewAnClockHourEPcPah) for i._ZN5Clock15viewAnClockHourEPcPah
    clock.o(.ARM.exidx) refers to clock.o(i._ZN5Clock15clearDrawMinuteEth) for i._ZN5Clock15clearDrawMinuteEth
    clock.o(.ARM.exidx) refers to clock.o(i._ZN5Clock17viewAnClockMinuteEv) for i._ZN5Clock17viewAnClockMinuteEv
    clock.o(.ARM.exidx) refers to clock.o(i._ZN5Clock10drawSecondEth) for i._ZN5Clock10drawSecondEth
    clock.o(.ARM.exidx) refers to clock.o(i._ZN5Clock15clearDrawSecondEth) for i._ZN5Clock15clearDrawSecondEth
    clock.o(.ARM.exidx) refers to clock.o(i._ZN5Clock17viewAnClockSecondEv) for i._ZN5Clock17viewAnClockSecondEv
    clock.o(.ARM.exidx) refers to clock.o(i._ZN5Clock11sensorCheckEv) for i._ZN5Clock11sensorCheckEv
    clock.o(.ARM.exidx) refers to clock.o(i._ZN5Clock10resetTimerEv) for i._ZN5Clock10resetTimerEv
    clock.o(.ARM.exidx) refers to clock.o(i._ZN5Clock11viewAnClockEh) for i._ZN5Clock11viewAnClockEh
    clock.o(.ARM.exidx) refers to clock.o(i._ZN5Clock18viewCenterDigClockEcaa) for i._ZN5Clock18viewCenterDigClockEcaa
    clock.o(.ARM.exidx) refers to clock.o(i._ZN5Clock11viewAnTimerEhPaS0_Ph) for i._ZN5Clock11viewAnTimerEhPaS0_Ph
    clock.o(.ARM.exidx) refers to clock.o(i._ZN5Clock12viewDigClockEhh) for i._ZN5Clock12viewDigClockEhh
    clock.o(.ARM.exidx) refers to clock.o(i._ZN5Clock12viewDigTimerEhh) for i._ZN5Clock12viewDigTimerEhh
    clock.o(.ARM.exidx) refers to clock.o(i._ZN5Clock19viewGridClockMinuteEth) for i._ZN5Clock19viewGridClockMinuteEth
    clock.o(.ARM.exidx) refers to clock.o(i._ZN5Clock17viewGridClockHourEth) for i._ZN5Clock17viewGridClockHourEth
    clock.o(.ARM.exidx) refers to clock.o(i._ZN5Clock18clearGridClockHourEv) for i._ZN5Clock18clearGridClockHourEv
    clock.o(.ARM.exidx) refers to clock.o(i.__sti___9_clock_cpp_clock) for i.__sti___9_clock_cpp_clock
    clock.o(.init_array) refers to clock.o(i.__sti___9_clock_cpp_clock) for __sti___9_clock_cpp_clock
    clock.o(.init_array) refers to init_aeabi.o(.text) for __cpp_initialize__aeabi_
    core.o(i.SysTick_Handler) refers to core.o(i._ZN4Core7incTickEv) for Core::incTick()
    core.o(i.SysTick_Handler) refers to core.o(.bss) for core
    core.o(i._ZN4Core10initializeEv) refers to system_gd32f30x.o(i.SystemCoreClockUpdate) for SystemCoreClockUpdate
    core.o(i._ZN4Core10initializeEv) refers to core.o(i._Z18__NVIC_SetPriority4IRQnj) for __NVIC_SetPriority(IRQn, unsigned)
    core.o(i._ZN4Core10initializeEv) refers to gd32f30x_rcu.o(i._Z23rcu_periph_clock_enable15rcu_periph_enum) for rcu_periph_clock_enable(rcu_periph_enum)
    core.o(i._ZN4Core10initializeEv) refers to gd32f30x_timer.o(i._Z22timer_prescaler_configjth) for timer_prescaler_config(unsigned, unsigned short, unsigned char)
    core.o(i._ZN4Core10initializeEv) refers to gd32f30x_timer.o(i._Z29timer_autoreload_value_configjj) for timer_autoreload_value_config(unsigned, unsigned)
    core.o(i._ZN4Core10initializeEv) refers to gd32f30x_timer.o(i._Z12timer_enablej) for timer_enable(unsigned)
    core.o(i._ZN4Core10initializeEv) refers to system_gd32f30x.o(.data) for SystemCoreClock
    core.o(i._ZN4Core10remapTableEv) refers to gd32f30x_misc.o(i._Z21nvic_vector_table_setjj) for nvic_vector_table_set(unsigned, unsigned)
    core.o(i._ZN4Core7delayMsEj) refers to core.o(i._ZN4Core7getTickEv) for Core::getTick()
    core.o(i._ZN4Core7delayMsEj) refers to core.o(.bss) for core
    core.o(i._ZN4Core7delayUsEj) refers to gd32f30x_timer.o(i._Z13timer_disablej) for timer_disable(unsigned)
    core.o(i._ZN4Core7delayUsEj) refers to gd32f30x_timer.o(i._Z26timer_counter_value_configjj) for timer_counter_value_config(unsigned, unsigned)
    core.o(i._ZN4Core7delayUsEj) refers to gd32f30x_timer.o(i._Z30timer_single_pulse_mode_configjh) for timer_single_pulse_mode_config(unsigned, unsigned char)
    core.o(i._ZN4Core7delayUsEj) refers to gd32f30x_timer.o(i._Z12timer_enablej) for timer_enable(unsigned)
    core.o(i._ZN4Core7incTickEv) refers to sleep.o(.data) for sleep
    core.o(i._ZN4Core7incTickEv) refers to core.o(.data) for temperatureCount
    core.o(i._ZN4Core7incTickEv) refers to temperature.o(.bss) for temperature
    core.o(i.__sti___8_core_cpp_core) refers to core.o(i._ZN4CoreC1Ev) for Core::Core()
    core.o(i.__sti___8_core_cpp_core) refers to core.o(.bss) for core
    core.o(.ARM.exidx) refers to core.o(i._Z18__NVIC_SetPriority4IRQnj) for i._Z18__NVIC_SetPriority4IRQnj
    core.o(.ARM.exidx) refers to core.o(i._ZN4Core7incTickEv) for i._ZN4Core7incTickEv
    core.o(.ARM.exidx) refers to core.o(i.SysTick_Handler) for i.SysTick_Handler
    core.o(.ARM.exidx) refers to core.o(i.NMI_Handler) for i.NMI_Handler
    core.o(.ARM.exidx) refers to core.o(i.HardFault_Handler) for i.HardFault_Handler
    core.o(.ARM.exidx) refers to core.o(i._ZN4CoreC1Ev) for i._ZN4CoreC1Ev
    core.o(.ARM.exidx) refers to core.o(i._ZN4Core10initializeEv) for i._ZN4Core10initializeEv
    core.o(.ARM.exidx) refers to core.o(i._ZN4Core7delayUsEj) for i._ZN4Core7delayUsEj
    core.o(.ARM.exidx) refers to core.o(i._ZN4Core7getTickEv) for i._ZN4Core7getTickEv
    core.o(.ARM.exidx) refers to core.o(i._ZN4Core7delayMsEj) for i._ZN4Core7delayMsEj
    core.o(.ARM.exidx) refers to core.o(i._ZN4Core14protectedFlashEv) for i._ZN4Core14protectedFlashEv
    core.o(.ARM.exidx) refers to core.o(i._ZN4Core10remapTableEv) for i._ZN4Core10remapTableEv
    core.o(.ARM.exidx) refers to core.o(i._ZN4Core8setTimerEj) for i._ZN4Core8setTimerEj
    core.o(.ARM.exidx) refers to core.o(i._ZN4Core8getTimerEv) for i._ZN4Core8getTimerEv
    core.o(.ARM.exidx) refers to core.o(i._ZN4Core10resetTimerEv) for i._ZN4Core10resetTimerEv
    core.o(.ARM.exidx) refers to core.o(i._ZN4Core8celToFarEf) for i._ZN4Core8celToFarEf
    core.o(.ARM.exidx) refers to core.o(i._ZN4Core8farToCelEf) for i._ZN4Core8farToCelEf
    core.o(.ARM.exidx) refers to core.o(i._ZN4Core9packFloatEPhf) for i._ZN4Core9packFloatEPhf
    core.o(.ARM.exidx) refers to core.o(i._ZN4Core8getDeltaEss) for i._ZN4Core8getDeltaEss
    core.o(.ARM.exidx) refers to core.o(i._ZN4Core15paramToProtocolEPVhhS1_hjS1_) for i._ZN4Core15paramToProtocolEPVhhS1_hjS1_
    core.o(.ARM.exidx) refers to core.o(i.__sti___8_core_cpp_core) for i.__sti___8_core_cpp_core
    core.o(.init_array) refers to core.o(i.__sti___8_core_cpp_core) for __sti___8_core_cpp_core
    core.o(.init_array) refers to init_aeabi.o(.text) for __cpp_initialize__aeabi_
    canvas.o(i._ZN6Canvas10drawSliderEsshc) refers to canvas.o(i._ZN6Canvas13drawRoundRectEttttjjj) for Canvas::drawRoundRect(unsigned short, unsigned short, unsigned short, unsigned short, unsigned, unsigned, unsigned)
    canvas.o(i._ZN6Canvas10writeMinusEtt) refers to rt_memcpy_w.o(.text) for __aeabi_memcpy4
    canvas.o(i._ZN6Canvas10writeMinusEtt) refers to display.o(i._ZN7Display13setAddrWindowEtttt) for Display::setAddrWindow(unsigned short, unsigned short, unsigned short, unsigned short)
    canvas.o(i._ZN6Canvas10writeMinusEtt) refers to gd32f30x_gpio.o(i._Z14gpio_bit_resetjj) for gpio_bit_reset(unsigned, unsigned)
    canvas.o(i._ZN6Canvas10writeMinusEtt) refers to display.o(i._ZN7Display14writeColorFastEj) for Display::writeColorFast(unsigned)
    canvas.o(i._ZN6Canvas10writeMinusEtt) refers to gd32f30x_spi.o(i._Z16spi_i2s_flag_getjj) for spi_i2s_flag_get(unsigned, unsigned)
    canvas.o(i._ZN6Canvas10writeMinusEtt) refers to gd32f30x_gpio.o(i._Z12gpio_bit_setjj) for gpio_bit_set(unsigned, unsigned)
    canvas.o(i._ZN6Canvas10writeMinusEtt) refers to canvas.o(.constdata) for .constdata
    canvas.o(i._ZN6Canvas10writeMinusEtt) refers to display.o(.bss) for display
    canvas.o(i._ZN6Canvas10writePixelEssj) refers to display.o(i._ZN7Display13setAddrWindowEtttt) for Display::setAddrWindow(unsigned short, unsigned short, unsigned short, unsigned short)
    canvas.o(i._ZN6Canvas10writePixelEssj) refers to display.o(i._ZN7Display10writeColorEj) for Display::writeColor(unsigned)
    canvas.o(i._ZN6Canvas10writePixelEssj) refers to display.o(.bss) for display
    canvas.o(i._ZN6Canvas11rotateImageEttiii) refers to dflt_clz.o(x$fpl$dflt) for __aeabi_i2d
    canvas.o(i._ZN6Canvas11rotateImageEttiii) refers to ddiv.o(x$fpl$ddiv) for __aeabi_ddiv
    canvas.o(i._ZN6Canvas11rotateImageEttiii) refers to dmul.o(x$fpl$dmul) for __aeabi_dmul
    canvas.o(i._ZN6Canvas11rotateImageEttiii) refers to cos.o(i.__hardfp_cos) for __hardfp_cos
    canvas.o(i._ZN6Canvas11rotateImageEttiii) refers to sin.o(i.__hardfp_sin) for __hardfp_sin
    canvas.o(i._ZN6Canvas11rotateImageEttiii) refers to basic.o(x$fpl$basic) for __aeabi_dneg
    canvas.o(i._ZN6Canvas11rotateImageEttiii) refers to daddsub_clz.o(x$fpl$dadd) for __aeabi_dadd
    canvas.o(i._ZN6Canvas11rotateImageEttiii) refers to dfix.o(x$fpl$dfix) for __aeabi_d2iz
    canvas.o(i._ZN6Canvas11rotateImageEttiii) refers to canvas.o(i._ZN6Canvas10writePixelEssj) for Canvas::writePixel(short, short, unsigned)
    canvas.o(i._ZN6Canvas11rotateImageEttiii) refers to canvas.o(.bss) for canvas
    canvas.o(i._ZN6Canvas13drawRoundRectEttttj) refers to canvas.o(i._ZN6Canvas13writeFillRectEttttj) for Canvas::writeFillRect(unsigned short, unsigned short, unsigned short, unsigned short, unsigned)
    canvas.o(i._ZN6Canvas13drawRoundRectEttttjjj) refers to display.o(i._ZN7Display12writeCommandEh) for Display::writeCommand(unsigned char)
    canvas.o(i._ZN6Canvas13drawRoundRectEttttjjj) refers to display.o(i._ZN7Display9writeDataEh) for Display::writeData(unsigned char)
    canvas.o(i._ZN6Canvas13drawRoundRectEttttjjj) refers to gd32f30x_gpio.o(i._Z14gpio_bit_resetjj) for gpio_bit_reset(unsigned, unsigned)
    canvas.o(i._ZN6Canvas13drawRoundRectEttttjjj) refers to display.o(i._ZN7Display14writeColorFastEj) for Display::writeColorFast(unsigned)
    canvas.o(i._ZN6Canvas13drawRoundRectEttttjjj) refers to gd32f30x_spi.o(i._Z16spi_i2s_flag_getjj) for spi_i2s_flag_get(unsigned, unsigned)
    canvas.o(i._ZN6Canvas13drawRoundRectEttttjjj) refers to gd32f30x_gpio.o(i._Z12gpio_bit_setjj) for gpio_bit_set(unsigned, unsigned)
    canvas.o(i._ZN6Canvas13drawRoundRectEttttjjj) refers to display.o(.bss) for display
    canvas.o(i._ZN6Canvas13writeFillRectEttttj) refers to display.o(i._ZN7Display12writeCommandEh) for Display::writeCommand(unsigned char)
    canvas.o(i._ZN6Canvas13writeFillRectEttttj) refers to display.o(i._ZN7Display9writeDataEh) for Display::writeData(unsigned char)
    canvas.o(i._ZN6Canvas13writeFillRectEttttj) refers to gd32f30x_gpio.o(i._Z14gpio_bit_resetjj) for gpio_bit_reset(unsigned, unsigned)
    canvas.o(i._ZN6Canvas13writeFillRectEttttj) refers to display.o(i._ZN7Display14writeColorFastEj) for Display::writeColorFast(unsigned)
    canvas.o(i._ZN6Canvas13writeFillRectEttttj) refers to gd32f30x_spi.o(i._Z16spi_i2s_flag_getjj) for spi_i2s_flag_get(unsigned, unsigned)
    canvas.o(i._ZN6Canvas13writeFillRectEttttj) refers to gd32f30x_gpio.o(i._Z12gpio_bit_setjj) for gpio_bit_set(unsigned, unsigned)
    canvas.o(i._ZN6Canvas13writeFillRectEttttj) refers to display.o(.bss) for display
    canvas.o(i._ZN6Canvas14drawSliderSlimEsshbj) refers to canvas.o(i._ZN6Canvas13drawRoundRectEttttjjj) for Canvas::drawRoundRect(unsigned short, unsigned short, unsigned short, unsigned short, unsigned, unsigned, unsigned)
    canvas.o(i._ZN6Canvas14drawSliderSlimEsshbj) refers to canvas.o(i._ZN6Canvas13writeFillRectEttttj) for Canvas::writeFillRect(unsigned short, unsigned short, unsigned short, unsigned short, unsigned)
    canvas.o(i._ZN6Canvas14loadBackgroundEttttj) refers to memory.o(i._ZN6Memory8readPageEPhjj) for Memory::readPage(unsigned char*, unsigned, unsigned)
    canvas.o(i._ZN6Canvas14loadBackgroundEttttj) refers to display.o(i._ZN7Display13setAddrWindowEtttt) for Display::setAddrWindow(unsigned short, unsigned short, unsigned short, unsigned short)
    canvas.o(i._ZN6Canvas14loadBackgroundEttttj) refers to gd32f30x_gpio.o(i._Z14gpio_bit_resetjj) for gpio_bit_reset(unsigned, unsigned)
    canvas.o(i._ZN6Canvas14loadBackgroundEttttj) refers to memory.o(i._ZN6Memory7spiSendEh) for Memory::spiSend(unsigned char)
    canvas.o(i._ZN6Canvas14loadBackgroundEttttj) refers to gd32f30x_spi.o(i._Z16spi_i2s_flag_getjj) for spi_i2s_flag_get(unsigned, unsigned)
    canvas.o(i._ZN6Canvas14loadBackgroundEttttj) refers to gd32f30x_spi.o(i._Z21spi_i2s_data_transmitjt) for spi_i2s_data_transmit(unsigned, unsigned short)
    canvas.o(i._ZN6Canvas14loadBackgroundEttttj) refers to gd32f30x_gpio.o(i._Z12gpio_bit_setjj) for gpio_bit_set(unsigned, unsigned)
    canvas.o(i._ZN6Canvas14loadBackgroundEttttj) refers to memory.o(.bss) for memory
    canvas.o(i._ZN6Canvas14loadBackgroundEttttj) refers to display.o(.bss) for display
    canvas.o(i._ZN6Canvas14loadImageColorEttjj) refers to memory.o(i._ZN6Memory8readPageEPhjj) for Memory::readPage(unsigned char*, unsigned, unsigned)
    canvas.o(i._ZN6Canvas14loadImageColorEttjj) refers to display.o(i._ZN7Display13setAddrWindowEtttt) for Display::setAddrWindow(unsigned short, unsigned short, unsigned short, unsigned short)
    canvas.o(i._ZN6Canvas14loadImageColorEttjj) refers to gd32f30x_gpio.o(i._Z14gpio_bit_resetjj) for gpio_bit_reset(unsigned, unsigned)
    canvas.o(i._ZN6Canvas14loadImageColorEttjj) refers to memory.o(i._ZN6Memory11quadOutInitEv) for Memory::quadOutInit()
    canvas.o(i._ZN6Canvas14loadImageColorEttjj) refers to memory.o(i._ZN6Memory8quadSendEh) for Memory::quadSend(unsigned char)
    canvas.o(i._ZN6Canvas14loadImageColorEttjj) refers to memory.o(i._ZN6Memory10quadInInitEv) for Memory::quadInInit()
    canvas.o(i._ZN6Canvas14loadImageColorEttjj) refers to memory.o(i._ZN6Memory10quadReceivEv) for Memory::quadReceiv()
    canvas.o(i._ZN6Canvas14loadImageColorEttjj) refers to display.o(i._ZN7Display14writeColorFastEj) for Display::writeColorFast(unsigned)
    canvas.o(i._ZN6Canvas14loadImageColorEttjj) refers to gd32f30x_gpio.o(i._Z12gpio_bit_setjj) for gpio_bit_set(unsigned, unsigned)
    canvas.o(i._ZN6Canvas14loadImageColorEttjj) refers to gd32f30x_spi.o(i._Z16spi_i2s_flag_getjj) for spi_i2s_flag_get(unsigned, unsigned)
    canvas.o(i._ZN6Canvas14loadImageColorEttjj) refers to memory.o(.bss) for memory
    canvas.o(i._ZN6Canvas14loadImageColorEttjj) refers to display.o(.bss) for display
    canvas.o(i._ZN6Canvas14writePixelZoomEsshj) refers to display.o(i._ZN7Display13setAddrWindowEtttt) for Display::setAddrWindow(unsigned short, unsigned short, unsigned short, unsigned short)
    canvas.o(i._ZN6Canvas14writePixelZoomEsshj) refers to gd32f30x_gpio.o(i._Z14gpio_bit_resetjj) for gpio_bit_reset(unsigned, unsigned)
    canvas.o(i._ZN6Canvas14writePixelZoomEsshj) refers to display.o(i._ZN7Display14writeColorFastEj) for Display::writeColorFast(unsigned)
    canvas.o(i._ZN6Canvas14writePixelZoomEsshj) refers to gd32f30x_spi.o(i._Z16spi_i2s_flag_getjj) for spi_i2s_flag_get(unsigned, unsigned)
    canvas.o(i._ZN6Canvas14writePixelZoomEsshj) refers to gd32f30x_gpio.o(i._Z12gpio_bit_setjj) for gpio_bit_set(unsigned, unsigned)
    canvas.o(i._ZN6Canvas14writePixelZoomEsshj) refers to display.o(.bss) for display
    canvas.o(i._ZN6Canvas15loadImageEffectEttjjh) refers to memory.o(i._ZN6Memory8readPageEPhjj) for Memory::readPage(unsigned char*, unsigned, unsigned)
    canvas.o(i._ZN6Canvas15loadImageEffectEttjjh) refers to canvas.o(i._ZN6Canvas10writePixelEssj) for Canvas::writePixel(short, short, unsigned)
    canvas.o(i._ZN6Canvas15loadImageEffectEttjjh) refers to memory.o(.bss) for memory
    canvas.o(i._ZN6Canvas15loadImageEffectEttjjh) refers to canvas.o(.bss) for canvas
    canvas.o(i._ZN6Canvas15writePixelCountEssPjh) refers to display.o(i._ZN7Display13setAddrWindowEtttt) for Display::setAddrWindow(unsigned short, unsigned short, unsigned short, unsigned short)
    canvas.o(i._ZN6Canvas15writePixelCountEssPjh) refers to gd32f30x_gpio.o(i._Z14gpio_bit_resetjj) for gpio_bit_reset(unsigned, unsigned)
    canvas.o(i._ZN6Canvas15writePixelCountEssPjh) refers to display.o(i._ZN7Display14writeColorFastEj) for Display::writeColorFast(unsigned)
    canvas.o(i._ZN6Canvas15writePixelCountEssPjh) refers to gd32f30x_spi.o(i._Z16spi_i2s_flag_getjj) for spi_i2s_flag_get(unsigned, unsigned)
    canvas.o(i._ZN6Canvas15writePixelCountEssPjh) refers to gd32f30x_gpio.o(i._Z12gpio_bit_setjj) for gpio_bit_set(unsigned, unsigned)
    canvas.o(i._ZN6Canvas15writePixelCountEssPjh) refers to display.o(.bss) for display
    canvas.o(i._ZN6Canvas16drawSliderDoubleEsshhh) refers to canvas.o(i._ZN6Canvas13drawRoundRectEttttjjj) for Canvas::drawRoundRect(unsigned short, unsigned short, unsigned short, unsigned short, unsigned, unsigned, unsigned)
    canvas.o(i._ZN6Canvas16drawSliderDoubleEsshhh) refers to canvas.o(i._ZN6Canvas13writeFillRectEttttj) for Canvas::writeFillRect(unsigned short, unsigned short, unsigned short, unsigned short, unsigned)
    canvas.o(i._ZN6Canvas16loadImagePointerEttj) refers to memory.o(i._ZN6Memory8readPageEPhjj) for Memory::readPage(unsigned char*, unsigned, unsigned)
    canvas.o(i._ZN6Canvas16loadImagePointerEttj) refers to display.o(i._ZN7Display13setAddrWindowEtttt) for Display::setAddrWindow(unsigned short, unsigned short, unsigned short, unsigned short)
    canvas.o(i._ZN6Canvas16loadImagePointerEttj) refers to gd32f30x_gpio.o(i._Z14gpio_bit_resetjj) for gpio_bit_reset(unsigned, unsigned)
    canvas.o(i._ZN6Canvas16loadImagePointerEttj) refers to memory.o(i._ZN6Memory7spiSendEh) for Memory::spiSend(unsigned char)
    canvas.o(i._ZN6Canvas16loadImagePointerEttj) refers to gd32f30x_gpio.o(i._Z12gpio_bit_setjj) for gpio_bit_set(unsigned, unsigned)
    canvas.o(i._ZN6Canvas16loadImagePointerEttj) refers to canvas.o(i._ZN6Canvas10writePixelEssj) for Canvas::writePixel(short, short, unsigned)
    canvas.o(i._ZN6Canvas16loadImagePointerEttj) refers to canvas.o(.data) for f
    canvas.o(i._ZN6Canvas16loadImagePointerEttj) refers to memory.o(.bss) for memory
    canvas.o(i._ZN6Canvas16loadImagePointerEttj) refers to display.o(.bss) for display
    canvas.o(i._ZN6Canvas16loadImagePointerEttj) refers to canvas.o(.bss) for buf
    canvas.o(i._ZN6Canvas16writePixelDoubleEssjj) refers to display.o(i._ZN7Display13setAddrWindowEtttt) for Display::setAddrWindow(unsigned short, unsigned short, unsigned short, unsigned short)
    canvas.o(i._ZN6Canvas16writePixelDoubleEssjj) refers to gd32f30x_gpio.o(i._Z14gpio_bit_resetjj) for gpio_bit_reset(unsigned, unsigned)
    canvas.o(i._ZN6Canvas16writePixelDoubleEssjj) refers to display.o(i._ZN7Display14writeColorFastEj) for Display::writeColorFast(unsigned)
    canvas.o(i._ZN6Canvas16writePixelDoubleEssjj) refers to gd32f30x_spi.o(i._Z16spi_i2s_flag_getjj) for spi_i2s_flag_get(unsigned, unsigned)
    canvas.o(i._ZN6Canvas16writePixelDoubleEssjj) refers to gd32f30x_gpio.o(i._Z12gpio_bit_setjj) for gpio_bit_set(unsigned, unsigned)
    canvas.o(i._ZN6Canvas16writePixelDoubleEssjj) refers to display.o(.bss) for display
    canvas.o(i._ZN6Canvas18loadImageEffectRedEttjj) refers to memory.o(i._ZN6Memory8readPageEPhjj) for Memory::readPage(unsigned char*, unsigned, unsigned)
    canvas.o(i._ZN6Canvas18loadImageEffectRedEttjj) refers to canvas.o(i._ZN6Canvas10writePixelEssj) for Canvas::writePixel(short, short, unsigned)
    canvas.o(i._ZN6Canvas18loadImageEffectRedEttjj) refers to memory.o(.bss) for memory
    canvas.o(i._ZN6Canvas18loadImageEffectRedEttjj) refers to canvas.o(.bss) for canvas
    canvas.o(i._ZN6Canvas18loadImageOverColorEttjjhj) refers to memory.o(i._ZN6Memory8readPageEPhjj) for Memory::readPage(unsigned char*, unsigned, unsigned)
    canvas.o(i._ZN6Canvas18loadImageOverColorEttjjhj) refers to canvas.o(i._ZN6Canvas10writePixelEssj) for Canvas::writePixel(short, short, unsigned)
    canvas.o(i._ZN6Canvas18loadImageOverColorEttjjhj) refers to memory.o(.bss) for memory
    canvas.o(i._ZN6Canvas18loadImageOverColorEttjjhj) refers to canvas.o(.bss) for canvas
    canvas.o(i._ZN6Canvas19loadImageEffectBlueEttjj) refers to memory.o(i._ZN6Memory8readPageEPhjj) for Memory::readPage(unsigned char*, unsigned, unsigned)
    canvas.o(i._ZN6Canvas19loadImageEffectBlueEttjj) refers to dflt_clz.o(x$fpl$dfltu) for __aeabi_ui2d
    canvas.o(i._ZN6Canvas19loadImageEffectBlueEttjj) refers to ddiv.o(x$fpl$ddiv) for __aeabi_ddiv
    canvas.o(i._ZN6Canvas19loadImageEffectBlueEttjj) refers to dfixu.o(x$fpl$dfixu) for __aeabi_d2uiz
    canvas.o(i._ZN6Canvas19loadImageEffectBlueEttjj) refers to canvas.o(i._ZN6Canvas10writePixelEssj) for Canvas::writePixel(short, short, unsigned)
    canvas.o(i._ZN6Canvas19loadImageEffectBlueEttjj) refers to memory.o(.bss) for memory
    canvas.o(i._ZN6Canvas19loadImageEffectBlueEttjj) refers to canvas.o(.bss) for canvas
    canvas.o(i._ZN6Canvas19loadImageEffectGreyEttjj) refers to memory.o(i._ZN6Memory8readPageEPhjj) for Memory::readPage(unsigned char*, unsigned, unsigned)
    canvas.o(i._ZN6Canvas19loadImageEffectGreyEttjj) refers to canvas.o(i._ZN6Canvas10writePixelEssj) for Canvas::writePixel(short, short, unsigned)
    canvas.o(i._ZN6Canvas19loadImageEffectGreyEttjj) refers to memory.o(.bss) for memory
    canvas.o(i._ZN6Canvas19loadImageEffectGreyEttjj) refers to canvas.o(.bss) for canvas
    canvas.o(i._ZN6Canvas19loadImageEffectPolyEttjjh) refers to memory.o(i._ZN6Memory8readPageEPhjj) for Memory::readPage(unsigned char*, unsigned, unsigned)
    canvas.o(i._ZN6Canvas19loadImageEffectPolyEttjjh) refers to canvas.o(i._ZN6Canvas10writePixelEssj) for Canvas::writePixel(short, short, unsigned)
    canvas.o(i._ZN6Canvas19loadImageEffectPolyEttjjh) refers to memory.o(.bss) for memory
    canvas.o(i._ZN6Canvas19loadImageEffectPolyEttjjh) refers to canvas.o(.bss) for canvas
    canvas.o(i._ZN6Canvas19writeFillRectEffectEttttjj) refers to canvas.o(i._ZN6Canvas10writePixelEssj) for Canvas::writePixel(short, short, unsigned)
    canvas.o(i._ZN6Canvas19writeFillRectEffectEttttjj) refers to canvas.o(.bss) for canvas
    canvas.o(i._ZN6Canvas20drawImageEffectColorEttttjjj) refers to memory.o(i._ZN6Memory8readPageEPhjj) for Memory::readPage(unsigned char*, unsigned, unsigned)
    canvas.o(i._ZN6Canvas20drawImageEffectColorEttttjjj) refers to canvas.o(i._ZN6Canvas10writePixelEssj) for Canvas::writePixel(short, short, unsigned)
    canvas.o(i._ZN6Canvas20drawImageEffectColorEttttjjj) refers to memory.o(.bss) for memory
    canvas.o(i._ZN6Canvas20drawImageEffectColorEttttjjj) refers to canvas.o(.bss) for canvas
    canvas.o(i._ZN6Canvas20drawSliderSlimDoubleEsshhh) refers to canvas.o(i._ZN6Canvas13drawRoundRectEttttjjj) for Canvas::drawRoundRect(unsigned short, unsigned short, unsigned short, unsigned short, unsigned, unsigned, unsigned)
    canvas.o(i._ZN6Canvas20drawSliderSlimDoubleEsshhh) refers to canvas.o(i._ZN6Canvas13writeFillRectEttttj) for Canvas::writeFillRect(unsigned short, unsigned short, unsigned short, unsigned short, unsigned)
    canvas.o(i._ZN6Canvas20loadBackgroundInvertEttttj) refers to memory.o(i._ZN6Memory8readPageEPhjj) for Memory::readPage(unsigned char*, unsigned, unsigned)
    canvas.o(i._ZN6Canvas20loadBackgroundInvertEttttj) refers to display.o(i._ZN7Display13setAddrWindowEtttt) for Display::setAddrWindow(unsigned short, unsigned short, unsigned short, unsigned short)
    canvas.o(i._ZN6Canvas20loadBackgroundInvertEttttj) refers to gd32f30x_gpio.o(i._Z14gpio_bit_resetjj) for gpio_bit_reset(unsigned, unsigned)
    canvas.o(i._ZN6Canvas20loadBackgroundInvertEttttj) refers to memory.o(i._ZN6Memory7spiSendEh) for Memory::spiSend(unsigned char)
    canvas.o(i._ZN6Canvas20loadBackgroundInvertEttttj) refers to gd32f30x_spi.o(i._Z16spi_i2s_flag_getjj) for spi_i2s_flag_get(unsigned, unsigned)
    canvas.o(i._ZN6Canvas20loadBackgroundInvertEttttj) refers to gd32f30x_spi.o(i._Z21spi_i2s_data_transmitjt) for spi_i2s_data_transmit(unsigned, unsigned short)
    canvas.o(i._ZN6Canvas20loadBackgroundInvertEttttj) refers to gd32f30x_gpio.o(i._Z12gpio_bit_setjj) for gpio_bit_set(unsigned, unsigned)
    canvas.o(i._ZN6Canvas20loadBackgroundInvertEttttj) refers to memory.o(.bss) for memory
    canvas.o(i._ZN6Canvas20loadBackgroundInvertEttttj) refers to display.o(.bss) for display
    canvas.o(i._ZN6Canvas20loadImageEffectColorEttjjj) refers to memory.o(i._ZN6Memory8readPageEPhjj) for Memory::readPage(unsigned char*, unsigned, unsigned)
    canvas.o(i._ZN6Canvas20loadImageEffectColorEttjjj) refers to canvas.o(i._ZN6Canvas10writePixelEssj) for Canvas::writePixel(short, short, unsigned)
    canvas.o(i._ZN6Canvas20loadImageEffectColorEttjjj) refers to memory.o(.bss) for memory
    canvas.o(i._ZN6Canvas20loadImageEffectColorEttjjj) refers to canvas.o(.bss) for canvas
    canvas.o(i._ZN6Canvas21loadImageEffectInvertEttjj) refers to memory.o(i._ZN6Memory8readPageEPhjj) for Memory::readPage(unsigned char*, unsigned, unsigned)
    canvas.o(i._ZN6Canvas21loadImageEffectInvertEttjj) refers to canvas.o(i._ZN6Canvas10writePixelEssj) for Canvas::writePixel(short, short, unsigned)
    canvas.o(i._ZN6Canvas21loadImageEffectInvertEttjj) refers to memory.o(.bss) for memory
    canvas.o(i._ZN6Canvas21loadImageEffectInvertEttjj) refers to canvas.o(.bss) for canvas
    canvas.o(i._ZN6Canvas23writeFillRectEffectPolyEttttjj) refers to canvas.o(i._ZN6Canvas10writePixelEssj) for Canvas::writePixel(short, short, unsigned)
    canvas.o(i._ZN6Canvas23writeFillRectEffectPolyEttttjj) refers to canvas.o(.bss) for canvas
    canvas.o(i._ZN6Canvas8clearDotEttcc) refers to display.o(i._ZN7Display13setAddrWindowEtttt) for Display::setAddrWindow(unsigned short, unsigned short, unsigned short, unsigned short)
    canvas.o(i._ZN6Canvas8clearDotEttcc) refers to gd32f30x_gpio.o(i._Z14gpio_bit_resetjj) for gpio_bit_reset(unsigned, unsigned)
    canvas.o(i._ZN6Canvas8clearDotEttcc) refers to display.o(i._ZN7Display14writeColorFastEj) for Display::writeColorFast(unsigned)
    canvas.o(i._ZN6Canvas8clearDotEttcc) refers to gd32f30x_spi.o(i._Z16spi_i2s_flag_getjj) for spi_i2s_flag_get(unsigned, unsigned)
    canvas.o(i._ZN6Canvas8clearDotEttcc) refers to gd32f30x_gpio.o(i._Z12gpio_bit_setjj) for gpio_bit_set(unsigned, unsigned)
    canvas.o(i._ZN6Canvas8clearDotEttcc) refers to display.o(.bss) for display
    canvas.o(i._ZN6Canvas8writeDotEttcc) refers to display.o(i._ZN7Display13setAddrWindowEtttt) for Display::setAddrWindow(unsigned short, unsigned short, unsigned short, unsigned short)
    canvas.o(i._ZN6Canvas8writeDotEttcc) refers to gd32f30x_gpio.o(i._Z14gpio_bit_resetjj) for gpio_bit_reset(unsigned, unsigned)
    canvas.o(i._ZN6Canvas8writeDotEttcc) refers to display.o(i._ZN7Display14writeColorFastEj) for Display::writeColorFast(unsigned)
    canvas.o(i._ZN6Canvas8writeDotEttcc) refers to gd32f30x_spi.o(i._Z16spi_i2s_flag_getjj) for spi_i2s_flag_get(unsigned, unsigned)
    canvas.o(i._ZN6Canvas8writeDotEttcc) refers to gd32f30x_gpio.o(i._Z12gpio_bit_setjj) for gpio_bit_set(unsigned, unsigned)
    canvas.o(i._ZN6Canvas8writeDotEttcc) refers to display.o(.bss) for display
    canvas.o(i._ZN6Canvas9loadImageEttj) refers to memory.o(i._ZN6Memory8readPageEPhjj) for Memory::readPage(unsigned char*, unsigned, unsigned)
    canvas.o(i._ZN6Canvas9loadImageEttj) refers to display.o(i._ZN7Display13setAddrWindowEtttt) for Display::setAddrWindow(unsigned short, unsigned short, unsigned short, unsigned short)
    canvas.o(i._ZN6Canvas9loadImageEttj) refers to gd32f30x_gpio.o(i._Z14gpio_bit_resetjj) for gpio_bit_reset(unsigned, unsigned)
    canvas.o(i._ZN6Canvas9loadImageEttj) refers to memory.o(i._ZN6Memory11quadOutInitEv) for Memory::quadOutInit()
    canvas.o(i._ZN6Canvas9loadImageEttj) refers to memory.o(i._ZN6Memory8quadSendEh) for Memory::quadSend(unsigned char)
    canvas.o(i._ZN6Canvas9loadImageEttj) refers to memory.o(i._ZN6Memory10quadInInitEv) for Memory::quadInInit()
    canvas.o(i._ZN6Canvas9loadImageEttj) refers to memory.o(i._ZN6Memory10quadReceivEv) for Memory::quadReceiv()
    canvas.o(i._ZN6Canvas9loadImageEttj) refers to display.o(i._ZN7Display14writeColorFastEj) for Display::writeColorFast(unsigned)
    canvas.o(i._ZN6Canvas9loadImageEttj) refers to gd32f30x_gpio.o(i._Z12gpio_bit_setjj) for gpio_bit_set(unsigned, unsigned)
    canvas.o(i._ZN6Canvas9loadImageEttj) refers to gd32f30x_spi.o(i._Z16spi_i2s_flag_getjj) for spi_i2s_flag_get(unsigned, unsigned)
    canvas.o(i._ZN6Canvas9loadImageEttj) refers to memory.o(.bss) for memory
    canvas.o(i._ZN6Canvas9loadImageEttj) refers to display.o(.bss) for display
    canvas.o(i._ZN6Canvas9writePlusEtt) refers to rt_memcpy_w.o(.text) for __aeabi_memcpy4
    canvas.o(i._ZN6Canvas9writePlusEtt) refers to display.o(i._ZN7Display13setAddrWindowEtttt) for Display::setAddrWindow(unsigned short, unsigned short, unsigned short, unsigned short)
    canvas.o(i._ZN6Canvas9writePlusEtt) refers to gd32f30x_gpio.o(i._Z14gpio_bit_resetjj) for gpio_bit_reset(unsigned, unsigned)
    canvas.o(i._ZN6Canvas9writePlusEtt) refers to display.o(i._ZN7Display14writeColorFastEj) for Display::writeColorFast(unsigned)
    canvas.o(i._ZN6Canvas9writePlusEtt) refers to gd32f30x_spi.o(i._Z16spi_i2s_flag_getjj) for spi_i2s_flag_get(unsigned, unsigned)
    canvas.o(i._ZN6Canvas9writePlusEtt) refers to gd32f30x_gpio.o(i._Z12gpio_bit_setjj) for gpio_bit_set(unsigned, unsigned)
    canvas.o(i._ZN6Canvas9writePlusEtt) refers to canvas.o(.constdata) for .constdata
    canvas.o(i._ZN6Canvas9writePlusEtt) refers to display.o(.bss) for display
    canvas.o(i.__sti___10_canvas_cpp_canvas) refers to canvas.o(i._ZN6CanvasC1Ev) for Canvas::Canvas()
    canvas.o(i.__sti___10_canvas_cpp_canvas) refers to canvas.o(.bss) for canvas
    canvas.o(.ARM.exidx) refers to canvas.o(i._ZN6CanvasC1Ev) for i._ZN6CanvasC1Ev
    canvas.o(.ARM.exidx) refers to canvas.o(i._ZN6Canvas10writePixelEssj) for i._ZN6Canvas10writePixelEssj
    canvas.o(.ARM.exidx) refers to canvas.o(i._ZN6Canvas14writePixelZoomEsshj) for i._ZN6Canvas14writePixelZoomEsshj
    canvas.o(.ARM.exidx) refers to canvas.o(i._ZN6Canvas16writePixelDoubleEssjj) for i._ZN6Canvas16writePixelDoubleEssjj
    canvas.o(.ARM.exidx) refers to canvas.o(i._ZN6Canvas15writePixelCountEssPjh) for i._ZN6Canvas15writePixelCountEssPjh
    canvas.o(.ARM.exidx) refers to canvas.o(i._ZN6Canvas13writeFillRectEttttj) for i._ZN6Canvas13writeFillRectEttttj
    canvas.o(.ARM.exidx) refers to canvas.o(i._ZN6Canvas23writeFillRectEffectPolyEttttjj) for i._ZN6Canvas23writeFillRectEffectPolyEttttjj
    canvas.o(.ARM.exidx) refers to canvas.o(i._ZN6Canvas19writeFillRectEffectEttttjj) for i._ZN6Canvas19writeFillRectEffectEttttjj
    canvas.o(.ARM.exidx) refers to canvas.o(i._ZN6Canvas13drawRoundRectEttttjjj) for i._ZN6Canvas13drawRoundRectEttttjjj
    canvas.o(.ARM.exidx) refers to canvas.o(i._ZN6Canvas10drawSliderEsshc) for i._ZN6Canvas10drawSliderEsshc
    canvas.o(.ARM.exidx) refers to canvas.o(i._ZN6Canvas14drawSliderSlimEsshbj) for i._ZN6Canvas14drawSliderSlimEsshbj
    canvas.o(.ARM.exidx) refers to canvas.o(i._ZN6Canvas20drawSliderSlimDoubleEsshhh) for i._ZN6Canvas20drawSliderSlimDoubleEsshhh
    canvas.o(.ARM.exidx) refers to canvas.o(i._ZN6Canvas16drawSliderDoubleEsshhh) for i._ZN6Canvas16drawSliderDoubleEsshhh
    canvas.o(.ARM.exidx) refers to canvas.o(i._ZN6Canvas9loadImageEttj) for i._ZN6Canvas9loadImageEttj
    canvas.o(.ARM.exidx) refers to canvas.o(i._ZN6Canvas16loadImagePointerEttj) for i._ZN6Canvas16loadImagePointerEttj
    canvas.o(.ARM.exidx) refers to canvas.o(i._ZN6Canvas14loadBackgroundEttttj) for i._ZN6Canvas14loadBackgroundEttttj
    canvas.o(.ARM.exidx) refers to canvas.o(i._ZN6Canvas20loadBackgroundInvertEttttj) for i._ZN6Canvas20loadBackgroundInvertEttttj
    canvas.o(.ARM.exidx) refers to canvas.o(i._ZN6Canvas19loadImageEffectPolyEttjjh) for i._ZN6Canvas19loadImageEffectPolyEttjjh
    canvas.o(.ARM.exidx) refers to canvas.o(i._ZN6Canvas15loadImageEffectEttjjh) for i._ZN6Canvas15loadImageEffectEttjjh
    canvas.o(.ARM.exidx) refers to canvas.o(i._ZN6Canvas14loadImageColorEttjj) for i._ZN6Canvas14loadImageColorEttjj
    canvas.o(.ARM.exidx) refers to canvas.o(i._ZN6Canvas18loadImageOverColorEttjjhj) for i._ZN6Canvas18loadImageOverColorEttjjhj
    canvas.o(.ARM.exidx) refers to canvas.o(i._ZN6Canvas21loadImageEffectInvertEttjj) for i._ZN6Canvas21loadImageEffectInvertEttjj
    canvas.o(.ARM.exidx) refers to canvas.o(i._ZN6Canvas18loadImageEffectRedEttjj) for i._ZN6Canvas18loadImageEffectRedEttjj
    canvas.o(.ARM.exidx) refers to canvas.o(i._ZN6Canvas19loadImageEffectBlueEttjj) for i._ZN6Canvas19loadImageEffectBlueEttjj
    canvas.o(.ARM.exidx) refers to canvas.o(i._ZN6Canvas19loadImageEffectGreyEttjj) for i._ZN6Canvas19loadImageEffectGreyEttjj
    canvas.o(.ARM.exidx) refers to canvas.o(i._ZN6Canvas20loadImageEffectColorEttjjj) for i._ZN6Canvas20loadImageEffectColorEttjjj
    canvas.o(.ARM.exidx) refers to canvas.o(i._ZN6Canvas20drawImageEffectColorEttttjjj) for i._ZN6Canvas20drawImageEffectColorEttttjjj
    canvas.o(.ARM.exidx) refers to canvas.o(i._ZN6Canvas11rotateImageEttiii) for i._ZN6Canvas11rotateImageEttiii
    canvas.o(.ARM.exidx) refers to canvas.o(i._ZN6Canvas8writeDotEttcc) for i._ZN6Canvas8writeDotEttcc
    canvas.o(.ARM.exidx) refers to canvas.o(i._ZN6Canvas8clearDotEttcc) for i._ZN6Canvas8clearDotEttcc
    canvas.o(.ARM.exidx) refers to canvas.o(i._ZN6Canvas13drawRoundRectEttttj) for i._ZN6Canvas13drawRoundRectEttttj
    canvas.o(.ARM.exidx) refers to canvas.o(i._ZN6Canvas10writeMinusEtt) for i._ZN6Canvas10writeMinusEtt
    canvas.o(.ARM.exidx) refers to canvas.o(i._ZN6Canvas9writePlusEtt) for i._ZN6Canvas9writePlusEtt
    canvas.o(.ARM.exidx) refers to canvas.o(i.__sti___10_canvas_cpp_canvas) for i.__sti___10_canvas_cpp_canvas
    canvas.o(.init_array) refers to canvas.o(i.__sti___10_canvas_cpp_canvas) for __sti___10_canvas_cpp_canvas
    canvas.o(.init_array) refers to init_aeabi.o(.text) for __cpp_initialize__aeabi_
    can.o(i.CAN0_RX1_IRQHandler) refers to gd32f30x_can.o(i._Z22can_interrupt_flag_getj23can_interrupt_flag_enum) for can_interrupt_flag_get(unsigned, can_interrupt_flag_enum)
    can.o(i.CAN0_RX1_IRQHandler) refers to gd32f30x_can.o(i._Z19can_message_receivejhP26can_receive_message_struct) for can_message_receive(unsigned, unsigned char, can_receive_message_struct*)
    can.o(i.CAN0_RX1_IRQHandler) refers to can.o(i._ZN3Can11SaveMessageEv) for Can::SaveMessage()
    can.o(i.CAN0_RX1_IRQHandler) refers to gd32f30x_can.o(i._Z24can_interrupt_flag_clearj23can_interrupt_flag_enum) for can_interrupt_flag_clear(unsigned, can_interrupt_flag_enum)
    can.o(i.CAN0_RX1_IRQHandler) refers to can.o(.bss) for can
    can.o(i._Z12ConfigFilterjh) refers to gd32f30x_can.o(i._Z20can_struct_para_init20can_struct_type_enumPv) for can_struct_para_init(can_struct_type_enum, void*)
    can.o(i._Z12ConfigFilterjh) refers to gd32f30x_can.o(i._Z15can_filter_initP27can_filter_parameter_struct) for can_filter_init(can_filter_parameter_struct*)
    can.o(i._ZN3Can10initializeEv) refers to gd32f30x_rcu.o(i._Z23rcu_periph_clock_enable15rcu_periph_enum) for rcu_periph_clock_enable(rcu_periph_enum)
    can.o(i._ZN3Can10initializeEv) refers to gd32f30x_can.o(i._Z10can_deinitj) for can_deinit(unsigned)
    can.o(i._ZN3Can10initializeEv) refers to gd32f30x_gpio.o(i._Z9gpio_initjjjj) for gpio_init(unsigned, unsigned, unsigned, unsigned)
    can.o(i._ZN3Can10initializeEv) refers to gd32f30x_gpio.o(i._Z14gpio_bit_resetjj) for gpio_bit_reset(unsigned, unsigned)
    can.o(i._ZN3Can10initializeEv) refers to gd32f30x_can.o(i._Z20can_struct_para_init20can_struct_type_enumPv) for can_struct_para_init(can_struct_type_enum, void*)
    can.o(i._ZN3Can10initializeEv) refers to dflt_clz.o(x$fpl$dflt) for __aeabi_i2d
    can.o(i._ZN3Can10initializeEv) refers to dmul.o(x$fpl$dmul) for __aeabi_dmul
    can.o(i._ZN3Can10initializeEv) refers to dfixu.o(x$fpl$dfixu) for __aeabi_d2uiz
    can.o(i._ZN3Can10initializeEv) refers to gd32f30x_can.o(i._Z8can_initjP20can_parameter_struct) for can_init(unsigned, can_parameter_struct*)
    can.o(i._ZN3Can10initializeEv) refers to can.o(i._Z12ConfigFilterjh) for ConfigFilter(unsigned, unsigned char)
    can.o(i._ZN3Can10initializeEv) refers to gd32f30x_can.o(i._Z20can_interrupt_enablejj) for can_interrupt_enable(unsigned, unsigned)
    can.o(i._ZN3Can10initializeEv) refers to gd32f30x_misc.o(i._Z15nvic_irq_enablehhh) for nvic_irq_enable(unsigned char, unsigned char, unsigned char)
    can.o(i._ZN3Can11SaveMessageEv) refers to rt_memcpy_w.o(.text) for __aeabi_memcpy4
    can.o(i._ZN3Can7handlerEv) refers to cxa_guard_acquire.o(i.__cxa_guard_acquire) for __cxa_guard_acquire
    can.o(i._ZN3Can7handlerEv) refers to core.o(i._ZN4Core7getTickEv) for Core::getTick()
    can.o(i._ZN3Can7handlerEv) refers to gd32f30x_can.o(i._Z20can_message_transmitjP27can_trasnmit_message_struct) for can_message_transmit(unsigned, can_trasnmit_message_struct*)
    can.o(i._ZN3Can7handlerEv) refers to can.o(i._ZN3Can10initializeEv) for Can::initialize()
    can.o(i._ZN3Can7handlerEv) refers to can.o(.data) for _ZGVtimer
    can.o(i._ZN3Can7handlerEv) refers to core.o(.bss) for core
    can.o(i.__sti___7_can_cpp_can) refers to can.o(i._ZN3CanC1Ev) for Can::Can()
    can.o(i.__sti___7_can_cpp_can) refers to can.o(.bss) for can
    can.o(.ARM.exidx) refers to can.o(i._Z12ConfigFilterjh) for i._Z12ConfigFilterjh
    can.o(.ARM.exidx) refers to can.o(i._ZN3Can11SaveMessageEv) for i._ZN3Can11SaveMessageEv
    can.o(.ARM.exidx) refers to can.o(i.CAN0_RX1_IRQHandler) for i.CAN0_RX1_IRQHandler
    can.o(.ARM.exidx) refers to can.o(i._ZN3CanC1Ev) for i._ZN3CanC1Ev
    can.o(.ARM.exidx) refers to can.o(i._ZN3Can10initializeEv) for i._ZN3Can10initializeEv
    can.o(.ARM.exidx) refers to can.o(i._ZN3Can7handlerEv) for i._ZN3Can7handlerEv
    can.o(.ARM.exidx) refers to can.o(i._ZN3Can11ClearFaultsEv) for i._ZN3Can11ClearFaultsEv
    can.o(.ARM.exidx) refers to can.o(i._ZN3Can11SendMessageEjhhhhhhhh) for i._ZN3Can11SendMessageEjhhhhhhhh
    can.o(.ARM.exidx) refers to can.o(i.__sti___7_can_cpp_can) for i.__sti___7_can_cpp_can
    can.o(.init_array) refers to can.o(i.__sti___7_can_cpp_can) for __sti___7_can_cpp_can
    can.o(.init_array) refers to init_aeabi.o(.text) for __cpp_initialize__aeabi_
    rvc.o(i._ZN9RVCModule14ProcessMessageEh) refers to core.o(i._ZN4Core7getTickEv) for Core::getTick()
    rvc.o(i._ZN9RVCModule14ProcessMessageEh) refers to dflt_clz.o(x$fpl$dfltu) for __aeabi_ui2d
    rvc.o(i._ZN9RVCModule14ProcessMessageEh) refers to ddiv.o(x$fpl$ddiv) for __aeabi_ddiv
    rvc.o(i._ZN9RVCModule14ProcessMessageEh) refers to daddsub_clz.o(x$fpl$dsub) for __aeabi_dsub
    rvc.o(i._ZN9RVCModule14ProcessMessageEh) refers to d2f.o(x$fpl$d2f) for __aeabi_d2f
    rvc.o(i._ZN9RVCModule14ProcessMessageEh) refers to core.o(i._ZN4Core8celToFarEf) for Core::celToFar(float)
    rvc.o(i._ZN9RVCModule14ProcessMessageEh) refers to f2d.o(x$fpl$f2d) for __aeabi_f2d
    rvc.o(i._ZN9RVCModule14ProcessMessageEh) refers to dfixu.o(x$fpl$dfixu) for __aeabi_d2uiz
    rvc.o(i._ZN9RVCModule14ProcessMessageEh) refers to daddsub_clz.o(x$fpl$dadd) for __aeabi_dadd
    rvc.o(i._ZN9RVCModule14ProcessMessageEh) refers to can.o(.bss) for can
    rvc.o(i._ZN9RVCModule14ProcessMessageEh) refers to core.o(.bss) for core
    rvc.o(i._ZN9RVCModule14ProcessMessageEh) refers to hcu.o(.bss) for hcu
    rvc.o(i._ZN9RVCModule14ProcessMessageEh) refers to system.o(.bss) for air
    rvc.o(i._ZN9RVCModule14ProcessMessageEh) refers to display.o(.bss) for display
    rvc.o(i._ZN9RVCModule14ProcessMessageEh) refers to slider.o(i._ZN6Slider11setPositionEs) for Slider::setPosition(short)
    rvc.o(i._ZN9RVCModule14ProcessMessageEh) refers to slider.o(.bss) for slider
    rvc.o(i._ZN9RVCModule15TransmitMessageEv) refers to cxa_guard_acquire.o(i.__cxa_guard_acquire) for __cxa_guard_acquire
    rvc.o(i._ZN9RVCModule15TransmitMessageEv) refers to core.o(i._ZN4Core7getTickEv) for Core::getTick()
    rvc.o(i._ZN9RVCModule15TransmitMessageEv) refers to pgn_rvc.o(i._ZN11CAN_PGN_RVC10msgFurnaceEv) for CAN_PGN_RVC::msgFurnace()
    rvc.o(i._ZN9RVCModule15TransmitMessageEv) refers to pgn_rvc.o(i._ZN11CAN_PGN_RVC14msgWaterHeaterEv) for CAN_PGN_RVC::msgWaterHeater()
    rvc.o(i._ZN9RVCModule15TransmitMessageEv) refers to pgn_rvc.o(i._ZN11CAN_PGN_RVC15msgWaterHeater2Ev) for CAN_PGN_RVC::msgWaterHeater2()
    rvc.o(i._ZN9RVCModule15TransmitMessageEv) refers to pgn_rvc.o(i._ZN11CAN_PGN_RVC14msgThermostat1Ev) for CAN_PGN_RVC::msgThermostat1()
    rvc.o(i._ZN9RVCModule15TransmitMessageEv) refers to pgn_rvc.o(i._ZN11CAN_PGN_RVC14msgThermostat2Ev) for CAN_PGN_RVC::msgThermostat2()
    rvc.o(i._ZN9RVCModule15TransmitMessageEv) refers to pgn_rvc.o(i._ZN11CAN_PGN_RVC22msgThermostatSchedule1Eh) for CAN_PGN_RVC::msgThermostatSchedule1(unsigned char)
    rvc.o(i._ZN9RVCModule15TransmitMessageEv) refers to pgn_rvc.o(i._ZN11CAN_PGN_RVC24msgCirculationPumpStatusEv) for CAN_PGN_RVC::msgCirculationPumpStatus()
    rvc.o(i._ZN9RVCModule15TransmitMessageEv) refers to pgn_rvc.o(i._ZN11CAN_PGN_RVC14msgAmbientTempEv) for CAN_PGN_RVC::msgAmbientTemp()
    rvc.o(i._ZN9RVCModule15TransmitMessageEv) refers to pgn_rvc.o(i._ZN11CAN_PGN_RVC13msgExtMessageEv) for CAN_PGN_RVC::msgExtMessage()
    rvc.o(i._ZN9RVCModule15TransmitMessageEv) refers to pgn_rvc.o(i._ZN11CAN_PGN_RVC9msgTimersEv) for CAN_PGN_RVC::msgTimers()
    rvc.o(i._ZN9RVCModule15TransmitMessageEv) refers to pgn_rvc.o(i._ZN11CAN_PGN_RVC20msgDiagnosticMessageEv) for CAN_PGN_RVC::msgDiagnosticMessage()
    rvc.o(i._ZN9RVCModule15TransmitMessageEv) refers to pgn_rvc.o(i._ZN11CAN_PGN_RVC13msgHeaterInfoEv) for CAN_PGN_RVC::msgHeaterInfo()
    rvc.o(i._ZN9RVCModule15TransmitMessageEv) refers to rvc.o(.data) for _ZGVlastMsgSendTick1
    rvc.o(i._ZN9RVCModule15TransmitMessageEv) refers to core.o(.bss) for core
    rvc.o(i._ZN9RVCModule15TransmitMessageEv) refers to pgn_rvc.o(.bss) for canPGNRVC
    rvc.o(i._ZN9RVCModule7handlerEv) refers to rvc.o(i._ZN9RVCModule15TransmitMessageEv) for RVCModule::TransmitMessage()
    rvc.o(i._ZN9RVCModule7handlerEv) refers to rvc.o(i._ZN9RVCModule14ProcessMessageEh) for RVCModule::ProcessMessage(unsigned char)
    rvc.o(i._ZN9RVCModule7handlerEv) refers to core.o(i._ZN4Core8farToCelEf) for Core::farToCel(float)
    rvc.o(i._ZN9RVCModule7handlerEv) refers to pgn_rvc.o(i._ZN11CAN_PGN_RVC24msgCirculationPumpStatusEv) for CAN_PGN_RVC::msgCirculationPumpStatus()
    rvc.o(i._ZN9RVCModule7handlerEv) refers to pgn_rvc.o(i._ZN11CAN_PGN_RVC14msgWaterHeaterEv) for CAN_PGN_RVC::msgWaterHeater()
    rvc.o(i._ZN9RVCModule7handlerEv) refers to pgn_rvc.o(i._ZN11CAN_PGN_RVC15msgWaterHeater2Ev) for CAN_PGN_RVC::msgWaterHeater2()
    rvc.o(i._ZN9RVCModule7handlerEv) refers to pgn_rvc.o(i._ZN11CAN_PGN_RVC20msgDiagnosticMessageEv) for CAN_PGN_RVC::msgDiagnosticMessage()
    rvc.o(i._ZN9RVCModule7handlerEv) refers to pgn_rvc.o(i._ZN11CAN_PGN_RVC10msgFurnaceEv) for CAN_PGN_RVC::msgFurnace()
    rvc.o(i._ZN9RVCModule7handlerEv) refers to pgn_rvc.o(i._ZN11CAN_PGN_RVC14msgThermostat1Ev) for CAN_PGN_RVC::msgThermostat1()
    rvc.o(i._ZN9RVCModule7handlerEv) refers to pgn_rvc.o(i._ZN11CAN_PGN_RVC14msgThermostat2Ev) for CAN_PGN_RVC::msgThermostat2()
    rvc.o(i._ZN9RVCModule7handlerEv) refers to pgn_rvc.o(i._ZN11CAN_PGN_RVC22msgThermostatSchedule1Eh) for CAN_PGN_RVC::msgThermostatSchedule1(unsigned char)
    rvc.o(i._ZN9RVCModule7handlerEv) refers to pgn_rvc.o(i._ZN11CAN_PGN_RVC13msgExtMessageEv) for CAN_PGN_RVC::msgExtMessage()
    rvc.o(i._ZN9RVCModule7handlerEv) refers to can.o(.bss) for can
    rvc.o(i._ZN9RVCModule7handlerEv) refers to hcu.o(.bss) for hcu
    rvc.o(i._ZN9RVCModule7handlerEv) refers to system.o(.bss) for air
    rvc.o(i._ZN9RVCModule7handlerEv) refers to display.o(.bss) for display
    rvc.o(i._ZN9RVCModule7handlerEv) refers to core.o(.bss) for core
    rvc.o(i._ZN9RVCModule7handlerEv) refers to temperature.o(.bss) for temperature
    rvc.o(i._ZN9RVCModule7handlerEv) refers to pgn_rvc.o(.bss) for canPGNRVC
    rvc.o(i.__sti___7_rvc_cpp_rvc) refers to rvc.o(i._ZN9RVCModuleC1Ev) for RVCModule::RVCModule()
    rvc.o(i.__sti___7_rvc_cpp_rvc) refers to rvc.o(.bss) for rvc
    rvc.o(.ARM.exidx) refers to rvc.o(i._ZN9RVCModuleC1Ev) for i._ZN9RVCModuleC1Ev
    rvc.o(.ARM.exidx) refers to rvc.o(i._ZN9RVCModule14ProcessMessageEh) for i._ZN9RVCModule14ProcessMessageEh
    rvc.o(.ARM.exidx) refers to rvc.o(i._ZN9RVCModule15TransmitMessageEv) for i._ZN9RVCModule15TransmitMessageEv
    rvc.o(.ARM.exidx) refers to rvc.o(i._ZN9RVCModule7handlerEv) for i._ZN9RVCModule7handlerEv
    rvc.o(.ARM.exidx) refers to rvc.o(i.__sti___7_rvc_cpp_rvc) for i.__sti___7_rvc_cpp_rvc
    rvc.o(.init_array) refers to rvc.o(i.__sti___7_rvc_cpp_rvc) for __sti___7_rvc_cpp_rvc
    rvc.o(.init_array) refers to init_aeabi.o(.text) for __cpp_initialize__aeabi_
    pgn_rvc.o(i._ZN11CAN_PGN_RVC10msgFurnaceEv) refers to pgn_rvc.o(i._ZN11CAN_PGN_RVC11generateAIDEhjh) for CAN_PGN_RVC::generateAID(unsigned char, unsigned, unsigned char)
    pgn_rvc.o(i._ZN11CAN_PGN_RVC10msgFurnaceEv) refers to can.o(i._ZN3Can11SendMessageEjhhhhhhhh) for Can::SendMessage(unsigned, unsigned char, unsigned char, unsigned char, unsigned char, unsigned char, unsigned char, unsigned char, unsigned char)
    pgn_rvc.o(i._ZN11CAN_PGN_RVC10msgFurnaceEv) refers to rvc.o(.bss) for rvc
    pgn_rvc.o(i._ZN11CAN_PGN_RVC10msgFurnaceEv) refers to can.o(.bss) for can
    pgn_rvc.o(i._ZN11CAN_PGN_RVC13msgExtMessageEv) refers to dflt_clz.o(x$fpl$dflt) for __aeabi_i2d
    pgn_rvc.o(i._ZN11CAN_PGN_RVC13msgExtMessageEv) refers to dmul.o(x$fpl$dmul) for __aeabi_dmul
    pgn_rvc.o(i._ZN11CAN_PGN_RVC13msgExtMessageEv) refers to dfixu.o(x$fpl$dfixu) for __aeabi_d2uiz
    pgn_rvc.o(i._ZN11CAN_PGN_RVC13msgExtMessageEv) refers to pgn_rvc.o(i._ZN11CAN_PGN_RVC11generateAIDEhjh) for CAN_PGN_RVC::generateAID(unsigned char, unsigned, unsigned char)
    pgn_rvc.o(i._ZN11CAN_PGN_RVC13msgExtMessageEv) refers to can.o(i._ZN3Can11SendMessageEjhhhhhhhh) for Can::SendMessage(unsigned, unsigned char, unsigned char, unsigned char, unsigned char, unsigned char, unsigned char, unsigned char, unsigned char)
    pgn_rvc.o(i._ZN11CAN_PGN_RVC13msgExtMessageEv) refers to rvc.o(.bss) for rvc
    pgn_rvc.o(i._ZN11CAN_PGN_RVC13msgExtMessageEv) refers to can.o(.bss) for can
    pgn_rvc.o(i._ZN11CAN_PGN_RVC13msgHeaterInfoEv) refers to pgn_rvc.o(i._ZN11CAN_PGN_RVC11generateAIDEhjh) for CAN_PGN_RVC::generateAID(unsigned char, unsigned, unsigned char)
    pgn_rvc.o(i._ZN11CAN_PGN_RVC13msgHeaterInfoEv) refers to can.o(i._ZN3Can11SendMessageEjhhhhhhhh) for Can::SendMessage(unsigned, unsigned char, unsigned char, unsigned char, unsigned char, unsigned char, unsigned char, unsigned char, unsigned char)
    pgn_rvc.o(i._ZN11CAN_PGN_RVC13msgHeaterInfoEv) refers to hcu.o(.bss) for hcu
    pgn_rvc.o(i._ZN11CAN_PGN_RVC13msgHeaterInfoEv) refers to can.o(.bss) for can
    pgn_rvc.o(i._ZN11CAN_PGN_RVC14msgAmbientTempEv) refers to dflt_clz.o(x$fpl$dflt) for __aeabi_i2d
    pgn_rvc.o(i._ZN11CAN_PGN_RVC14msgAmbientTempEv) refers to dmul.o(x$fpl$dmul) for __aeabi_dmul
    pgn_rvc.o(i._ZN11CAN_PGN_RVC14msgAmbientTempEv) refers to dfixu.o(x$fpl$dfixu) for __aeabi_d2uiz
    pgn_rvc.o(i._ZN11CAN_PGN_RVC14msgAmbientTempEv) refers to pgn_rvc.o(i._ZN11CAN_PGN_RVC11generateAIDEhjh) for CAN_PGN_RVC::generateAID(unsigned char, unsigned, unsigned char)
    pgn_rvc.o(i._ZN11CAN_PGN_RVC14msgAmbientTempEv) refers to can.o(i._ZN3Can11SendMessageEjhhhhhhhh) for Can::SendMessage(unsigned, unsigned char, unsigned char, unsigned char, unsigned char, unsigned char, unsigned char, unsigned char, unsigned char)
    pgn_rvc.o(i._ZN11CAN_PGN_RVC14msgAmbientTempEv) refers to system.o(.bss) for air
    pgn_rvc.o(i._ZN11CAN_PGN_RVC14msgAmbientTempEv) refers to pgn_rvc.o(.bss) for canPGNRVC
    pgn_rvc.o(i._ZN11CAN_PGN_RVC14msgAmbientTempEv) refers to can.o(.bss) for can
    pgn_rvc.o(i._ZN11CAN_PGN_RVC14msgThermostat1Ev) refers to pgn_rvc.o(i._ZN11CAN_PGN_RVC11generateAIDEhjh) for CAN_PGN_RVC::generateAID(unsigned char, unsigned, unsigned char)
    pgn_rvc.o(i._ZN11CAN_PGN_RVC14msgThermostat1Ev) refers to can.o(i._ZN3Can11SendMessageEjhhhhhhhh) for Can::SendMessage(unsigned, unsigned char, unsigned char, unsigned char, unsigned char, unsigned char, unsigned char, unsigned char, unsigned char)
    pgn_rvc.o(i._ZN11CAN_PGN_RVC14msgThermostat1Ev) refers to system.o(.bss) for air
    pgn_rvc.o(i._ZN11CAN_PGN_RVC14msgThermostat1Ev) refers to rvc.o(.bss) for rvc
    pgn_rvc.o(i._ZN11CAN_PGN_RVC14msgThermostat1Ev) refers to can.o(.bss) for can
    pgn_rvc.o(i._ZN11CAN_PGN_RVC14msgThermostat2Ev) refers to pgn_rvc.o(i._ZN11CAN_PGN_RVC11generateAIDEhjh) for CAN_PGN_RVC::generateAID(unsigned char, unsigned, unsigned char)
    pgn_rvc.o(i._ZN11CAN_PGN_RVC14msgThermostat2Ev) refers to can.o(i._ZN3Can11SendMessageEjhhhhhhhh) for Can::SendMessage(unsigned, unsigned char, unsigned char, unsigned char, unsigned char, unsigned char, unsigned char, unsigned char, unsigned char)
    pgn_rvc.o(i._ZN11CAN_PGN_RVC14msgThermostat2Ev) refers to system.o(.bss) for air
    pgn_rvc.o(i._ZN11CAN_PGN_RVC14msgThermostat2Ev) refers to can.o(.bss) for can
    pgn_rvc.o(i._ZN11CAN_PGN_RVC14msgWaterHeaterEv) refers to dflt_clz.o(x$fpl$dflt) for __aeabi_i2d
    pgn_rvc.o(i._ZN11CAN_PGN_RVC14msgWaterHeaterEv) refers to dmul.o(x$fpl$dmul) for __aeabi_dmul
    pgn_rvc.o(i._ZN11CAN_PGN_RVC14msgWaterHeaterEv) refers to dfixu.o(x$fpl$dfixu) for __aeabi_d2uiz
    pgn_rvc.o(i._ZN11CAN_PGN_RVC14msgWaterHeaterEv) refers to pgn_rvc.o(i._ZN11CAN_PGN_RVC11generateAIDEhjh) for CAN_PGN_RVC::generateAID(unsigned char, unsigned, unsigned char)
    pgn_rvc.o(i._ZN11CAN_PGN_RVC14msgWaterHeaterEv) refers to can.o(i._ZN3Can11SendMessageEjhhhhhhhh) for Can::SendMessage(unsigned, unsigned char, unsigned char, unsigned char, unsigned char, unsigned char, unsigned char, unsigned char, unsigned char)
    pgn_rvc.o(i._ZN11CAN_PGN_RVC14msgWaterHeaterEv) refers to system.o(.bss) for air
    pgn_rvc.o(i._ZN11CAN_PGN_RVC14msgWaterHeaterEv) refers to hcu.o(.bss) for hcu
    pgn_rvc.o(i._ZN11CAN_PGN_RVC14msgWaterHeaterEv) refers to can.o(.bss) for can
    pgn_rvc.o(i._ZN11CAN_PGN_RVC15msgWaterHeater2Ev) refers to pgn_rvc.o(i._ZN11CAN_PGN_RVC11generateAIDEhjh) for CAN_PGN_RVC::generateAID(unsigned char, unsigned, unsigned char)
    pgn_rvc.o(i._ZN11CAN_PGN_RVC15msgWaterHeater2Ev) refers to can.o(i._ZN3Can11SendMessageEjhhhhhhhh) for Can::SendMessage(unsigned, unsigned char, unsigned char, unsigned char, unsigned char, unsigned char, unsigned char, unsigned char, unsigned char)
    pgn_rvc.o(i._ZN11CAN_PGN_RVC15msgWaterHeater2Ev) refers to rvc.o(.bss) for rvc
    pgn_rvc.o(i._ZN11CAN_PGN_RVC15msgWaterHeater2Ev) refers to can.o(.bss) for can
    pgn_rvc.o(i._ZN11CAN_PGN_RVC20msgDiagnosticMessageEv) refers to pgn_rvc.o(i._ZN11CAN_PGN_RVC11generateAIDEhjh) for CAN_PGN_RVC::generateAID(unsigned char, unsigned, unsigned char)
    pgn_rvc.o(i._ZN11CAN_PGN_RVC20msgDiagnosticMessageEv) refers to can.o(i._ZN3Can11SendMessageEjhhhhhhhh) for Can::SendMessage(unsigned, unsigned char, unsigned char, unsigned char, unsigned char, unsigned char, unsigned char, unsigned char, unsigned char)
    pgn_rvc.o(i._ZN11CAN_PGN_RVC20msgDiagnosticMessageEv) refers to hcu.o(.bss) for hcu
    pgn_rvc.o(i._ZN11CAN_PGN_RVC20msgDiagnosticMessageEv) refers to rvc.o(.bss) for rvc
    pgn_rvc.o(i._ZN11CAN_PGN_RVC20msgDiagnosticMessageEv) refers to can.o(.bss) for can
    pgn_rvc.o(i._ZN11CAN_PGN_RVC22msgThermostatSchedule1Eh) refers to pgn_rvc.o(i._ZN11CAN_PGN_RVC11generateAIDEhjh) for CAN_PGN_RVC::generateAID(unsigned char, unsigned, unsigned char)
    pgn_rvc.o(i._ZN11CAN_PGN_RVC22msgThermostatSchedule1Eh) refers to can.o(i._ZN3Can11SendMessageEjhhhhhhhh) for Can::SendMessage(unsigned, unsigned char, unsigned char, unsigned char, unsigned char, unsigned char, unsigned char, unsigned char, unsigned char)
    pgn_rvc.o(i._ZN11CAN_PGN_RVC22msgThermostatSchedule1Eh) refers to rvc.o(.bss) for rvc
    pgn_rvc.o(i._ZN11CAN_PGN_RVC22msgThermostatSchedule1Eh) refers to system.o(.bss) for air
    pgn_rvc.o(i._ZN11CAN_PGN_RVC22msgThermostatSchedule1Eh) refers to can.o(.bss) for can
    pgn_rvc.o(i._ZN11CAN_PGN_RVC24msgCirculationPumpStatusEv) refers to pgn_rvc.o(i._ZN11CAN_PGN_RVC11generateAIDEhjh) for CAN_PGN_RVC::generateAID(unsigned char, unsigned, unsigned char)
    pgn_rvc.o(i._ZN11CAN_PGN_RVC24msgCirculationPumpStatusEv) refers to can.o(i._ZN3Can11SendMessageEjhhhhhhhh) for Can::SendMessage(unsigned, unsigned char, unsigned char, unsigned char, unsigned char, unsigned char, unsigned char, unsigned char, unsigned char)
    pgn_rvc.o(i._ZN11CAN_PGN_RVC24msgCirculationPumpStatusEv) refers to rvc.o(.bss) for rvc
    pgn_rvc.o(i._ZN11CAN_PGN_RVC24msgCirculationPumpStatusEv) refers to can.o(.bss) for can
    pgn_rvc.o(i._ZN11CAN_PGN_RVC9msgTimersEv) refers to core.o(i._ZN4Core7getTickEv) for Core::getTick()
    pgn_rvc.o(i._ZN11CAN_PGN_RVC9msgTimersEv) refers to pgn_rvc.o(i._ZN11CAN_PGN_RVC11generateAIDEhjh) for CAN_PGN_RVC::generateAID(unsigned char, unsigned, unsigned char)
    pgn_rvc.o(i._ZN11CAN_PGN_RVC9msgTimersEv) refers to can.o(i._ZN3Can11SendMessageEjhhhhhhhh) for Can::SendMessage(unsigned, unsigned char, unsigned char, unsigned char, unsigned char, unsigned char, unsigned char, unsigned char, unsigned char)
    pgn_rvc.o(i._ZN11CAN_PGN_RVC9msgTimersEv) refers to rvc.o(.bss) for rvc
    pgn_rvc.o(i._ZN11CAN_PGN_RVC9msgTimersEv) refers to hcu.o(.bss) for hcu
    pgn_rvc.o(i._ZN11CAN_PGN_RVC9msgTimersEv) refers to core.o(.bss) for core
    pgn_rvc.o(i._ZN11CAN_PGN_RVC9msgTimersEv) refers to system.o(.bss) for air
    pgn_rvc.o(i._ZN11CAN_PGN_RVC9msgTimersEv) refers to can.o(.bss) for can
    pgn_rvc.o(i.__sti___11_pgn_rvc_cpp_b5b58dd4) refers to pgn_rvc.o(i._ZN11CAN_PGN_RVCC1Ev) for CAN_PGN_RVC::CAN_PGN_RVC()
    pgn_rvc.o(i.__sti___11_pgn_rvc_cpp_b5b58dd4) refers to pgn_rvc.o(.bss) for canPGNRVC
    pgn_rvc.o(.ARM.exidx) refers to pgn_rvc.o(i._ZN11CAN_PGN_RVCC1Ev) for i._ZN11CAN_PGN_RVCC1Ev
    pgn_rvc.o(.ARM.exidx) refers to pgn_rvc.o(i._ZN11CAN_PGN_RVC11generateAIDEhjh) for i._ZN11CAN_PGN_RVC11generateAIDEhjh
    pgn_rvc.o(.ARM.exidx) refers to pgn_rvc.o(i._ZN11CAN_PGN_RVC14msgWaterHeaterEv) for i._ZN11CAN_PGN_RVC14msgWaterHeaterEv
    pgn_rvc.o(.ARM.exidx) refers to pgn_rvc.o(i._ZN11CAN_PGN_RVC15msgWaterHeater2Ev) for i._ZN11CAN_PGN_RVC15msgWaterHeater2Ev
    pgn_rvc.o(.ARM.exidx) refers to pgn_rvc.o(i._ZN11CAN_PGN_RVC24msgCirculationPumpStatusEv) for i._ZN11CAN_PGN_RVC24msgCirculationPumpStatusEv
    pgn_rvc.o(.ARM.exidx) refers to pgn_rvc.o(i._ZN11CAN_PGN_RVC20msgDiagnosticMessageEv) for i._ZN11CAN_PGN_RVC20msgDiagnosticMessageEv
    pgn_rvc.o(.ARM.exidx) refers to pgn_rvc.o(i._ZN11CAN_PGN_RVC10msgFurnaceEv) for i._ZN11CAN_PGN_RVC10msgFurnaceEv
    pgn_rvc.o(.ARM.exidx) refers to pgn_rvc.o(i._ZN11CAN_PGN_RVC14msgThermostat1Ev) for i._ZN11CAN_PGN_RVC14msgThermostat1Ev
    pgn_rvc.o(.ARM.exidx) refers to pgn_rvc.o(i._ZN11CAN_PGN_RVC14msgThermostat2Ev) for i._ZN11CAN_PGN_RVC14msgThermostat2Ev
    pgn_rvc.o(.ARM.exidx) refers to pgn_rvc.o(i._ZN11CAN_PGN_RVC22msgThermostatSchedule1Eh) for i._ZN11CAN_PGN_RVC22msgThermostatSchedule1Eh
    pgn_rvc.o(.ARM.exidx) refers to pgn_rvc.o(i._ZN11CAN_PGN_RVC14msgAmbientTempEv) for i._ZN11CAN_PGN_RVC14msgAmbientTempEv
    pgn_rvc.o(.ARM.exidx) refers to pgn_rvc.o(i._ZN11CAN_PGN_RVC13msgExtMessageEv) for i._ZN11CAN_PGN_RVC13msgExtMessageEv
    pgn_rvc.o(.ARM.exidx) refers to pgn_rvc.o(i._ZN11CAN_PGN_RVC9msgTimersEv) for i._ZN11CAN_PGN_RVC9msgTimersEv
    pgn_rvc.o(.ARM.exidx) refers to pgn_rvc.o(i._ZN11CAN_PGN_RVC13msgHeaterInfoEv) for i._ZN11CAN_PGN_RVC13msgHeaterInfoEv
    pgn_rvc.o(.ARM.exidx) refers to pgn_rvc.o(i.__sti___11_pgn_rvc_cpp_b5b58dd4) for i.__sti___11_pgn_rvc_cpp_b5b58dd4
    pgn_rvc.o(.init_array) refers to pgn_rvc.o(i.__sti___11_pgn_rvc_cpp_b5b58dd4) for __sti___11_pgn_rvc_cpp_b5b58dd4
    pgn_rvc.o(.init_array) refers to init_aeabi.o(.text) for __cpp_initialize__aeabi_
    temperature.o(i._ZN11Temperature10initializeEv) refers to gd32f30x_rcu.o(i._Z23rcu_periph_clock_enable15rcu_periph_enum) for rcu_periph_clock_enable(rcu_periph_enum)
    temperature.o(i._ZN11Temperature10initializeEv) refers to gd32f30x_gpio.o(i._Z9gpio_initjjjj) for gpio_init(unsigned, unsigned, unsigned, unsigned)
    temperature.o(i._ZN11Temperature10initializeEv) refers to gd32f30x_rcu.o(i._Z20rcu_adc_clock_configj) for rcu_adc_clock_config(unsigned)
    temperature.o(i._ZN11Temperature10initializeEv) refers to gd32f30x_adc.o(i._Z11adc_disablej) for adc_disable(unsigned)
    temperature.o(i._ZN11Temperature10initializeEv) refers to gd32f30x_adc.o(i._Z10adc_deinitj) for adc_deinit(unsigned)
    temperature.o(i._ZN11Temperature10initializeEv) refers to gd32f30x_dma.o(i._Z10dma_deinitj16dma_channel_enum) for dma_deinit(unsigned, dma_channel_enum)
    temperature.o(i._ZN11Temperature10initializeEv) refers to gd32f30x_adc.o(i._Z21adc_resolution_configjj) for adc_resolution_config(unsigned, unsigned)
    temperature.o(i._ZN11Temperature10initializeEv) refers to gd32f30x_adc.o(i._Z15adc_mode_configj) for adc_mode_config(unsigned)
    temperature.o(i._ZN11Temperature10initializeEv) refers to gd32f30x_adc.o(i._Z27adc_special_function_configjj11EventStatus) for adc_special_function_config(unsigned, unsigned, EventStatus)
    temperature.o(i._ZN11Temperature10initializeEv) refers to gd32f30x_adc.o(i._Z25adc_data_alignment_configjj) for adc_data_alignment_config(unsigned, unsigned)
    temperature.o(i._ZN11Temperature10initializeEv) refers to gd32f30x_adc.o(i._Z25adc_channel_length_configjhj) for adc_channel_length_config(unsigned, unsigned char, unsigned)
    temperature.o(i._ZN11Temperature10initializeEv) refers to gd32f30x_adc.o(i._Z26adc_regular_channel_configjhhj) for adc_regular_channel_config(unsigned, unsigned char, unsigned char, unsigned)
    temperature.o(i._ZN11Temperature10initializeEv) refers to gd32f30x_adc.o(i._Z34adc_external_trigger_source_configjhj) for adc_external_trigger_source_config(unsigned, unsigned char, unsigned)
    temperature.o(i._ZN11Temperature10initializeEv) refers to gd32f30x_adc.o(i._Z27adc_external_trigger_configjh11EventStatus) for adc_external_trigger_config(unsigned, unsigned char, EventStatus)
    temperature.o(i._ZN11Temperature10initializeEv) refers to gd32f30x_adc.o(i._Z14adc_flag_clearjj) for adc_flag_clear(unsigned, unsigned)
    temperature.o(i._ZN11Temperature10initializeEv) refers to gd32f30x_adc.o(i._Z29adc_tempsensor_vrefint_enablev) for adc_tempsensor_vrefint_enable()
    temperature.o(i._ZN11Temperature10initializeEv) refers to gd32f30x_adc.o(i._Z21adc_interrupt_disablejj) for adc_interrupt_disable(unsigned, unsigned)
    temperature.o(i._ZN11Temperature10initializeEv) refers to gd32f30x_adc.o(i._Z10adc_enablej) for adc_enable(unsigned)
    temperature.o(i._ZN11Temperature10initializeEv) refers to gd32f30x_adc.o(i._Z22adc_calibration_enablej) for adc_calibration_enable(unsigned)
    temperature.o(i._ZN11Temperature10initializeEv) refers to gd32f30x_adc.o(i._Z19adc_dma_mode_enablej) for adc_dma_mode_enable(unsigned)
    temperature.o(i._ZN11Temperature10initializeEv) refers to gd32f30x_dma.o(i._Z25dma_periph_address_configj16dma_channel_enumj) for dma_periph_address_config(unsigned, dma_channel_enum, unsigned)
    temperature.o(i._ZN11Temperature10initializeEv) refers to gd32f30x_dma.o(i._Z25dma_memory_address_configj16dma_channel_enumj) for dma_memory_address_config(unsigned, dma_channel_enum, unsigned)
    temperature.o(i._ZN11Temperature10initializeEv) refers to gd32f30x_dma.o(i._Z22dma_circulation_enablej16dma_channel_enum) for dma_circulation_enable(unsigned, dma_channel_enum)
    temperature.o(i._ZN11Temperature10initializeEv) refers to gd32f30x_dma.o(i._Z26dma_transfer_number_configj16dma_channel_enumj) for dma_transfer_number_config(unsigned, dma_channel_enum, unsigned)
    temperature.o(i._ZN11Temperature10initializeEv) refers to gd32f30x_dma.o(i._Z19dma_priority_configj16dma_channel_enumj) for dma_priority_config(unsigned, dma_channel_enum, unsigned)
    temperature.o(i._ZN11Temperature10initializeEv) refers to gd32f30x_dma.o(i._Z23dma_memory_width_configj16dma_channel_enumj) for dma_memory_width_config(unsigned, dma_channel_enum, unsigned)
    temperature.o(i._ZN11Temperature10initializeEv) refers to gd32f30x_dma.o(i._Z23dma_periph_width_configj16dma_channel_enumj) for dma_periph_width_config(unsigned, dma_channel_enum, unsigned)
    temperature.o(i._ZN11Temperature10initializeEv) refers to gd32f30x_dma.o(i._Z26dma_memory_increase_enablej16dma_channel_enum) for dma_memory_increase_enable(unsigned, dma_channel_enum)
    temperature.o(i._ZN11Temperature10initializeEv) refers to gd32f30x_dma.o(i._Z27dma_periph_increase_disablej16dma_channel_enum) for dma_periph_increase_disable(unsigned, dma_channel_enum)
    temperature.o(i._ZN11Temperature10initializeEv) refers to gd32f30x_dma.o(i._Z29dma_transfer_direction_configj16dma_channel_enumj) for dma_transfer_direction_config(unsigned, dma_channel_enum, unsigned)
    temperature.o(i._ZN11Temperature10initializeEv) refers to gd32f30x_dma.o(i._Z18dma_channel_enablej16dma_channel_enum) for dma_channel_enable(unsigned, dma_channel_enum)
    temperature.o(i._ZN11Temperature21steinhartHartEquationEf) refers to logf.o(i.__hardfp_logf) for __hardfp_logf
    temperature.o(i._ZN11Temperature7requestEv) refers to dflt_clz.o(x$fpl$dflt) for __aeabi_i2d
    temperature.o(i._ZN11Temperature7requestEv) refers to ddiv.o(x$fpl$ddiv) for __aeabi_ddiv
    temperature.o(i._ZN11Temperature7requestEv) refers to daddsub_clz.o(x$fpl$dadd) for __aeabi_dadd
    temperature.o(i._ZN11Temperature7requestEv) refers to d2f.o(x$fpl$d2f) for __aeabi_d2f
    temperature.o(i._ZN11Temperature7requestEv) refers to temperature.o(i._ZN11Temperature21steinhartHartEquationEf) for Temperature::steinhartHartEquation(float)
    temperature.o(i._ZN11Temperature7requestEv) refers to core.o(i._ZN4Core8celToFarEf) for Core::celToFar(float)
    temperature.o(i._ZN11Temperature7requestEv) refers to temperature.o(.data) for ion
    temperature.o(i._ZN11Temperature7requestEv) refers to pgn_rvc.o(.bss) for canPGNRVC
    temperature.o(i._ZN11Temperature7requestEv) refers to display.o(.bss) for display
    temperature.o(i._ZN11Temperature7requestEv) refers to core.o(.bss) for core
    temperature.o(i.__sti___15_temperature_cpp_be4e2a6c) refers to temperature.o(i._ZN11TemperatureC1Ev) for Temperature::Temperature()
    temperature.o(i.__sti___15_temperature_cpp_be4e2a6c) refers to temperature.o(.bss) for temperature
    temperature.o(.ARM.exidx) refers to temperature.o(i._ZN11TemperatureC1Ev) for i._ZN11TemperatureC1Ev
    temperature.o(.ARM.exidx) refers to temperature.o(i._ZN11Temperature10initializeEv) for i._ZN11Temperature10initializeEv
    temperature.o(.ARM.exidx) refers to temperature.o(i._ZN11Temperature21steinhartHartEquationEf) for i._ZN11Temperature21steinhartHartEquationEf
    temperature.o(.ARM.exidx) refers to temperature.o(i._ZN11Temperature7requestEv) for i._ZN11Temperature7requestEv
    temperature.o(.ARM.exidx) refers to temperature.o(i._ZN11Temperature8getValueEv) for i._ZN11Temperature8getValueEv
    temperature.o(.ARM.exidx) refers to temperature.o(i.__sti___15_temperature_cpp_be4e2a6c) for i.__sti___15_temperature_cpp_be4e2a6c
    temperature.o(.init_array) refers to temperature.o(i.__sti___15_temperature_cpp_be4e2a6c) for __sti___15_temperature_cpp_be4e2a6c
    temperature.o(.init_array) refers to init_aeabi.o(.text) for __cpp_initialize__aeabi_
    memory.o(i._ZN6Memory10blockEraseEj) refers to memory.o(i._ZN6Memory11writeEnableEv) for Memory::writeEnable()
    memory.o(i._ZN6Memory10blockEraseEj) refers to gd32f30x_gpio.o(i._Z14gpio_bit_resetjj) for gpio_bit_reset(unsigned, unsigned)
    memory.o(i._ZN6Memory10blockEraseEj) refers to memory.o(i._ZN6Memory7spiSendEh) for Memory::spiSend(unsigned char)
    memory.o(i._ZN6Memory10blockEraseEj) refers to memory.o(i._ZN6Memory11quadOutInitEv) for Memory::quadOutInit()
    memory.o(i._ZN6Memory10blockEraseEj) refers to memory.o(i._ZN6Memory8quadSendEh) for Memory::quadSend(unsigned char)
    memory.o(i._ZN6Memory10blockEraseEj) refers to gd32f30x_gpio.o(i._Z12gpio_bit_setjj) for gpio_bit_set(unsigned, unsigned)
    memory.o(i._ZN6Memory10blockEraseEj) refers to memory.o(i._ZN6Memory10readStatusEv) for Memory::readStatus()
    memory.o(i._ZN6Memory10quadInInitEv) refers to gd32f30x_gpio.o(i._Z9gpio_initjjjj) for gpio_init(unsigned, unsigned, unsigned, unsigned)
    memory.o(i._ZN6Memory10quadReceivEv) refers to gd32f30x_gpio.o(i._Z14gpio_bit_resetjj) for gpio_bit_reset(unsigned, unsigned)
    memory.o(i._ZN6Memory10quadReceivEv) refers to gd32f30x_gpio.o(i._Z12gpio_bit_setjj) for gpio_bit_set(unsigned, unsigned)
    memory.o(i._ZN6Memory10quadReceivEv) refers to gd32f30x_gpio.o(i._Z18gpio_input_bit_getjj) for gpio_input_bit_get(unsigned, unsigned)
    memory.o(i._ZN6Memory10readStatusEv) refers to gd32f30x_gpio.o(i._Z14gpio_bit_resetjj) for gpio_bit_reset(unsigned, unsigned)
    memory.o(i._ZN6Memory10readStatusEv) refers to memory.o(i._ZN6Memory7spiSendEh) for Memory::spiSend(unsigned char)
    memory.o(i._ZN6Memory10readStatusEv) refers to memory.o(i._ZN6Memory4readEPhh) for Memory::read(unsigned char*, unsigned char)
    memory.o(i._ZN6Memory10readStatusEv) refers to memory.o(i._ZN6Memory11quadOutInitEv) for Memory::quadOutInit()
    memory.o(i._ZN6Memory10readStatusEv) refers to memory.o(i._ZN6Memory8quadSendEh) for Memory::quadSend(unsigned char)
    memory.o(i._ZN6Memory10readStatusEv) refers to memory.o(i._ZN6Memory10quadInInitEv) for Memory::quadInInit()
    memory.o(i._ZN6Memory10readStatusEv) refers to memory.o(i._ZN6Memory10quadReceivEv) for Memory::quadReceiv()
    memory.o(i._ZN6Memory10readStatusEv) refers to gd32f30x_gpio.o(i._Z12gpio_bit_setjj) for gpio_bit_set(unsigned, unsigned)
    memory.o(i._ZN6Memory11quadOutInitEv) refers to gd32f30x_gpio.o(i._Z9gpio_initjjjj) for gpio_init(unsigned, unsigned, unsigned, unsigned)
    memory.o(i._ZN6Memory11searchImageEj) refers to memory.o(i._ZN6Memory8readPageEPhjj) for Memory::readPage(unsigned char*, unsigned, unsigned)
    memory.o(i._ZN6Memory11writeEnableEv) refers to gd32f30x_gpio.o(i._Z14gpio_bit_resetjj) for gpio_bit_reset(unsigned, unsigned)
    memory.o(i._ZN6Memory11writeEnableEv) refers to memory.o(i._ZN6Memory7spiSendEh) for Memory::spiSend(unsigned char)
    memory.o(i._ZN6Memory11writeEnableEv) refers to memory.o(i._ZN6Memory11quadOutInitEv) for Memory::quadOutInit()
    memory.o(i._ZN6Memory11writeEnableEv) refers to memory.o(i._ZN6Memory8quadSendEh) for Memory::quadSend(unsigned char)
    memory.o(i._ZN6Memory11writeEnableEv) refers to gd32f30x_gpio.o(i._Z12gpio_bit_setjj) for gpio_bit_set(unsigned, unsigned)
    memory.o(i._ZN6Memory13initializeSpiEv) refers to memory.o(i._ZN6Memory7initSpiEv) for Memory::initSpi()
    memory.o(i._ZN6Memory13initializeSpiEv) refers to gd32f30x_gpio.o(i._Z14gpio_bit_resetjj) for gpio_bit_reset(unsigned, unsigned)
    memory.o(i._ZN6Memory13initializeSpiEv) refers to core.o(i._ZN4Core7delayMsEj) for Core::delayMs(unsigned)
    memory.o(i._ZN6Memory13initializeSpiEv) refers to gd32f30x_gpio.o(i._Z12gpio_bit_setjj) for gpio_bit_set(unsigned, unsigned)
    memory.o(i._ZN6Memory13initializeSpiEv) refers to memory.o(i._ZN6Memory5identEv) for Memory::ident()
    memory.o(i._ZN6Memory13initializeSpiEv) refers to memory.o(i._ZN6Memory8quadSendEh) for Memory::quadSend(unsigned char)
    memory.o(i._ZN6Memory13initializeSpiEv) refers to memory.o(i._ZN6Memory14initializeQuadEv) for Memory::initializeQuad()
    memory.o(i._ZN6Memory13initializeSpiEv) refers to core.o(.bss) for core
    memory.o(i._ZN6Memory14initializeQuadEv) refers to memory.o(i._ZN6Memory7initSpiEv) for Memory::initSpi()
    memory.o(i._ZN6Memory14initializeQuadEv) refers to gd32f30x_gpio.o(i._Z14gpio_bit_resetjj) for gpio_bit_reset(unsigned, unsigned)
    memory.o(i._ZN6Memory14initializeQuadEv) refers to core.o(i._ZN4Core7delayMsEj) for Core::delayMs(unsigned)
    memory.o(i._ZN6Memory14initializeQuadEv) refers to gd32f30x_gpio.o(i._Z12gpio_bit_setjj) for gpio_bit_set(unsigned, unsigned)
    memory.o(i._ZN6Memory14initializeQuadEv) refers to memory.o(i._ZN6Memory7powerUpEv) for Memory::powerUp()
    memory.o(i._ZN6Memory14initializeQuadEv) refers to memory.o(i._ZN6Memory5identEv) for Memory::ident()
    memory.o(i._ZN6Memory14initializeQuadEv) refers to memory.o(i._ZN6Memory7spiSendEh) for Memory::spiSend(unsigned char)
    memory.o(i._ZN6Memory14initializeQuadEv) refers to memory.o(i._ZN6Memory10readStatusEv) for Memory::readStatus()
    memory.o(i._ZN6Memory14initializeQuadEv) refers to core.o(i._ZN4Core7delayUsEj) for Core::delayUs(unsigned)
    memory.o(i._ZN6Memory14initializeQuadEv) refers to memory.o(i._ZN6Memory4readEPhh) for Memory::read(unsigned char*, unsigned char)
    memory.o(i._ZN6Memory14initializeQuadEv) refers to core.o(.bss) for core
    memory.o(i._ZN6Memory4readEPhh) refers to memory.o(i._ZN6Memory7spiSendEh) for Memory::spiSend(unsigned char)
    memory.o(i._ZN6Memory5identEv) refers to gd32f30x_gpio.o(i._Z14gpio_bit_resetjj) for gpio_bit_reset(unsigned, unsigned)
    memory.o(i._ZN6Memory5identEv) refers to memory.o(i._ZN6Memory5writeEPhh) for Memory::write(unsigned char*, unsigned char)
    memory.o(i._ZN6Memory5identEv) refers to memory.o(i._ZN6Memory4readEPhh) for Memory::read(unsigned char*, unsigned char)
    memory.o(i._ZN6Memory5identEv) refers to memory.o(i._ZN6Memory11quadOutInitEv) for Memory::quadOutInit()
    memory.o(i._ZN6Memory5identEv) refers to memory.o(i._ZN6Memory8quadSendEh) for Memory::quadSend(unsigned char)
    memory.o(i._ZN6Memory5identEv) refers to memory.o(i._ZN6Memory10quadInInitEv) for Memory::quadInInit()
    memory.o(i._ZN6Memory5identEv) refers to memory.o(i._ZN6Memory10quadReceivEv) for Memory::quadReceiv()
    memory.o(i._ZN6Memory5identEv) refers to gd32f30x_gpio.o(i._Z12gpio_bit_setjj) for gpio_bit_set(unsigned, unsigned)
    memory.o(i._ZN6Memory5resetEv) refers to gd32f30x_gpio.o(i._Z14gpio_bit_resetjj) for gpio_bit_reset(unsigned, unsigned)
    memory.o(i._ZN6Memory5resetEv) refers to memory.o(i._ZN6Memory7spiSendEh) for Memory::spiSend(unsigned char)
    memory.o(i._ZN6Memory5resetEv) refers to gd32f30x_gpio.o(i._Z12gpio_bit_setjj) for gpio_bit_set(unsigned, unsigned)
    memory.o(i._ZN6Memory5writeEPhh) refers to memory.o(i._ZN6Memory7spiSendEh) for Memory::spiSend(unsigned char)
    memory.o(i._ZN6Memory7calcCRCEv) refers to memory.o(i._ZN6Memory8readPageEPhjj) for Memory::readPage(unsigned char*, unsigned, unsigned)
    memory.o(i._ZN6Memory7calcCRCEv) refers to memory.o(.data) for max
    memory.o(i._ZN6Memory7initSpiEv) refers to gd32f30x_rcu.o(i._Z23rcu_periph_clock_enable15rcu_periph_enum) for rcu_periph_clock_enable(rcu_periph_enum)
    memory.o(i._ZN6Memory7initSpiEv) refers to gd32f30x_gpio.o(i._Z21gpio_pin_remap_configj11EventStatus) for gpio_pin_remap_config(unsigned, EventStatus)
    memory.o(i._ZN6Memory7initSpiEv) refers to gd32f30x_gpio.o(i._Z9gpio_initjjjj) for gpio_init(unsigned, unsigned, unsigned, unsigned)
    memory.o(i._ZN6Memory7initSpiEv) refers to gd32f30x_gpio.o(i._Z12gpio_bit_setjj) for gpio_bit_set(unsigned, unsigned)
    memory.o(i._ZN6Memory7powerUpEv) refers to gd32f30x_gpio.o(i._Z14gpio_bit_resetjj) for gpio_bit_reset(unsigned, unsigned)
    memory.o(i._ZN6Memory7powerUpEv) refers to memory.o(i._ZN6Memory7spiSendEh) for Memory::spiSend(unsigned char)
    memory.o(i._ZN6Memory7powerUpEv) refers to memory.o(i._ZN6Memory11quadOutInitEv) for Memory::quadOutInit()
    memory.o(i._ZN6Memory7powerUpEv) refers to memory.o(i._ZN6Memory8quadSendEh) for Memory::quadSend(unsigned char)
    memory.o(i._ZN6Memory7powerUpEv) refers to gd32f30x_gpio.o(i._Z12gpio_bit_setjj) for gpio_bit_set(unsigned, unsigned)
    memory.o(i._ZN6Memory7spiSendEh) refers to gd32f30x_gpio.o(i._Z14gpio_bit_resetjj) for gpio_bit_reset(unsigned, unsigned)
    memory.o(i._ZN6Memory7spiSendEh) refers to gd32f30x_gpio.o(i._Z12gpio_bit_setjj) for gpio_bit_set(unsigned, unsigned)
    memory.o(i._ZN6Memory7spiSendEh) refers to gd32f30x_gpio.o(i._Z18gpio_input_bit_getjj) for gpio_input_bit_get(unsigned, unsigned)
    memory.o(i._ZN6Memory8fillPageEv) refers to memory.o(i._ZN6Memory10readStatusEv) for Memory::readStatus()
    memory.o(i._ZN6Memory8fillPageEv) refers to memory.o(i._ZN6Memory9writePageEPhjh) for Memory::writePage(unsigned char*, unsigned, unsigned char)
    memory.o(i._ZN6Memory8quadSendEh) refers to gd32f30x_gpio.o(i._Z14gpio_bit_resetjj) for gpio_bit_reset(unsigned, unsigned)
    memory.o(i._ZN6Memory8quadSendEh) refers to gd32f30x_gpio.o(i._Z12gpio_bit_setjj) for gpio_bit_set(unsigned, unsigned)
    memory.o(i._ZN6Memory8readPageEPhjj) refers to gd32f30x_gpio.o(i._Z14gpio_bit_resetjj) for gpio_bit_reset(unsigned, unsigned)
    memory.o(i._ZN6Memory8readPageEPhjj) refers to memory.o(i._ZN6Memory7spiSendEh) for Memory::spiSend(unsigned char)
    memory.o(i._ZN6Memory8readPageEPhjj) refers to memory.o(i._ZN6Memory11quadOutInitEv) for Memory::quadOutInit()
    memory.o(i._ZN6Memory8readPageEPhjj) refers to memory.o(i._ZN6Memory8quadSendEh) for Memory::quadSend(unsigned char)
    memory.o(i._ZN6Memory8readPageEPhjj) refers to memory.o(i._ZN6Memory10quadInInitEv) for Memory::quadInInit()
    memory.o(i._ZN6Memory8readPageEPhjj) refers to memory.o(i._ZN6Memory10quadReceivEv) for Memory::quadReceiv()
    memory.o(i._ZN6Memory8readPageEPhjj) refers to gd32f30x_gpio.o(i._Z12gpio_bit_setjj) for gpio_bit_set(unsigned, unsigned)
    memory.o(i._ZN6Memory9chipEraseEv) refers to memory.o(i._ZN6Memory11writeEnableEv) for Memory::writeEnable()
    memory.o(i._ZN6Memory9chipEraseEv) refers to gd32f30x_gpio.o(i._Z14gpio_bit_resetjj) for gpio_bit_reset(unsigned, unsigned)
    memory.o(i._ZN6Memory9chipEraseEv) refers to memory.o(i._ZN6Memory7spiSendEh) for Memory::spiSend(unsigned char)
    memory.o(i._ZN6Memory9chipEraseEv) refers to memory.o(i._ZN6Memory11quadOutInitEv) for Memory::quadOutInit()
    memory.o(i._ZN6Memory9chipEraseEv) refers to memory.o(i._ZN6Memory8quadSendEh) for Memory::quadSend(unsigned char)
    memory.o(i._ZN6Memory9chipEraseEv) refers to gd32f30x_gpio.o(i._Z12gpio_bit_setjj) for gpio_bit_set(unsigned, unsigned)
    memory.o(i._ZN6Memory9chipEraseEv) refers to memory.o(i._ZN6Memory10readStatusEv) for Memory::readStatus()
    memory.o(i._ZN6Memory9lastEraseEv) refers to memory.o(i._ZN6Memory11searchImageEj) for Memory::searchImage(unsigned)
    memory.o(i._ZN6Memory9lastEraseEv) refers to memory.o(i._ZN6Memory9writeZeroEjh) for Memory::writeZero(unsigned, unsigned char)
    memory.o(i._ZN6Memory9powerDownEv) refers to gd32f30x_gpio.o(i._Z14gpio_bit_resetjj) for gpio_bit_reset(unsigned, unsigned)
    memory.o(i._ZN6Memory9powerDownEv) refers to memory.o(i._ZN6Memory7spiSendEh) for Memory::spiSend(unsigned char)
    memory.o(i._ZN6Memory9powerDownEv) refers to memory.o(i._ZN6Memory11quadOutInitEv) for Memory::quadOutInit()
    memory.o(i._ZN6Memory9powerDownEv) refers to memory.o(i._ZN6Memory8quadSendEh) for Memory::quadSend(unsigned char)
    memory.o(i._ZN6Memory9powerDownEv) refers to gd32f30x_gpio.o(i._Z12gpio_bit_setjj) for gpio_bit_set(unsigned, unsigned)
    memory.o(i._ZN6Memory9searchEndEPj) refers to memory.o(i._ZN6Memory8readPageEPhjj) for Memory::readPage(unsigned char*, unsigned, unsigned)
    memory.o(i._ZN6Memory9writeByteEhjj) refers to memory.o(i._ZN6Memory11writeEnableEv) for Memory::writeEnable()
    memory.o(i._ZN6Memory9writeByteEhjj) refers to gd32f30x_gpio.o(i._Z14gpio_bit_resetjj) for gpio_bit_reset(unsigned, unsigned)
    memory.o(i._ZN6Memory9writeByteEhjj) refers to memory.o(i._ZN6Memory7spiSendEh) for Memory::spiSend(unsigned char)
    memory.o(i._ZN6Memory9writeByteEhjj) refers to memory.o(i._ZN6Memory11quadOutInitEv) for Memory::quadOutInit()
    memory.o(i._ZN6Memory9writeByteEhjj) refers to memory.o(i._ZN6Memory8quadSendEh) for Memory::quadSend(unsigned char)
    memory.o(i._ZN6Memory9writeByteEhjj) refers to gd32f30x_gpio.o(i._Z12gpio_bit_setjj) for gpio_bit_set(unsigned, unsigned)
    memory.o(i._ZN6Memory9writeByteEhjj) refers to memory.o(i._ZN6Memory10readStatusEv) for Memory::readStatus()
    memory.o(i._ZN6Memory9writePageEPhjh) refers to memory.o(i._ZN6Memory11writeEnableEv) for Memory::writeEnable()
    memory.o(i._ZN6Memory9writePageEPhjh) refers to gd32f30x_gpio.o(i._Z14gpio_bit_resetjj) for gpio_bit_reset(unsigned, unsigned)
    memory.o(i._ZN6Memory9writePageEPhjh) refers to memory.o(i._ZN6Memory7spiSendEh) for Memory::spiSend(unsigned char)
    memory.o(i._ZN6Memory9writePageEPhjh) refers to memory.o(i._ZN6Memory11quadOutInitEv) for Memory::quadOutInit()
    memory.o(i._ZN6Memory9writePageEPhjh) refers to memory.o(i._ZN6Memory8quadSendEh) for Memory::quadSend(unsigned char)
    memory.o(i._ZN6Memory9writePageEPhjh) refers to gd32f30x_gpio.o(i._Z12gpio_bit_setjj) for gpio_bit_set(unsigned, unsigned)
    memory.o(i._ZN6Memory9writePageEPhjh) refers to memory.o(i._ZN6Memory10readStatusEv) for Memory::readStatus()
    memory.o(i._ZN6Memory9writeZeroEjh) refers to memory.o(i._ZN6Memory11writeEnableEv) for Memory::writeEnable()
    memory.o(i._ZN6Memory9writeZeroEjh) refers to gd32f30x_gpio.o(i._Z14gpio_bit_resetjj) for gpio_bit_reset(unsigned, unsigned)
    memory.o(i._ZN6Memory9writeZeroEjh) refers to memory.o(i._ZN6Memory7spiSendEh) for Memory::spiSend(unsigned char)
    memory.o(i._ZN6Memory9writeZeroEjh) refers to gd32f30x_gpio.o(i._Z12gpio_bit_setjj) for gpio_bit_set(unsigned, unsigned)
    memory.o(.ARM.exidx) refers to memory.o(i._ZN6Memory10quadReceivEv) for i._ZN6Memory10quadReceivEv
    memory.o(.ARM.exidx) refers to memory.o(i._ZN6Memory10quadInInitEv) for i._ZN6Memory10quadInInitEv
    memory.o(.ARM.exidx) refers to memory.o(i._ZN6Memory8quadSendEh) for i._ZN6Memory8quadSendEh
    memory.o(.ARM.exidx) refers to memory.o(i._ZN6Memory11quadOutInitEv) for i._ZN6Memory11quadOutInitEv
    memory.o(.ARM.exidx) refers to memory.o(i._ZN6Memory7spiSendEh) for i._ZN6Memory7spiSendEh
    memory.o(.ARM.exidx) refers to memory.o(i._ZN6Memory4readEPhh) for i._ZN6Memory4readEPhh
    memory.o(.ARM.exidx) refers to memory.o(i._ZN6Memory5writeEPhh) for i._ZN6Memory5writeEPhh
    memory.o(.ARM.exidx) refers to memory.o(i._ZN6Memory5identEv) for i._ZN6Memory5identEv
    memory.o(.ARM.exidx) refers to memory.o(i._ZN6Memory10readStatusEv) for i._ZN6Memory10readStatusEv
    memory.o(.ARM.exidx) refers to memory.o(i._ZN6Memory7powerUpEv) for i._ZN6Memory7powerUpEv
    memory.o(.ARM.exidx) refers to memory.o(i._ZN6Memory7initSpiEv) for i._ZN6Memory7initSpiEv
    memory.o(.ARM.exidx) refers to memory.o(i._ZN6Memory14initializeQuadEv) for i._ZN6Memory14initializeQuadEv
    memory.o(.ARM.exidx) refers to memory.o(i._ZN6Memory13initializeSpiEv) for i._ZN6Memory13initializeSpiEv
    memory.o(.ARM.exidx) refers to memory.o(i._ZN6Memory8readPageEPhjj) for i._ZN6Memory8readPageEPhjj
    memory.o(.ARM.exidx) refers to memory.o(i._ZN6Memory11writeEnableEv) for i._ZN6Memory11writeEnableEv
    memory.o(.ARM.exidx) refers to memory.o(i._ZN6Memory9writePageEPhjh) for i._ZN6Memory9writePageEPhjh
    memory.o(.ARM.exidx) refers to memory.o(i._ZN6Memory9writeByteEhjj) for i._ZN6Memory9writeByteEhjj
    memory.o(.ARM.exidx) refers to memory.o(i._ZN6Memory10blockEraseEj) for i._ZN6Memory10blockEraseEj
    memory.o(.ARM.exidx) refers to memory.o(i._ZN6Memory9chipEraseEv) for i._ZN6Memory9chipEraseEv
    memory.o(.ARM.exidx) refers to memory.o(i._ZN6Memory9searchEndEPj) for i._ZN6Memory9searchEndEPj
    memory.o(.ARM.exidx) refers to memory.o(i._ZN6Memory11searchImageEj) for i._ZN6Memory11searchImageEj
    memory.o(.ARM.exidx) refers to memory.o(i._ZN6Memory9writeZeroEjh) for i._ZN6Memory9writeZeroEjh
    memory.o(.ARM.exidx) refers to memory.o(i._ZN6Memory9lastEraseEv) for i._ZN6Memory9lastEraseEv
    memory.o(.ARM.exidx) refers to memory.o(i._ZN6Memory9powerDownEv) for i._ZN6Memory9powerDownEv
    memory.o(.ARM.exidx) refers to memory.o(i._ZN6Memory7calcCRCEv) for i._ZN6Memory7calcCRCEv
    memory.o(.ARM.exidx) refers to memory.o(i._ZN6Memory5resetEv) for i._ZN6Memory5resetEv
    memory.o(.ARM.exidx) refers to memory.o(i._ZN6Memory8fillPageEv) for i._ZN6Memory8fillPageEv
    display.o(i._ZN7Display10initPeriphEv) refers to gd32f30x_rcu.o(i._Z23rcu_periph_clock_enable15rcu_periph_enum) for rcu_periph_clock_enable(rcu_periph_enum)
    display.o(i._ZN7Display10initPeriphEv) refers to gd32f30x_gpio.o(i._Z21gpio_pin_remap_configj11EventStatus) for gpio_pin_remap_config(unsigned, EventStatus)
    display.o(i._ZN7Display10initPeriphEv) refers to gd32f30x_gpio.o(i._Z9gpio_initjjjj) for gpio_init(unsigned, unsigned, unsigned, unsigned)
    display.o(i._ZN7Display10initPeriphEv) refers to gd32f30x_spi.o(i._Z8spi_initjP20spi_parameter_struct) for spi_init(unsigned, spi_parameter_struct*)
    display.o(i._ZN7Display10initPeriphEv) refers to gd32f30x_spi.o(i._Z10spi_enablej) for spi_enable(unsigned)
    display.o(i._ZN7Display10initPeriphEv) refers to gd32f30x_timer.o(i._Z12timer_deinitj) for timer_deinit(unsigned)
    display.o(i._ZN7Display10initPeriphEv) refers to gd32f30x_timer.o(i._Z10timer_initjP22timer_parameter_struct) for timer_init(unsigned, timer_parameter_struct*)
    display.o(i._ZN7Display10initPeriphEv) refers to gd32f30x_timer.o(i._Z32timer_auto_reload_shadow_disablej) for timer_auto_reload_shadow_disable(unsigned)
    display.o(i._ZN7Display10initPeriphEv) refers to gd32f30x_timer.o(i._Z27timer_primary_output_configj11EventStatus) for timer_primary_output_config(unsigned, EventStatus)
    display.o(i._ZN7Display10initPeriphEv) refers to gd32f30x_timer.o(i._Z34timer_channel_output_shadow_configjtt) for timer_channel_output_shadow_config(unsigned, unsigned short, unsigned short)
    display.o(i._ZN7Display10initPeriphEv) refers to gd32f30x_timer.o(i._Z27timer_channel_output_configjtP25timer_oc_parameter_struct) for timer_channel_output_config(unsigned, unsigned short, timer_oc_parameter_struct*)
    display.o(i._ZN7Display10initPeriphEv) refers to gd32f30x_timer.o(i._Z39timer_channel_output_pulse_value_configjtj) for timer_channel_output_pulse_value_config(unsigned, unsigned short, unsigned)
    display.o(i._ZN7Display10initPeriphEv) refers to gd32f30x_timer.o(i._Z32timer_channel_output_mode_configjtt) for timer_channel_output_mode_config(unsigned, unsigned short, unsigned short)
    display.o(i._ZN7Display10initPeriphEv) refers to gd32f30x_timer.o(i._Z32timer_channel_output_fast_configjtt) for timer_channel_output_fast_config(unsigned, unsigned short, unsigned short)
    display.o(i._ZN7Display10initPeriphEv) refers to gd32f30x_timer.o(i._Z41timer_master_output_trigger_source_selectjj) for timer_master_output_trigger_source_select(unsigned, unsigned)
    display.o(i._ZN7Display10initPeriphEv) refers to gd32f30x_timer.o(i._Z30timer_master_slave_mode_configjh) for timer_master_slave_mode_config(unsigned, unsigned char)
    display.o(i._ZN7Display10initPeriphEv) refers to gd32f30x_timer.o(i._Z12timer_enablej) for timer_enable(unsigned)
    display.o(i._ZN7Display10initializeEv) refers to display.o(i._ZN7Display10initPeriphEv) for Display::initPeriph()
    display.o(i._ZN7Display10initializeEv) refers to gd32f30x_gpio.o(i._Z12gpio_bit_setjj) for gpio_bit_set(unsigned, unsigned)
    display.o(i._ZN7Display10initializeEv) refers to core.o(i._ZN4Core7delayMsEj) for Core::delayMs(unsigned)
    display.o(i._ZN7Display10initializeEv) refers to gd32f30x_gpio.o(i._Z14gpio_bit_resetjj) for gpio_bit_reset(unsigned, unsigned)
    display.o(i._ZN7Display10initializeEv) refers to display.o(i._ZN7Display12writeCommandEh) for Display::writeCommand(unsigned char)
    display.o(i._ZN7Display10initializeEv) refers to display.o(i._ZN7Display9writeDataEh) for Display::writeData(unsigned char)
    display.o(i._ZN7Display10initializeEv) refers to core.o(.bss) for core
    display.o(i._ZN7Display10resetTimerEv) refers to core.o(i._ZN4Core7getTickEv) for Core::getTick()
    display.o(i._ZN7Display10resetTimerEv) refers to core.o(.bss) for core
    display.o(i._ZN7Display10writeColorEj) refers to display.o(i._ZN7Display9writeDataEh) for Display::writeData(unsigned char)
    display.o(i._ZN7Display12writeCommandEh) refers to sleep.o(i._ZN5Sleep11setLowPowerEb) for Sleep::setLowPower(bool)
    display.o(i._ZN7Display12writeCommandEh) refers to gd32f30x_gpio.o(i._Z14gpio_bit_resetjj) for gpio_bit_reset(unsigned, unsigned)
    display.o(i._ZN7Display12writeCommandEh) refers to gd32f30x_spi.o(i._Z16spi_i2s_flag_getjj) for spi_i2s_flag_get(unsigned, unsigned)
    display.o(i._ZN7Display12writeCommandEh) refers to gd32f30x_spi.o(i._Z21spi_i2s_data_transmitjt) for spi_i2s_data_transmit(unsigned, unsigned short)
    display.o(i._ZN7Display12writeCommandEh) refers to gd32f30x_gpio.o(i._Z12gpio_bit_setjj) for gpio_bit_set(unsigned, unsigned)
    display.o(i._ZN7Display12writeCommandEh) refers to sleep.o(.data) for sleep
    display.o(i._ZN7Display13setAddrWindowEtttt) refers to display.o(i._ZN7Display12writeCommandEh) for Display::writeCommand(unsigned char)
    display.o(i._ZN7Display13setAddrWindowEtttt) refers to display.o(i._ZN7Display9writeDataEh) for Display::writeData(unsigned char)
    display.o(i._ZN7Display13setResolutionEh) refers to display.o(i._ZN7Display12writeCommandEh) for Display::writeCommand(unsigned char)
    display.o(i._ZN7Display13setResolutionEh) refers to display.o(i._ZN7Display9writeDataEh) for Display::writeData(unsigned char)
    display.o(i._ZN7Display13writeDataFastEh) refers to sleep.o(i._ZN5Sleep11setLowPowerEb) for Sleep::setLowPower(bool)
    display.o(i._ZN7Display13writeDataFastEh) refers to gd32f30x_spi.o(i._Z16spi_i2s_flag_getjj) for spi_i2s_flag_get(unsigned, unsigned)
    display.o(i._ZN7Display13writeDataFastEh) refers to gd32f30x_spi.o(i._Z21spi_i2s_data_transmitjt) for spi_i2s_data_transmit(unsigned, unsigned short)
    display.o(i._ZN7Display13writeDataFastEh) refers to sleep.o(.data) for sleep
    display.o(i._ZN7Display14writeColorFastEj) refers to sleep.o(i._ZN5Sleep11setLowPowerEb) for Sleep::setLowPower(bool)
    display.o(i._ZN7Display14writeColorFastEj) refers to display.o(i._ZN7Display9writeDataEh) for Display::writeData(unsigned char)
    display.o(i._ZN7Display14writeColorFastEj) refers to sleep.o(.data) for sleep
    display.o(i._ZN7Display4testEt) refers to display.o(i._ZN7Display12writeCommandEh) for Display::writeCommand(unsigned char)
    display.o(i._ZN7Display4testEt) refers to display.o(i._ZN7Display9writeDataEh) for Display::writeData(unsigned char)
    display.o(i._ZN7Display7turnOffEv) refers to display.o(i._ZN7Display12writeCommandEh) for Display::writeCommand(unsigned char)
    display.o(i._ZN7Display8getTimerEv) refers to core.o(i._ZN4Core7getTickEv) for Core::getTick()
    display.o(i._ZN7Display8getTimerEv) refers to core.o(.bss) for core
    display.o(i._ZN7Display8setLightEt) refers to gd32f30x_timer.o(i._Z39timer_channel_output_pulse_value_configjtj) for timer_channel_output_pulse_value_config(unsigned, unsigned short, unsigned)
    display.o(i._ZN7Display8setTimerEj) refers to core.o(i._ZN4Core7getTickEv) for Core::getTick()
    display.o(i._ZN7Display8setTimerEj) refers to core.o(.bss) for core
    display.o(i._ZN7Display8switchOnEv) refers to display.o(i._ZN7Display12writeCommandEh) for Display::writeCommand(unsigned char)
    display.o(i._ZN7Display9writeDataEh) refers to sleep.o(i._ZN5Sleep11setLowPowerEb) for Sleep::setLowPower(bool)
    display.o(i._ZN7Display9writeDataEh) refers to gd32f30x_gpio.o(i._Z14gpio_bit_resetjj) for gpio_bit_reset(unsigned, unsigned)
    display.o(i._ZN7Display9writeDataEh) refers to gd32f30x_spi.o(i._Z16spi_i2s_flag_getjj) for spi_i2s_flag_get(unsigned, unsigned)
    display.o(i._ZN7Display9writeDataEh) refers to gd32f30x_spi.o(i._Z21spi_i2s_data_transmitjt) for spi_i2s_data_transmit(unsigned, unsigned short)
    display.o(i._ZN7Display9writeDataEh) refers to gd32f30x_gpio.o(i._Z12gpio_bit_setjj) for gpio_bit_set(unsigned, unsigned)
    display.o(i._ZN7Display9writeDataEh) refers to sleep.o(.data) for sleep
    display.o(i._ZN7DisplayC1Ev) refers to display.o(i._ZN7Display8setTimerEj) for Display::setTimer(unsigned)
    display.o(i.__sti___11_display_cpp_display) refers to display.o(i._ZN7DisplayC1Ev) for Display::Display()
    display.o(i.__sti___11_display_cpp_display) refers to display.o(.bss) for display
    display.o(.ARM.exidx) refers to display.o(i._ZN7Display8setTimerEj) for i._ZN7Display8setTimerEj
    display.o(.ARM.exidx) refers to display.o(i._ZN7DisplayC1Ev) for i._ZN7DisplayC1Ev
    display.o(.ARM.exidx) refers to display.o(i._ZN7Display12writeCommandEh) for i._ZN7Display12writeCommandEh
    display.o(.ARM.exidx) refers to display.o(i._ZN7Display9writeDataEh) for i._ZN7Display9writeDataEh
    display.o(.ARM.exidx) refers to display.o(i._ZN7Display10initPeriphEv) for i._ZN7Display10initPeriphEv
    display.o(.ARM.exidx) refers to display.o(i._ZN7Display10initializeEv) for i._ZN7Display10initializeEv
    display.o(.ARM.exidx) refers to display.o(i._ZN7Display13setResolutionEh) for i._ZN7Display13setResolutionEh
    display.o(.ARM.exidx) refers to display.o(i._ZN7Display8setLightEt) for i._ZN7Display8setLightEt
    display.o(.ARM.exidx) refers to display.o(i._ZN7Display13setAddrWindowEtttt) for i._ZN7Display13setAddrWindowEtttt
    display.o(.ARM.exidx) refers to display.o(i._ZN7Display13writeDataFastEh) for i._ZN7Display13writeDataFastEh
    display.o(.ARM.exidx) refers to display.o(i._ZN7Display10writeColorEj) for i._ZN7Display10writeColorEj
    display.o(.ARM.exidx) refers to display.o(i._ZN7Display14writeColorFastEj) for i._ZN7Display14writeColorFastEj
    display.o(.ARM.exidx) refers to display.o(i._ZN7Display4testEt) for i._ZN7Display4testEt
    display.o(.ARM.exidx) refers to display.o(i._ZN7Display7turnOffEv) for i._ZN7Display7turnOffEv
    display.o(.ARM.exidx) refers to display.o(i._ZN7Display8switchOnEv) for i._ZN7Display8switchOnEv
    display.o(.ARM.exidx) refers to display.o(i._ZN7Display8getTimerEv) for i._ZN7Display8getTimerEv
    display.o(.ARM.exidx) refers to display.o(i._ZN7Display10resetTimerEv) for i._ZN7Display10resetTimerEv
    display.o(.ARM.exidx) refers to display.o(i.__sti___11_display_cpp_display) for i.__sti___11_display_cpp_display
    display.o(.init_array) refers to display.o(i.__sti___11_display_cpp_display) for __sti___11_display_cpp_display
    display.o(.init_array) refers to init_aeabi.o(.text) for __cpp_initialize__aeabi_
    sensor.o(i.EXTI0_IRQHandler) refers to gd32f30x_exti.o(i._Z23exti_interrupt_flag_get14exti_line_enum) for exti_interrupt_flag_get(exti_line_enum)
    sensor.o(i.EXTI0_IRQHandler) refers to gd32f30x_exti.o(i._Z25exti_interrupt_flag_clear14exti_line_enum) for exti_interrupt_flag_clear(exti_line_enum)
    sensor.o(i.EXTI0_IRQHandler) refers to gd32f30x_gpio.o(i._Z18gpio_input_bit_getjj) for gpio_input_bit_get(unsigned, unsigned)
    sensor.o(i.EXTI0_IRQHandler) refers to core.o(i._ZN4Core7getTickEv) for Core::getTick()
    sensor.o(i.EXTI0_IRQHandler) refers to sensor.o(.bss) for sensor
    sensor.o(i.EXTI0_IRQHandler) refers to core.o(.bss) for core
    sensor.o(i.EXTI5_9_IRQHandler) refers to gd32f30x_exti.o(i._Z23exti_interrupt_flag_get14exti_line_enum) for exti_interrupt_flag_get(exti_line_enum)
    sensor.o(i.EXTI5_9_IRQHandler) refers to gd32f30x_exti.o(i._Z25exti_interrupt_flag_clear14exti_line_enum) for exti_interrupt_flag_clear(exti_line_enum)
    sensor.o(i.EXTI5_9_IRQHandler) refers to sensor.o(.bss) for sensor
    sensor.o(i._ZN6Sensor10initButtonEv) refers to gd32f30x_rcu.o(i._Z23rcu_periph_clock_enable15rcu_periph_enum) for rcu_periph_clock_enable(rcu_periph_enum)
    sensor.o(i._ZN6Sensor10initButtonEv) refers to gd32f30x_gpio.o(i._Z9gpio_initjjjj) for gpio_init(unsigned, unsigned, unsigned, unsigned)
    sensor.o(i._ZN6Sensor10initButtonEv) refers to gd32f30x_misc.o(i._Z15nvic_irq_enablehhh) for nvic_irq_enable(unsigned char, unsigned char, unsigned char)
    sensor.o(i._ZN6Sensor10initButtonEv) refers to gd32f30x_gpio.o(i._Z23gpio_exti_source_selecthh) for gpio_exti_source_select(unsigned char, unsigned char)
    sensor.o(i._ZN6Sensor10initButtonEv) refers to gd32f30x_exti.o(i._Z9exti_init14exti_line_enum14exti_mode_enum19exti_trig_type_enum) for exti_init(exti_line_enum, exti_mode_enum, exti_trig_type_enum)
    sensor.o(i._ZN6Sensor10initButtonEv) refers to gd32f30x_exti.o(i._Z25exti_interrupt_flag_clear14exti_line_enum) for exti_interrupt_flag_clear(exti_line_enum)
    sensor.o(i._ZN6Sensor10initializeEv) refers to gd32f30x_rcu.o(i._Z23rcu_periph_clock_enable15rcu_periph_enum) for rcu_periph_clock_enable(rcu_periph_enum)
    sensor.o(i._ZN6Sensor10initializeEv) refers to gd32f30x_gpio.o(i._Z9gpio_initjjjj) for gpio_init(unsigned, unsigned, unsigned, unsigned)
    sensor.o(i._ZN6Sensor10initializeEv) refers to gd32f30x_i2c.o(i._Z10i2c_deinitj) for i2c_deinit(unsigned)
    sensor.o(i._ZN6Sensor10initializeEv) refers to gd32f30x_i2c.o(i._Z16i2c_clock_configjjj) for i2c_clock_config(unsigned, unsigned, unsigned)
    sensor.o(i._ZN6Sensor10initializeEv) refers to gd32f30x_i2c.o(i._Z20i2c_mode_addr_configjjjj) for i2c_mode_addr_config(unsigned, unsigned, unsigned, unsigned)
    sensor.o(i._ZN6Sensor10initializeEv) refers to gd32f30x_i2c.o(i._Z10i2c_enablej) for i2c_enable(unsigned)
    sensor.o(i._ZN6Sensor10initializeEv) refers to gd32f30x_i2c.o(i._Z14i2c_ack_configjj) for i2c_ack_config(unsigned, unsigned)
    sensor.o(i._ZN6Sensor10initializeEv) refers to gd32f30x_gpio.o(i._Z14gpio_bit_resetjj) for gpio_bit_reset(unsigned, unsigned)
    sensor.o(i._ZN6Sensor10initializeEv) refers to core.o(i._ZN4Core7delayMsEj) for Core::delayMs(unsigned)
    sensor.o(i._ZN6Sensor10initializeEv) refers to gd32f30x_gpio.o(i._Z12gpio_bit_setjj) for gpio_bit_set(unsigned, unsigned)
    sensor.o(i._ZN6Sensor10initializeEv) refers to sensor.o(i._ZN6Sensor10initButtonEv) for Sensor::initButton()
    sensor.o(i._ZN6Sensor10initializeEv) refers to gd32f30x_misc.o(i._Z15nvic_irq_enablehhh) for nvic_irq_enable(unsigned char, unsigned char, unsigned char)
    sensor.o(i._ZN6Sensor10initializeEv) refers to gd32f30x_gpio.o(i._Z23gpio_exti_source_selecthh) for gpio_exti_source_select(unsigned char, unsigned char)
    sensor.o(i._ZN6Sensor10initializeEv) refers to gd32f30x_exti.o(i._Z9exti_init14exti_line_enum14exti_mode_enum19exti_trig_type_enum) for exti_init(exti_line_enum, exti_mode_enum, exti_trig_type_enum)
    sensor.o(i._ZN6Sensor10initializeEv) refers to gd32f30x_exti.o(i._Z25exti_interrupt_flag_clear14exti_line_enum) for exti_interrupt_flag_clear(exti_line_enum)
    sensor.o(i._ZN6Sensor10initializeEv) refers to core.o(.bss) for core
    sensor.o(i._ZN6Sensor12getTickTouchEv) refers to core.o(i._ZN4Core7getTickEv) for Core::getTick()
    sensor.o(i._ZN6Sensor12getTickTouchEv) refers to core.o(.bss) for core
    sensor.o(i._ZN6Sensor14resetTickTouchEv) refers to core.o(i._ZN4Core7getTickEv) for Core::getTick()
    sensor.o(i._ZN6Sensor14resetTickTouchEv) refers to core.o(.bss) for core
    sensor.o(i._ZN6Sensor4readEPhhh) refers to core.o(i._ZN4Core7getTickEv) for Core::getTick()
    sensor.o(i._ZN6Sensor4readEPhhh) refers to gd32f30x_i2c.o(i._Z15i2c_stop_on_busj) for i2c_stop_on_bus(unsigned)
    sensor.o(i._ZN6Sensor4readEPhhh) refers to gd32f30x_i2c.o(i._Z12i2c_flag_getjj) for i2c_flag_get(unsigned, unsigned)
    sensor.o(i._ZN6Sensor4readEPhhh) refers to gd32f30x_i2c.o(i._Z16i2c_start_on_busj) for i2c_start_on_bus(unsigned)
    sensor.o(i._ZN6Sensor4readEPhhh) refers to gd32f30x_i2c.o(i._Z21i2c_master_addressingjjj) for i2c_master_addressing(unsigned, unsigned, unsigned)
    sensor.o(i._ZN6Sensor4readEPhhh) refers to gd32f30x_i2c.o(i._Z10i2c_enablej) for i2c_enable(unsigned)
    sensor.o(i._ZN6Sensor4readEPhhh) refers to gd32f30x_i2c.o(i._Z17i2c_data_transmitjh) for i2c_data_transmit(unsigned, unsigned char)
    sensor.o(i._ZN6Sensor4readEPhhh) refers to gd32f30x_i2c.o(i._Z14i2c_ack_configjj) for i2c_ack_config(unsigned, unsigned)
    sensor.o(i._ZN6Sensor4readEPhhh) refers to gd32f30x_i2c.o(i._Z16i2c_data_receivej) for i2c_data_receive(unsigned)
    sensor.o(i._ZN6Sensor4readEPhhh) refers to gd32f30x_i2c.o(i._Z17i2c_ackpos_configjj) for i2c_ackpos_config(unsigned, unsigned)
    sensor.o(i._ZN6Sensor4readEPhhh) refers to core.o(.bss) for core
    sensor.o(i._ZN6Sensor5writeEPhhh) refers to gd32f30x_i2c.o(i._Z16i2c_start_on_busj) for i2c_start_on_bus(unsigned)
    sensor.o(i._ZN6Sensor5writeEPhhh) refers to gd32f30x_i2c.o(i._Z12i2c_flag_getjj) for i2c_flag_get(unsigned, unsigned)
    sensor.o(i._ZN6Sensor5writeEPhhh) refers to gd32f30x_i2c.o(i._Z21i2c_master_addressingjjj) for i2c_master_addressing(unsigned, unsigned, unsigned)
    sensor.o(i._ZN6Sensor5writeEPhhh) refers to gd32f30x_i2c.o(i._Z14i2c_flag_clearjj) for i2c_flag_clear(unsigned, unsigned)
    sensor.o(i._ZN6Sensor5writeEPhhh) refers to gd32f30x_i2c.o(i._Z17i2c_data_transmitjh) for i2c_data_transmit(unsigned, unsigned char)
    sensor.o(i._ZN6Sensor5writeEPhhh) refers to gd32f30x_i2c.o(i._Z15i2c_stop_on_busj) for i2c_stop_on_bus(unsigned)
    sensor.o(i._ZN6Sensor7handlerEv) refers to core.o(i._ZN4Core7getTickEv) for Core::getTick()
    sensor.o(i._ZN6Sensor7handlerEv) refers to sensor.o(i._ZN6Sensor8testProgEv) for Sensor::testProg()
    sensor.o(i._ZN6Sensor7handlerEv) refers to sleep.o(.data) for sleep
    sensor.o(i._ZN6Sensor7handlerEv) refers to core.o(.bss) for core
    sensor.o(i._ZN6Sensor7handlerEv) refers to sensor.o(.data) for timer
    sensor.o(i._ZN6Sensor8testProgEv) refers to sensor.o(i._ZN6Sensor4readEPhhh) for Sensor::read(unsigned char*, unsigned char, unsigned char)
    sensor.o(i._ZN6Sensor8testProgEv) refers to sensor.o(i._ZN6Sensor10initializeEv) for Sensor::initialize()
    sensor.o(i._ZN6Sensor8testProgEv) refers to sensor.o(.data) for counter
    sensor.o(.ARM.exidx) refers to sensor.o(i.EXTI5_9_IRQHandler) for i.EXTI5_9_IRQHandler
    sensor.o(.ARM.exidx) refers to sensor.o(i.EXTI0_IRQHandler) for i.EXTI0_IRQHandler
    sensor.o(.ARM.exidx) refers to sensor.o(i._ZN6Sensor10initButtonEv) for i._ZN6Sensor10initButtonEv
    sensor.o(.ARM.exidx) refers to sensor.o(i._ZN6Sensor10initializeEv) for i._ZN6Sensor10initializeEv
    sensor.o(.ARM.exidx) refers to sensor.o(i._ZN6Sensor4readEPhhh) for i._ZN6Sensor4readEPhhh
    sensor.o(.ARM.exidx) refers to sensor.o(i._ZN6Sensor8testProgEv) for i._ZN6Sensor8testProgEv
    sensor.o(.ARM.exidx) refers to sensor.o(i._ZN6Sensor7handlerEv) for i._ZN6Sensor7handlerEv
    sensor.o(.ARM.exidx) refers to sensor.o(i._ZN6Sensor12getTickTouchEv) for i._ZN6Sensor12getTickTouchEv
    sensor.o(.ARM.exidx) refers to sensor.o(i._ZN6Sensor14resetTickTouchEv) for i._ZN6Sensor14resetTickTouchEv
    sensor.o(.ARM.exidx) refers to sensor.o(i._ZN6Sensor5writeEPhhh) for i._ZN6Sensor5writeEPhhh
    font.o(.data) refers to font.o(.constdata) for Font7x10
    gd32f30x_can.o(i._Z10can_deinitj) refers to gd32f30x_rcu.o(i._Z23rcu_periph_reset_enable21rcu_periph_reset_enum) for rcu_periph_reset_enable(rcu_periph_reset_enum)
    gd32f30x_can.o(i._Z10can_deinitj) refers to gd32f30x_rcu.o(i._Z24rcu_periph_reset_disable21rcu_periph_reset_enum) for rcu_periph_reset_disable(rcu_periph_reset_enum)
    gd32f30x_can.o(i._Z22can_interrupt_flag_getj23can_interrupt_flag_enum) refers to gd32f30x_can.o(i._Z30can_receive_message_length_getjh) for can_receive_message_length_get(unsigned, unsigned char)
    gd32f30x_can.o(i._Z22can_interrupt_flag_getj23can_interrupt_flag_enum) refers to gd32f30x_can.o(i._Z13can_error_getj) for can_error_get(unsigned)
    gd32f30x_can.o(i._Z23can_debug_freeze_enablej) refers to gd32f30x_dbg.o(i._Z17dbg_periph_enable15dbg_periph_enum) for dbg_periph_enable(dbg_periph_enum)
    gd32f30x_can.o(i._Z24can_debug_freeze_disablej) refers to gd32f30x_dbg.o(i._Z17dbg_periph_enable15dbg_periph_enum) for dbg_periph_enable(dbg_periph_enum)
    gd32f30x_can.o(.ARM.exidx) refers to gd32f30x_can.o(i._Z10can_deinitj) for i._Z10can_deinitj
    gd32f30x_can.o(.ARM.exidx) refers to gd32f30x_can.o(i._Z20can_struct_para_init20can_struct_type_enumPv) for i._Z20can_struct_para_init20can_struct_type_enumPv
    gd32f30x_can.o(.ARM.exidx) refers to gd32f30x_can.o(i._Z8can_initjP20can_parameter_struct) for i._Z8can_initjP20can_parameter_struct
    gd32f30x_can.o(.ARM.exidx) refers to gd32f30x_can.o(i._Z15can_filter_initP27can_filter_parameter_struct) for i._Z15can_filter_initP27can_filter_parameter_struct
    gd32f30x_can.o(.ARM.exidx) refers to gd32f30x_can.o(i._Z22can1_filter_start_bankh) for i._Z22can1_filter_start_bankh
    gd32f30x_can.o(.ARM.exidx) refers to gd32f30x_can.o(i._Z23can_debug_freeze_enablej) for i._Z23can_debug_freeze_enablej
    gd32f30x_can.o(.ARM.exidx) refers to gd32f30x_can.o(i._Z24can_debug_freeze_disablej) for i._Z24can_debug_freeze_disablej
    gd32f30x_can.o(.ARM.exidx) refers to gd32f30x_can.o(i._Z28can_time_trigger_mode_enablej) for i._Z28can_time_trigger_mode_enablej
    gd32f30x_can.o(.ARM.exidx) refers to gd32f30x_can.o(i._Z29can_time_trigger_mode_disablej) for i._Z29can_time_trigger_mode_disablej
    gd32f30x_can.o(.ARM.exidx) refers to gd32f30x_can.o(i._Z20can_message_transmitjP27can_trasnmit_message_struct) for i._Z20can_message_transmitjP27can_trasnmit_message_struct
    gd32f30x_can.o(.ARM.exidx) refers to gd32f30x_can.o(i._Z19can_transmit_statesjh) for i._Z19can_transmit_statesjh
    gd32f30x_can.o(.ARM.exidx) refers to gd32f30x_can.o(i._Z21can_transmission_stopjh) for i._Z21can_transmission_stopjh
    gd32f30x_can.o(.ARM.exidx) refers to gd32f30x_can.o(i._Z19can_message_receivejhP26can_receive_message_struct) for i._Z19can_message_receivejhP26can_receive_message_struct
    gd32f30x_can.o(.ARM.exidx) refers to gd32f30x_can.o(i._Z16can_fifo_releasejh) for i._Z16can_fifo_releasejh
    gd32f30x_can.o(.ARM.exidx) refers to gd32f30x_can.o(i._Z30can_receive_message_length_getjh) for i._Z30can_receive_message_length_getjh
    gd32f30x_can.o(.ARM.exidx) refers to gd32f30x_can.o(i._Z20can_working_mode_setjh) for i._Z20can_working_mode_setjh
    gd32f30x_can.o(.ARM.exidx) refers to gd32f30x_can.o(i._Z10can_wakeupj) for i._Z10can_wakeupj
    gd32f30x_can.o(.ARM.exidx) refers to gd32f30x_can.o(i._Z13can_error_getj) for i._Z13can_error_getj
    gd32f30x_can.o(.ARM.exidx) refers to gd32f30x_can.o(i._Z28can_receive_error_number_getj) for i._Z28can_receive_error_number_getj
    gd32f30x_can.o(.ARM.exidx) refers to gd32f30x_can.o(i._Z29can_transmit_error_number_getj) for i._Z29can_transmit_error_number_getj
    gd32f30x_can.o(.ARM.exidx) refers to gd32f30x_can.o(i._Z20can_interrupt_enablejj) for i._Z20can_interrupt_enablejj
    gd32f30x_can.o(.ARM.exidx) refers to gd32f30x_can.o(i._Z21can_interrupt_disablejj) for i._Z21can_interrupt_disablejj
    gd32f30x_can.o(.ARM.exidx) refers to gd32f30x_can.o(i._Z12can_flag_getj13can_flag_enum) for i._Z12can_flag_getj13can_flag_enum
    gd32f30x_can.o(.ARM.exidx) refers to gd32f30x_can.o(i._Z14can_flag_clearj13can_flag_enum) for i._Z14can_flag_clearj13can_flag_enum
    gd32f30x_can.o(.ARM.exidx) refers to gd32f30x_can.o(i._Z22can_interrupt_flag_getj23can_interrupt_flag_enum) for i._Z22can_interrupt_flag_getj23can_interrupt_flag_enum
    gd32f30x_can.o(.ARM.exidx) refers to gd32f30x_can.o(i._Z24can_interrupt_flag_clearj23can_interrupt_flag_enum) for i._Z24can_interrupt_flag_clearj23can_interrupt_flag_enum
    unix_time.o(.ARM.exidx) refers to unix_time.o(i._ZN8UnixTime10timerToCalEm) for i._ZN8UnixTime10timerToCalEm
    unix_time.o(.ARM.exidx) refers to unix_time.o(i._ZN8UnixTime10calToTimerEv) for i._ZN8UnixTime10calToTimerEv
    hcu.o(i._ZN3Hcu7handlerEv) refers to core.o(i._ZN4Core7getTickEv) for Core::getTick()
    hcu.o(i._ZN3Hcu7handlerEv) refers to usart.o(i._ZN5Usart14processTimeOutEv) for Usart::processTimeOut()
    hcu.o(i._ZN3Hcu7handlerEv) refers to core.o(i._ZN4Core8farToCelEf) for Core::farToCel(float)
    hcu.o(i._ZN3Hcu7handlerEv) refers to usart.o(i._ZN5Usart17startTransmissionEv) for Usart::startTransmission()
    hcu.o(i._ZN3Hcu7handlerEv) refers to usart.o(i._ZN5Usart19processReceivedDataEv) for Usart::processReceivedData()
    hcu.o(i._ZN3Hcu7handlerEv) refers to hcu.o(i._ZN3Hcu7parsingEv) for Hcu::parsing()
    hcu.o(i._ZN3Hcu7handlerEv) refers to core.o(.bss) for core
    hcu.o(i._ZN3Hcu7handlerEv) refers to hcu.o(.data) for timerTimeOut
    hcu.o(i._ZN3Hcu7handlerEv) refers to usart.o(.bss) for usart
    hcu.o(i._ZN3Hcu7handlerEv) refers to system.o(.bss) for air
    hcu.o(i._ZN3Hcu7handlerEv) refers to display.o(.bss) for display
    hcu.o(i._ZN3Hcu7handlerEv) refers to temperature.o(.bss) for temperature
    hcu.o(i._ZN3Hcu7handlerEv) refers to error.o(.data) for error
    hcu.o(i._ZN3Hcu7parsingEv) refers to core.o(i._ZN4Core7getTickEv) for Core::getTick()
    hcu.o(i._ZN3Hcu7parsingEv) refers to dflt_clz.o(x$fpl$dflt) for __aeabi_i2d
    hcu.o(i._ZN3Hcu7parsingEv) refers to ddiv.o(x$fpl$ddiv) for __aeabi_ddiv
    hcu.o(i._ZN3Hcu7parsingEv) refers to d2f.o(x$fpl$d2f) for __aeabi_d2f
    hcu.o(i._ZN3Hcu7parsingEv) refers to dfix.o(x$fpl$dfix) for __aeabi_d2iz
    hcu.o(i._ZN3Hcu7parsingEv) refers to core.o(i._ZN4Core8celToFarEf) for Core::celToFar(float)
    hcu.o(i._ZN3Hcu7parsingEv) refers to core.o(.bss) for core
    hcu.o(i._ZN3Hcu7parsingEv) refers to usart.o(.bss) for usart
    hcu.o(i._ZN3Hcu7parsingEv) refers to system.o(.bss) for air
    hcu.o(i._ZN3Hcu7parsingEv) refers to slider.o(.bss) for slider
    hcu.o(i._ZN3Hcu7parsingEv) refers to hcu.o(.bss) for hcu
    hcu.o(i._ZN3Hcu7parsingEv) refers to display.o(.bss) for display
    hcu.o(i._ZN3Hcu7parsingEv) refers to pgn_rvc.o(.bss) for canPGNRVC
    hcu.o(i._ZN3Hcu7parsingEv) refers to dflt_clz.o(x$fpl$dfltu) for __aeabi_ui2d
    hcu.o(i._ZN3Hcu9checkPumpEv) refers to core.o(i._ZN4Core7getTickEv) for Core::getTick()
    hcu.o(i._ZN3Hcu9checkPumpEv) refers to hcu.o(.bss) for hcu
    hcu.o(i._ZN3Hcu9checkPumpEv) refers to core.o(.bss) for core
    hcu.o(i.__sti___7_hcu_cpp_hcu) refers to hcu.o(i._ZN3HcuC1Ev) for Hcu::Hcu()
    hcu.o(i.__sti___7_hcu_cpp_hcu) refers to hcu.o(.bss) for hcu
    hcu.o(.ARM.exidx) refers to hcu.o(i._ZN3HcuC1Ev) for i._ZN3HcuC1Ev
    hcu.o(.ARM.exidx) refers to hcu.o(i._ZN3Hcu7parsingEv) for i._ZN3Hcu7parsingEv
    hcu.o(.ARM.exidx) refers to hcu.o(i._ZN3Hcu7handlerEv) for i._ZN3Hcu7handlerEv
    hcu.o(.ARM.exidx) refers to hcu.o(i._ZN3Hcu9checkPumpEv) for i._ZN3Hcu9checkPumpEv
    hcu.o(.ARM.exidx) refers to hcu.o(i.__sti___7_hcu_cpp_hcu) for i.__sti___7_hcu_cpp_hcu
    hcu.o(.init_array) refers to hcu.o(i.__sti___7_hcu_cpp_hcu) for __sti___7_hcu_cpp_hcu
    hcu.o(.init_array) refers to init_aeabi.o(.text) for __cpp_initialize__aeabi_
    usart.o(i.USART0_IRQHandler) refers to gd32f30x_usart.o(i._Z24usart_interrupt_flag_getjj) for usart_interrupt_flag_get(unsigned, unsigned)
    usart.o(i.USART0_IRQHandler) refers to gd32f30x_usart.o(i._Z26usart_interrupt_flag_clearjj) for usart_interrupt_flag_clear(unsigned, unsigned)
    usart.o(i.USART0_IRQHandler) refers to gd32f30x_usart.o(i._Z18usart_data_receivej) for usart_data_receive(unsigned)
    usart.o(i.USART0_IRQHandler) refers to usart.o(i._ZN5Usart17receiveIntHandlerEh) for Usart::receiveIntHandler(unsigned char)
    usart.o(i.USART0_IRQHandler) refers to usart.o(i._ZN5Usart16transmitNextByteEv) for Usart::transmitNextByte()
    usart.o(i.USART0_IRQHandler) refers to usart.o(.bss) for usart
    usart.o(i._ZN5Usart10initializeEv) refers to gd32f30x_rcu.o(i._Z23rcu_periph_clock_enable15rcu_periph_enum) for rcu_periph_clock_enable(rcu_periph_enum)
    usart.o(i._ZN5Usart10initializeEv) refers to gd32f30x_gpio.o(i._Z9gpio_initjjjj) for gpio_init(unsigned, unsigned, unsigned, unsigned)
    usart.o(i._ZN5Usart10initializeEv) refers to gd32f30x_usart.o(i._Z12usart_deinitj) for usart_deinit(unsigned)
    usart.o(i._ZN5Usart10initializeEv) refers to gd32f30x_usart.o(i._Z13usart_disablej) for usart_disable(unsigned)
    usart.o(i._ZN5Usart10initializeEv) refers to gd32f30x_usart.o(i._Z18usart_baudrate_setjj) for usart_baudrate_set(unsigned, unsigned)
    usart.o(i._ZN5Usart10initializeEv) refers to gd32f30x_usart.o(i._Z21usart_word_length_setjj) for usart_word_length_set(unsigned, unsigned)
    usart.o(i._ZN5Usart10initializeEv) refers to gd32f30x_usart.o(i._Z18usart_stop_bit_setjj) for usart_stop_bit_set(unsigned, unsigned)
    usart.o(i._ZN5Usart10initializeEv) refers to gd32f30x_usart.o(i._Z19usart_parity_configjj) for usart_parity_config(unsigned, unsigned)
    usart.o(i._ZN5Usart10initializeEv) refers to gd32f30x_usart.o(i._Z23usart_data_first_configjj) for usart_data_first_config(unsigned, unsigned)
    usart.o(i._ZN5Usart10initializeEv) refers to gd32f30x_usart.o(i._Z21usart_transmit_configjj) for usart_transmit_config(unsigned, unsigned)
    usart.o(i._ZN5Usart10initializeEv) refers to gd32f30x_usart.o(i._Z20usart_receive_configjj) for usart_receive_config(unsigned, unsigned)
    usart.o(i._ZN5Usart10initializeEv) refers to gd32f30x_usart.o(i._Z25usart_dma_transmit_configjj) for usart_dma_transmit_config(unsigned, unsigned)
    usart.o(i._ZN5Usart10initializeEv) refers to gd32f30x_usart.o(i._Z24usart_dma_receive_configjj) for usart_dma_receive_config(unsigned, unsigned)
    usart.o(i._ZN5Usart10initializeEv) refers to gd32f30x_usart.o(i._Z22usart_interrupt_enablejj) for usart_interrupt_enable(unsigned, unsigned)
    usart.o(i._ZN5Usart10initializeEv) refers to gd32f30x_misc.o(i._Z15nvic_irq_enablehhh) for nvic_irq_enable(unsigned char, unsigned char, unsigned char)
    usart.o(i._ZN5Usart10initializeEv) refers to gd32f30x_usart.o(i._Z12usart_enablej) for usart_enable(unsigned)
    usart.o(i._ZN5Usart14changeBaudrateEj) refers to gd32f30x_usart.o(i._Z13usart_disablej) for usart_disable(unsigned)
    usart.o(i._ZN5Usart14changeBaudrateEj) refers to gd32f30x_usart.o(i._Z18usart_baudrate_setjj) for usart_baudrate_set(unsigned, unsigned)
    usart.o(i._ZN5Usart14changeBaudrateEj) refers to gd32f30x_usart.o(i._Z12usart_enablej) for usart_enable(unsigned)
    usart.o(i._ZN5Usart16transmitNextByteEv) refers to gd32f30x_usart.o(i._Z19usart_data_transmitjj) for usart_data_transmit(unsigned, unsigned)
    usart.o(i._ZN5Usart16transmitNextByteEv) refers to gd32f30x_usart.o(i._Z23usart_interrupt_disablejj) for usart_interrupt_disable(unsigned, unsigned)
    usart.o(i._ZN5Usart17startTransmissionEv) refers to gd32f30x_usart.o(i._Z22usart_interrupt_enablejj) for usart_interrupt_enable(unsigned, unsigned)
    usart.o(i._ZN5Usart17startTransmissionEv) refers to gd32f30x_usart.o(i._Z19usart_data_transmitjj) for usart_data_transmit(unsigned, unsigned)
    usart.o(i._ZN5Usart7handlerEv) refers to cxa_guard_acquire.o(i.__cxa_guard_acquire) for __cxa_guard_acquire
    usart.o(i._ZN5Usart7handlerEv) refers to core.o(i._ZN4Core7getTickEv) for Core::getTick()
    usart.o(i._ZN5Usart7handlerEv) refers to usart.o(i._ZN5Usart14processTimeOutEv) for Usart::processTimeOut()
    usart.o(i._ZN5Usart7handlerEv) refers to usart.o(.data) for _ZGVtimer
    usart.o(i._ZN5Usart7handlerEv) refers to core.o(.bss) for core
    usart.o(i.__sti___9_usart_cpp_usart) refers to usart.o(i._ZN5UsartC1Ev) for Usart::Usart()
    usart.o(i.__sti___9_usart_cpp_usart) refers to usart.o(.bss) for usart
    usart.o(.ARM.exidx) refers to usart.o(i._ZN5Usart16transmitNextByteEv) for i._ZN5Usart16transmitNextByteEv
    usart.o(.ARM.exidx) refers to usart.o(i._ZN5Usart17receiveIntHandlerEh) for i._ZN5Usart17receiveIntHandlerEh
    usart.o(.ARM.exidx) refers to usart.o(i.USART0_IRQHandler) for i.USART0_IRQHandler
    usart.o(.ARM.exidx) refers to usart.o(i._ZN5UsartC1Ev) for i._ZN5UsartC1Ev
    usart.o(.ARM.exidx) refers to usart.o(i._ZN5Usart10initializeEv) for i._ZN5Usart10initializeEv
    usart.o(.ARM.exidx) refers to usart.o(i._ZN5Usart14processTimeOutEv) for i._ZN5Usart14processTimeOutEv
    usart.o(.ARM.exidx) refers to usart.o(i._ZN5Usart7handlerEv) for i._ZN5Usart7handlerEv
    usart.o(.ARM.exidx) refers to usart.o(i._ZN5Usart14changeBaudrateEj) for i._ZN5Usart14changeBaudrateEj
    usart.o(.ARM.exidx) refers to usart.o(i._ZN5Usart19processReceivedDataEv) for i._ZN5Usart19processReceivedDataEv
    usart.o(.ARM.exidx) refers to usart.o(i._ZN5Usart17startTransmissionEv) for i._ZN5Usart17startTransmissionEv
    usart.o(.ARM.exidx) refers to usart.o(i.__sti___9_usart_cpp_usart) for i.__sti___9_usart_cpp_usart
    usart.o(.init_array) refers to usart.o(i.__sti___9_usart_cpp_usart) for __sti___9_usart_cpp_usart
    usart.o(.init_array) refers to init_aeabi.o(.text) for __cpp_initialize__aeabi_
    gd32f30x_adc.o(i._Z10adc_deinitj) refers to gd32f30x_rcu.o(i._Z23rcu_periph_reset_enable21rcu_periph_reset_enum) for rcu_periph_reset_enable(rcu_periph_reset_enum)
    gd32f30x_adc.o(i._Z10adc_deinitj) refers to gd32f30x_rcu.o(i._Z24rcu_periph_reset_disable21rcu_periph_reset_enum) for rcu_periph_reset_disable(rcu_periph_reset_enum)
    gd32f30x_adc.o(.ARM.exidx) refers to gd32f30x_adc.o(i._Z10adc_deinitj) for i._Z10adc_deinitj
    gd32f30x_adc.o(.ARM.exidx) refers to gd32f30x_adc.o(i._Z10adc_enablej) for i._Z10adc_enablej
    gd32f30x_adc.o(.ARM.exidx) refers to gd32f30x_adc.o(i._Z11adc_disablej) for i._Z11adc_disablej
    gd32f30x_adc.o(.ARM.exidx) refers to gd32f30x_adc.o(i._Z22adc_calibration_enablej) for i._Z22adc_calibration_enablej
    gd32f30x_adc.o(.ARM.exidx) refers to gd32f30x_adc.o(i._Z19adc_dma_mode_enablej) for i._Z19adc_dma_mode_enablej
    gd32f30x_adc.o(.ARM.exidx) refers to gd32f30x_adc.o(i._Z20adc_dma_mode_disablej) for i._Z20adc_dma_mode_disablej
    gd32f30x_adc.o(.ARM.exidx) refers to gd32f30x_adc.o(i._Z29adc_tempsensor_vrefint_enablev) for i._Z29adc_tempsensor_vrefint_enablev
    gd32f30x_adc.o(.ARM.exidx) refers to gd32f30x_adc.o(i._Z30adc_tempsensor_vrefint_disablev) for i._Z30adc_tempsensor_vrefint_disablev
    gd32f30x_adc.o(.ARM.exidx) refers to gd32f30x_adc.o(i._Z21adc_resolution_configjj) for i._Z21adc_resolution_configjj
    gd32f30x_adc.o(.ARM.exidx) refers to gd32f30x_adc.o(i._Z29adc_discontinuous_mode_configjhh) for i._Z29adc_discontinuous_mode_configjhh
    gd32f30x_adc.o(.ARM.exidx) refers to gd32f30x_adc.o(i._Z15adc_mode_configj) for i._Z15adc_mode_configj
    gd32f30x_adc.o(.ARM.exidx) refers to gd32f30x_adc.o(i._Z27adc_special_function_configjj11EventStatus) for i._Z27adc_special_function_configjj11EventStatus
    gd32f30x_adc.o(.ARM.exidx) refers to gd32f30x_adc.o(i._Z25adc_data_alignment_configjj) for i._Z25adc_data_alignment_configjj
    gd32f30x_adc.o(.ARM.exidx) refers to gd32f30x_adc.o(i._Z25adc_channel_length_configjhj) for i._Z25adc_channel_length_configjhj
    gd32f30x_adc.o(.ARM.exidx) refers to gd32f30x_adc.o(i._Z26adc_regular_channel_configjhhj) for i._Z26adc_regular_channel_configjhhj
    gd32f30x_adc.o(.ARM.exidx) refers to gd32f30x_adc.o(i._Z27adc_inserted_channel_configjhhj) for i._Z27adc_inserted_channel_configjhhj
    gd32f30x_adc.o(.ARM.exidx) refers to gd32f30x_adc.o(i._Z34adc_inserted_channel_offset_configjht) for i._Z34adc_inserted_channel_offset_configjht
    gd32f30x_adc.o(.ARM.exidx) refers to gd32f30x_adc.o(i._Z27adc_external_trigger_configjh11EventStatus) for i._Z27adc_external_trigger_configjh11EventStatus
    gd32f30x_adc.o(.ARM.exidx) refers to gd32f30x_adc.o(i._Z34adc_external_trigger_source_configjhj) for i._Z34adc_external_trigger_source_configjhj
    gd32f30x_adc.o(.ARM.exidx) refers to gd32f30x_adc.o(i._Z27adc_software_trigger_enablejh) for i._Z27adc_software_trigger_enablejh
    gd32f30x_adc.o(.ARM.exidx) refers to gd32f30x_adc.o(i._Z21adc_regular_data_readj) for i._Z21adc_regular_data_readj
    gd32f30x_adc.o(.ARM.exidx) refers to gd32f30x_adc.o(i._Z22adc_inserted_data_readjh) for i._Z22adc_inserted_data_readjh
    gd32f30x_adc.o(.ARM.exidx) refers to gd32f30x_adc.o(i._Z32adc_sync_mode_convert_value_readv) for i._Z32adc_sync_mode_convert_value_readv
    gd32f30x_adc.o(.ARM.exidx) refers to gd32f30x_adc.o(i._Z12adc_flag_getjj) for i._Z12adc_flag_getjj
    gd32f30x_adc.o(.ARM.exidx) refers to gd32f30x_adc.o(i._Z14adc_flag_clearjj) for i._Z14adc_flag_clearjj
    gd32f30x_adc.o(.ARM.exidx) refers to gd32f30x_adc.o(i._Z22adc_interrupt_flag_getjj) for i._Z22adc_interrupt_flag_getjj
    gd32f30x_adc.o(.ARM.exidx) refers to gd32f30x_adc.o(i._Z24adc_interrupt_flag_clearjj) for i._Z24adc_interrupt_flag_clearjj
    gd32f30x_adc.o(.ARM.exidx) refers to gd32f30x_adc.o(i._Z20adc_interrupt_enablejj) for i._Z20adc_interrupt_enablejj
    gd32f30x_adc.o(.ARM.exidx) refers to gd32f30x_adc.o(i._Z21adc_interrupt_disablejj) for i._Z21adc_interrupt_disablejj
    gd32f30x_adc.o(.ARM.exidx) refers to gd32f30x_adc.o(i._Z34adc_watchdog_single_channel_enablejh) for i._Z34adc_watchdog_single_channel_enablejh
    gd32f30x_adc.o(.ARM.exidx) refers to gd32f30x_adc.o(i._Z33adc_watchdog_group_channel_enablejh) for i._Z33adc_watchdog_group_channel_enablejh
    gd32f30x_adc.o(.ARM.exidx) refers to gd32f30x_adc.o(i._Z20adc_watchdog_disablej) for i._Z20adc_watchdog_disablej
    gd32f30x_adc.o(.ARM.exidx) refers to gd32f30x_adc.o(i._Z29adc_watchdog_threshold_configjtt) for i._Z29adc_watchdog_threshold_configjtt
    gd32f30x_adc.o(.ARM.exidx) refers to gd32f30x_adc.o(i._Z26adc_oversample_mode_configjhth) for i._Z26adc_oversample_mode_configjhth
    gd32f30x_adc.o(.ARM.exidx) refers to gd32f30x_adc.o(i._Z26adc_oversample_mode_enablej) for i._Z26adc_oversample_mode_enablej
    gd32f30x_adc.o(.ARM.exidx) refers to gd32f30x_adc.o(i._Z27adc_oversample_mode_disablej) for i._Z27adc_oversample_mode_disablej
    gd32f30x_bkp.o(i._Z10bkp_deinitv) refers to gd32f30x_rcu.o(i._Z20rcu_bkp_reset_enablev) for rcu_bkp_reset_enable()
    gd32f30x_bkp.o(i._Z10bkp_deinitv) refers to gd32f30x_rcu.o(i._Z21rcu_bkp_reset_disablev) for rcu_bkp_reset_disable()
    gd32f30x_bkp.o(.ARM.exidx) refers to gd32f30x_bkp.o(i._Z10bkp_deinitv) for i._Z10bkp_deinitv
    gd32f30x_bkp.o(.ARM.exidx) refers to gd32f30x_bkp.o(i._Z14bkp_write_data22bkp_data_register_enumt) for i._Z14bkp_write_data22bkp_data_register_enumt
    gd32f30x_bkp.o(.ARM.exidx) refers to gd32f30x_bkp.o(i._Z13bkp_read_data22bkp_data_register_enum) for i._Z13bkp_read_data22bkp_data_register_enum
    gd32f30x_bkp.o(.ARM.exidx) refers to gd32f30x_bkp.o(i._Z33bkp_rtc_calibration_output_enablev) for i._Z33bkp_rtc_calibration_output_enablev
    gd32f30x_bkp.o(.ARM.exidx) refers to gd32f30x_bkp.o(i._Z34bkp_rtc_calibration_output_disablev) for i._Z34bkp_rtc_calibration_output_disablev
    gd32f30x_bkp.o(.ARM.exidx) refers to gd32f30x_bkp.o(i._Z28bkp_rtc_signal_output_enablev) for i._Z28bkp_rtc_signal_output_enablev
    gd32f30x_bkp.o(.ARM.exidx) refers to gd32f30x_bkp.o(i._Z29bkp_rtc_signal_output_disablev) for i._Z29bkp_rtc_signal_output_disablev
    gd32f30x_bkp.o(.ARM.exidx) refers to gd32f30x_bkp.o(i._Z21bkp_rtc_output_selectt) for i._Z21bkp_rtc_output_selectt
    gd32f30x_bkp.o(.ARM.exidx) refers to gd32f30x_bkp.o(i._Z27bkp_rtc_clock_output_selectt) for i._Z27bkp_rtc_clock_output_selectt
    gd32f30x_bkp.o(.ARM.exidx) refers to gd32f30x_bkp.o(i._Z35bkp_rtc_clock_calibration_directiont) for i._Z35bkp_rtc_clock_calibration_directiont
    gd32f30x_bkp.o(.ARM.exidx) refers to gd32f30x_bkp.o(i._Z29bkp_rtc_calibration_value_seth) for i._Z29bkp_rtc_calibration_value_seth
    gd32f30x_bkp.o(.ARM.exidx) refers to gd32f30x_bkp.o(i._Z27bkp_tamper_detection_enablev) for i._Z27bkp_tamper_detection_enablev
    gd32f30x_bkp.o(.ARM.exidx) refers to gd32f30x_bkp.o(i._Z28bkp_tamper_detection_disablev) for i._Z28bkp_tamper_detection_disablev
    gd32f30x_bkp.o(.ARM.exidx) refers to gd32f30x_bkp.o(i._Z27bkp_tamper_active_level_sett) for i._Z27bkp_tamper_active_level_sett
    gd32f30x_bkp.o(.ARM.exidx) refers to gd32f30x_bkp.o(i._Z27bkp_tamper_interrupt_enablev) for i._Z27bkp_tamper_interrupt_enablev
    gd32f30x_bkp.o(.ARM.exidx) refers to gd32f30x_bkp.o(i._Z28bkp_tamper_interrupt_disablev) for i._Z28bkp_tamper_interrupt_disablev
    gd32f30x_bkp.o(.ARM.exidx) refers to gd32f30x_bkp.o(i._Z12bkp_flag_gett) for i._Z12bkp_flag_gett
    gd32f30x_bkp.o(.ARM.exidx) refers to gd32f30x_bkp.o(i._Z14bkp_flag_cleart) for i._Z14bkp_flag_cleart
    gd32f30x_bkp.o(.ARM.exidx) refers to gd32f30x_bkp.o(i._Z22bkp_interrupt_flag_gett) for i._Z22bkp_interrupt_flag_gett
    gd32f30x_bkp.o(.ARM.exidx) refers to gd32f30x_bkp.o(i._Z24bkp_interrupt_flag_cleart) for i._Z24bkp_interrupt_flag_cleart
    gd32f30x_crc.o(.ARM.exidx) refers to gd32f30x_crc.o(i._Z10crc_deinitv) for i._Z10crc_deinitv
    gd32f30x_crc.o(.ARM.exidx) refers to gd32f30x_crc.o(i._Z23crc_data_register_resetv) for i._Z23crc_data_register_resetv
    gd32f30x_crc.o(.ARM.exidx) refers to gd32f30x_crc.o(i._Z22crc_data_register_readv) for i._Z22crc_data_register_readv
    gd32f30x_crc.o(.ARM.exidx) refers to gd32f30x_crc.o(i._Z27crc_free_data_register_readv) for i._Z27crc_free_data_register_readv
    gd32f30x_crc.o(.ARM.exidx) refers to gd32f30x_crc.o(i._Z28crc_free_data_register_writeh) for i._Z28crc_free_data_register_writeh
    gd32f30x_crc.o(.ARM.exidx) refers to gd32f30x_crc.o(i._Z25crc_single_data_calculatej) for i._Z25crc_single_data_calculatej
    gd32f30x_crc.o(.ARM.exidx) refers to gd32f30x_crc.o(i._Z24crc_block_data_calculatePjj) for i._Z24crc_block_data_calculatePjj
    gd32f30x_ctc.o(i._Z10ctc_deinitv) refers to gd32f30x_rcu.o(i._Z23rcu_periph_reset_enable21rcu_periph_reset_enum) for rcu_periph_reset_enable(rcu_periph_reset_enum)
    gd32f30x_ctc.o(i._Z10ctc_deinitv) refers to gd32f30x_rcu.o(i._Z24rcu_periph_reset_disable21rcu_periph_reset_enum) for rcu_periph_reset_disable(rcu_periph_reset_enum)
    gd32f30x_ctc.o(.ARM.exidx) refers to gd32f30x_ctc.o(i._Z10ctc_deinitv) for i._Z10ctc_deinitv
    gd32f30x_ctc.o(.ARM.exidx) refers to gd32f30x_ctc.o(i._Z28ctc_irc48m_trim_value_configh) for i._Z28ctc_irc48m_trim_value_configh
    gd32f30x_ctc.o(.ARM.exidx) refers to gd32f30x_ctc.o(i._Z37ctc_software_refsource_pulse_generatev) for i._Z37ctc_software_refsource_pulse_generatev
    gd32f30x_ctc.o(.ARM.exidx) refers to gd32f30x_ctc.o(i._Z29ctc_hardware_trim_mode_configj) for i._Z29ctc_hardware_trim_mode_configj
    gd32f30x_ctc.o(.ARM.exidx) refers to gd32f30x_ctc.o(i._Z18ctc_counter_enablev) for i._Z18ctc_counter_enablev
    gd32f30x_ctc.o(.ARM.exidx) refers to gd32f30x_ctc.o(i._Z19ctc_counter_disablev) for i._Z19ctc_counter_disablev
    gd32f30x_ctc.o(.ARM.exidx) refers to gd32f30x_ctc.o(i._Z29ctc_refsource_polarity_configj) for i._Z29ctc_refsource_polarity_configj
    gd32f30x_ctc.o(.ARM.exidx) refers to gd32f30x_ctc.o(i._Z27ctc_refsource_signal_selectj) for i._Z27ctc_refsource_signal_selectj
    gd32f30x_ctc.o(.ARM.exidx) refers to gd32f30x_ctc.o(i._Z30ctc_refsource_prescaler_configj) for i._Z30ctc_refsource_prescaler_configj
    gd32f30x_ctc.o(.ARM.exidx) refers to gd32f30x_ctc.o(i._Z28ctc_clock_limit_value_configh) for i._Z28ctc_clock_limit_value_configh
    gd32f30x_ctc.o(.ARM.exidx) refers to gd32f30x_ctc.o(i._Z31ctc_counter_reload_value_configt) for i._Z31ctc_counter_reload_value_configt
    gd32f30x_ctc.o(.ARM.exidx) refers to gd32f30x_ctc.o(i._Z30ctc_counter_capture_value_readv) for i._Z30ctc_counter_capture_value_readv
    gd32f30x_ctc.o(.ARM.exidx) refers to gd32f30x_ctc.o(i._Z26ctc_counter_direction_readv) for i._Z26ctc_counter_direction_readv
    gd32f30x_ctc.o(.ARM.exidx) refers to gd32f30x_ctc.o(i._Z29ctc_counter_reload_value_readv) for i._Z29ctc_counter_reload_value_readv
    gd32f30x_ctc.o(.ARM.exidx) refers to gd32f30x_ctc.o(i._Z26ctc_irc48m_trim_value_readv) for i._Z26ctc_irc48m_trim_value_readv
    gd32f30x_ctc.o(.ARM.exidx) refers to gd32f30x_ctc.o(i._Z20ctc_interrupt_enablej) for i._Z20ctc_interrupt_enablej
    gd32f30x_ctc.o(.ARM.exidx) refers to gd32f30x_ctc.o(i._Z21ctc_interrupt_disablej) for i._Z21ctc_interrupt_disablej
    gd32f30x_ctc.o(.ARM.exidx) refers to gd32f30x_ctc.o(i._Z22ctc_interrupt_flag_getj) for i._Z22ctc_interrupt_flag_getj
    gd32f30x_ctc.o(.ARM.exidx) refers to gd32f30x_ctc.o(i._Z24ctc_interrupt_flag_clearj) for i._Z24ctc_interrupt_flag_clearj
    gd32f30x_ctc.o(.ARM.exidx) refers to gd32f30x_ctc.o(i._Z12ctc_flag_getj) for i._Z12ctc_flag_getj
    gd32f30x_ctc.o(.ARM.exidx) refers to gd32f30x_ctc.o(i._Z14ctc_flag_clearj) for i._Z14ctc_flag_clearj
    gd32f30x_dac.o(i._Z10dac_deinitv) refers to gd32f30x_rcu.o(i._Z23rcu_periph_reset_enable21rcu_periph_reset_enum) for rcu_periph_reset_enable(rcu_periph_reset_enum)
    gd32f30x_dac.o(i._Z10dac_deinitv) refers to gd32f30x_rcu.o(i._Z24rcu_periph_reset_disable21rcu_periph_reset_enum) for rcu_periph_reset_disable(rcu_periph_reset_enum)
    gd32f30x_dac.o(.ARM.exidx) refers to gd32f30x_dac.o(i._Z10dac_deinitv) for i._Z10dac_deinitv
    gd32f30x_dac.o(.ARM.exidx) refers to gd32f30x_dac.o(i._Z10dac_enablej) for i._Z10dac_enablej
    gd32f30x_dac.o(.ARM.exidx) refers to gd32f30x_dac.o(i._Z11dac_disablej) for i._Z11dac_disablej
    gd32f30x_dac.o(.ARM.exidx) refers to gd32f30x_dac.o(i._Z14dac_dma_enablej) for i._Z14dac_dma_enablej
    gd32f30x_dac.o(.ARM.exidx) refers to gd32f30x_dac.o(i._Z15dac_dma_disablej) for i._Z15dac_dma_disablej
    gd32f30x_dac.o(.ARM.exidx) refers to gd32f30x_dac.o(i._Z24dac_output_buffer_enablej) for i._Z24dac_output_buffer_enablej
    gd32f30x_dac.o(.ARM.exidx) refers to gd32f30x_dac.o(i._Z25dac_output_buffer_disablej) for i._Z25dac_output_buffer_disablej
    gd32f30x_dac.o(.ARM.exidx) refers to gd32f30x_dac.o(i._Z18dac_trigger_enablej) for i._Z18dac_trigger_enablej
    gd32f30x_dac.o(.ARM.exidx) refers to gd32f30x_dac.o(i._Z19dac_trigger_disablej) for i._Z19dac_trigger_disablej
    gd32f30x_dac.o(.ARM.exidx) refers to gd32f30x_dac.o(i._Z27dac_software_trigger_enablej) for i._Z27dac_software_trigger_enablej
    gd32f30x_dac.o(.ARM.exidx) refers to gd32f30x_dac.o(i._Z28dac_software_trigger_disablej) for i._Z28dac_software_trigger_disablej
    gd32f30x_dac.o(.ARM.exidx) refers to gd32f30x_dac.o(i._Z25dac_trigger_source_configjj) for i._Z25dac_trigger_source_configjj
    gd32f30x_dac.o(.ARM.exidx) refers to gd32f30x_dac.o(i._Z20dac_wave_mode_configjj) for i._Z20dac_wave_mode_configjj
    gd32f30x_dac.o(.ARM.exidx) refers to gd32f30x_dac.o(i._Z25dac_wave_bit_width_configjj) for i._Z25dac_wave_bit_width_configjj
    gd32f30x_dac.o(.ARM.exidx) refers to gd32f30x_dac.o(i._Z21dac_lfsr_noise_configjj) for i._Z21dac_lfsr_noise_configjj
    gd32f30x_dac.o(.ARM.exidx) refers to gd32f30x_dac.o(i._Z25dac_triangle_noise_configjj) for i._Z25dac_triangle_noise_configjj
    gd32f30x_dac.o(.ARM.exidx) refers to gd32f30x_dac.o(i._Z20dac_output_value_getj) for i._Z20dac_output_value_getj
    gd32f30x_dac.o(.ARM.exidx) refers to gd32f30x_dac.o(i._Z21dac_concurrent_enablev) for i._Z21dac_concurrent_enablev
    gd32f30x_dac.o(.ARM.exidx) refers to gd32f30x_dac.o(i._Z22dac_concurrent_disablev) for i._Z22dac_concurrent_disablev
    gd32f30x_dac.o(.ARM.exidx) refers to gd32f30x_dac.o(i._Z38dac_concurrent_software_trigger_enablev) for i._Z38dac_concurrent_software_trigger_enablev
    gd32f30x_dac.o(.ARM.exidx) refers to gd32f30x_dac.o(i._Z39dac_concurrent_software_trigger_disablev) for i._Z39dac_concurrent_software_trigger_disablev
    gd32f30x_dac.o(.ARM.exidx) refers to gd32f30x_dac.o(i._Z35dac_concurrent_output_buffer_enablev) for i._Z35dac_concurrent_output_buffer_enablev
    gd32f30x_dac.o(.ARM.exidx) refers to gd32f30x_dac.o(i._Z36dac_concurrent_output_buffer_disablev) for i._Z36dac_concurrent_output_buffer_disablev
    gd32f30x_dac.o(.ARM.exidx) refers to gd32f30x_dac.o(i._Z12dac_data_setjjt) for i._Z12dac_data_setjjt
    gd32f30x_dac.o(.ARM.exidx) refers to gd32f30x_dac.o(i._Z23dac_concurrent_data_setjtt) for i._Z23dac_concurrent_data_setjtt
    gd32f30x_dbg.o(.ARM.exidx) refers to gd32f30x_dbg.o(i._Z10dbg_id_getv) for i._Z10dbg_id_getv
    gd32f30x_dbg.o(.ARM.exidx) refers to gd32f30x_dbg.o(i._Z20dbg_low_power_enablej) for i._Z20dbg_low_power_enablej
    gd32f30x_dbg.o(.ARM.exidx) refers to gd32f30x_dbg.o(i._Z21dbg_low_power_disablej) for i._Z21dbg_low_power_disablej
    gd32f30x_dbg.o(.ARM.exidx) refers to gd32f30x_dbg.o(i._Z17dbg_periph_enable15dbg_periph_enum) for i._Z17dbg_periph_enable15dbg_periph_enum
    gd32f30x_dbg.o(.ARM.exidx) refers to gd32f30x_dbg.o(i._Z18dbg_periph_disable15dbg_periph_enum) for i._Z18dbg_periph_disable15dbg_periph_enum
    gd32f30x_dbg.o(.ARM.exidx) refers to gd32f30x_dbg.o(i._Z20dbg_trace_pin_enablev) for i._Z20dbg_trace_pin_enablev
    gd32f30x_dbg.o(.ARM.exidx) refers to gd32f30x_dbg.o(i._Z21dbg_trace_pin_disablev) for i._Z21dbg_trace_pin_disablev
    gd32f30x_dbg.o(.ARM.exidx) refers to gd32f30x_dbg.o(i._Z22dbg_trace_pin_mode_setj) for i._Z22dbg_trace_pin_mode_setj
    gd32f30x_dma.o(i._Z10dma_deinitj16dma_channel_enum) refers to gd32f30x_dma.o(i._Z28dma_periph_and_channel_checkj16dma_channel_enum) for dma_periph_and_channel_check(unsigned, dma_channel_enum)
    gd32f30x_dma.o(i._Z18dma_channel_enablej16dma_channel_enum) refers to gd32f30x_dma.o(i._Z28dma_periph_and_channel_checkj16dma_channel_enum) for dma_periph_and_channel_check(unsigned, dma_channel_enum)
    gd32f30x_dma.o(i._Z19dma_channel_disablej16dma_channel_enum) refers to gd32f30x_dma.o(i._Z28dma_periph_and_channel_checkj16dma_channel_enum) for dma_periph_and_channel_check(unsigned, dma_channel_enum)
    gd32f30x_dma.o(i._Z19dma_priority_configj16dma_channel_enumj) refers to gd32f30x_dma.o(i._Z28dma_periph_and_channel_checkj16dma_channel_enum) for dma_periph_and_channel_check(unsigned, dma_channel_enum)
    gd32f30x_dma.o(i._Z20dma_interrupt_enablej16dma_channel_enumj) refers to gd32f30x_dma.o(i._Z28dma_periph_and_channel_checkj16dma_channel_enum) for dma_periph_and_channel_check(unsigned, dma_channel_enum)
    gd32f30x_dma.o(i._Z21dma_interrupt_disablej16dma_channel_enumj) refers to gd32f30x_dma.o(i._Z28dma_periph_and_channel_checkj16dma_channel_enum) for dma_periph_and_channel_check(unsigned, dma_channel_enum)
    gd32f30x_dma.o(i._Z22dma_circulation_enablej16dma_channel_enum) refers to gd32f30x_dma.o(i._Z28dma_periph_and_channel_checkj16dma_channel_enum) for dma_periph_and_channel_check(unsigned, dma_channel_enum)
    gd32f30x_dma.o(i._Z23dma_circulation_disablej16dma_channel_enum) refers to gd32f30x_dma.o(i._Z28dma_periph_and_channel_checkj16dma_channel_enum) for dma_periph_and_channel_check(unsigned, dma_channel_enum)
    gd32f30x_dma.o(i._Z23dma_memory_width_configj16dma_channel_enumj) refers to gd32f30x_dma.o(i._Z28dma_periph_and_channel_checkj16dma_channel_enum) for dma_periph_and_channel_check(unsigned, dma_channel_enum)
    gd32f30x_dma.o(i._Z23dma_periph_width_configj16dma_channel_enumj) refers to gd32f30x_dma.o(i._Z28dma_periph_and_channel_checkj16dma_channel_enum) for dma_periph_and_channel_check(unsigned, dma_channel_enum)
    gd32f30x_dma.o(i._Z23dma_transfer_number_getj16dma_channel_enum) refers to gd32f30x_dma.o(i._Z28dma_periph_and_channel_checkj16dma_channel_enum) for dma_periph_and_channel_check(unsigned, dma_channel_enum)
    gd32f30x_dma.o(i._Z25dma_memory_address_configj16dma_channel_enumj) refers to gd32f30x_dma.o(i._Z28dma_periph_and_channel_checkj16dma_channel_enum) for dma_periph_and_channel_check(unsigned, dma_channel_enum)
    gd32f30x_dma.o(i._Z25dma_periph_address_configj16dma_channel_enumj) refers to gd32f30x_dma.o(i._Z28dma_periph_and_channel_checkj16dma_channel_enum) for dma_periph_and_channel_check(unsigned, dma_channel_enum)
    gd32f30x_dma.o(i._Z26dma_memory_increase_enablej16dma_channel_enum) refers to gd32f30x_dma.o(i._Z28dma_periph_and_channel_checkj16dma_channel_enum) for dma_periph_and_channel_check(unsigned, dma_channel_enum)
    gd32f30x_dma.o(i._Z26dma_periph_increase_enablej16dma_channel_enum) refers to gd32f30x_dma.o(i._Z28dma_periph_and_channel_checkj16dma_channel_enum) for dma_periph_and_channel_check(unsigned, dma_channel_enum)
    gd32f30x_dma.o(i._Z26dma_transfer_number_configj16dma_channel_enumj) refers to gd32f30x_dma.o(i._Z28dma_periph_and_channel_checkj16dma_channel_enum) for dma_periph_and_channel_check(unsigned, dma_channel_enum)
    gd32f30x_dma.o(i._Z27dma_memory_increase_disablej16dma_channel_enum) refers to gd32f30x_dma.o(i._Z28dma_periph_and_channel_checkj16dma_channel_enum) for dma_periph_and_channel_check(unsigned, dma_channel_enum)
    gd32f30x_dma.o(i._Z27dma_memory_to_memory_enablej16dma_channel_enum) refers to gd32f30x_dma.o(i._Z28dma_periph_and_channel_checkj16dma_channel_enum) for dma_periph_and_channel_check(unsigned, dma_channel_enum)
    gd32f30x_dma.o(i._Z27dma_periph_increase_disablej16dma_channel_enum) refers to gd32f30x_dma.o(i._Z28dma_periph_and_channel_checkj16dma_channel_enum) for dma_periph_and_channel_check(unsigned, dma_channel_enum)
    gd32f30x_dma.o(i._Z28dma_memory_to_memory_disablej16dma_channel_enum) refers to gd32f30x_dma.o(i._Z28dma_periph_and_channel_checkj16dma_channel_enum) for dma_periph_and_channel_check(unsigned, dma_channel_enum)
    gd32f30x_dma.o(i._Z29dma_transfer_direction_configj16dma_channel_enumj) refers to gd32f30x_dma.o(i._Z28dma_periph_and_channel_checkj16dma_channel_enum) for dma_periph_and_channel_check(unsigned, dma_channel_enum)
    gd32f30x_dma.o(i._Z8dma_initj16dma_channel_enum20dma_parameter_struct) refers to gd32f30x_dma.o(i._Z28dma_periph_and_channel_checkj16dma_channel_enum) for dma_periph_and_channel_check(unsigned, dma_channel_enum)
    gd32f30x_dma.o(.ARM.exidx) refers to gd32f30x_dma.o(i._Z28dma_periph_and_channel_checkj16dma_channel_enum) for i._Z28dma_periph_and_channel_checkj16dma_channel_enum
    gd32f30x_dma.o(.ARM.exidx) refers to gd32f30x_dma.o(i._Z10dma_deinitj16dma_channel_enum) for i._Z10dma_deinitj16dma_channel_enum
    gd32f30x_dma.o(.ARM.exidx) refers to gd32f30x_dma.o(i._Z8dma_initj16dma_channel_enum20dma_parameter_struct) for i._Z8dma_initj16dma_channel_enum20dma_parameter_struct
    gd32f30x_dma.o(.ARM.exidx) refers to gd32f30x_dma.o(i._Z22dma_circulation_enablej16dma_channel_enum) for i._Z22dma_circulation_enablej16dma_channel_enum
    gd32f30x_dma.o(.ARM.exidx) refers to gd32f30x_dma.o(i._Z23dma_circulation_disablej16dma_channel_enum) for i._Z23dma_circulation_disablej16dma_channel_enum
    gd32f30x_dma.o(.ARM.exidx) refers to gd32f30x_dma.o(i._Z27dma_memory_to_memory_enablej16dma_channel_enum) for i._Z27dma_memory_to_memory_enablej16dma_channel_enum
    gd32f30x_dma.o(.ARM.exidx) refers to gd32f30x_dma.o(i._Z28dma_memory_to_memory_disablej16dma_channel_enum) for i._Z28dma_memory_to_memory_disablej16dma_channel_enum
    gd32f30x_dma.o(.ARM.exidx) refers to gd32f30x_dma.o(i._Z18dma_channel_enablej16dma_channel_enum) for i._Z18dma_channel_enablej16dma_channel_enum
    gd32f30x_dma.o(.ARM.exidx) refers to gd32f30x_dma.o(i._Z19dma_channel_disablej16dma_channel_enum) for i._Z19dma_channel_disablej16dma_channel_enum
    gd32f30x_dma.o(.ARM.exidx) refers to gd32f30x_dma.o(i._Z25dma_periph_address_configj16dma_channel_enumj) for i._Z25dma_periph_address_configj16dma_channel_enumj
    gd32f30x_dma.o(.ARM.exidx) refers to gd32f30x_dma.o(i._Z25dma_memory_address_configj16dma_channel_enumj) for i._Z25dma_memory_address_configj16dma_channel_enumj
    gd32f30x_dma.o(.ARM.exidx) refers to gd32f30x_dma.o(i._Z26dma_transfer_number_configj16dma_channel_enumj) for i._Z26dma_transfer_number_configj16dma_channel_enumj
    gd32f30x_dma.o(.ARM.exidx) refers to gd32f30x_dma.o(i._Z23dma_transfer_number_getj16dma_channel_enum) for i._Z23dma_transfer_number_getj16dma_channel_enum
    gd32f30x_dma.o(.ARM.exidx) refers to gd32f30x_dma.o(i._Z19dma_priority_configj16dma_channel_enumj) for i._Z19dma_priority_configj16dma_channel_enumj
    gd32f30x_dma.o(.ARM.exidx) refers to gd32f30x_dma.o(i._Z23dma_memory_width_configj16dma_channel_enumj) for i._Z23dma_memory_width_configj16dma_channel_enumj
    gd32f30x_dma.o(.ARM.exidx) refers to gd32f30x_dma.o(i._Z23dma_periph_width_configj16dma_channel_enumj) for i._Z23dma_periph_width_configj16dma_channel_enumj
    gd32f30x_dma.o(.ARM.exidx) refers to gd32f30x_dma.o(i._Z26dma_memory_increase_enablej16dma_channel_enum) for i._Z26dma_memory_increase_enablej16dma_channel_enum
    gd32f30x_dma.o(.ARM.exidx) refers to gd32f30x_dma.o(i._Z27dma_memory_increase_disablej16dma_channel_enum) for i._Z27dma_memory_increase_disablej16dma_channel_enum
    gd32f30x_dma.o(.ARM.exidx) refers to gd32f30x_dma.o(i._Z26dma_periph_increase_enablej16dma_channel_enum) for i._Z26dma_periph_increase_enablej16dma_channel_enum
    gd32f30x_dma.o(.ARM.exidx) refers to gd32f30x_dma.o(i._Z27dma_periph_increase_disablej16dma_channel_enum) for i._Z27dma_periph_increase_disablej16dma_channel_enum
    gd32f30x_dma.o(.ARM.exidx) refers to gd32f30x_dma.o(i._Z29dma_transfer_direction_configj16dma_channel_enumj) for i._Z29dma_transfer_direction_configj16dma_channel_enumj
    gd32f30x_dma.o(.ARM.exidx) refers to gd32f30x_dma.o(i._Z12dma_flag_getj16dma_channel_enumj) for i._Z12dma_flag_getj16dma_channel_enumj
    gd32f30x_dma.o(.ARM.exidx) refers to gd32f30x_dma.o(i._Z14dma_flag_clearj16dma_channel_enumj) for i._Z14dma_flag_clearj16dma_channel_enumj
    gd32f30x_dma.o(.ARM.exidx) refers to gd32f30x_dma.o(i._Z22dma_interrupt_flag_getj16dma_channel_enumj) for i._Z22dma_interrupt_flag_getj16dma_channel_enumj
    gd32f30x_dma.o(.ARM.exidx) refers to gd32f30x_dma.o(i._Z24dma_interrupt_flag_clearj16dma_channel_enumj) for i._Z24dma_interrupt_flag_clearj16dma_channel_enumj
    gd32f30x_dma.o(.ARM.exidx) refers to gd32f30x_dma.o(i._Z20dma_interrupt_enablej16dma_channel_enumj) for i._Z20dma_interrupt_enablej16dma_channel_enumj
    gd32f30x_dma.o(.ARM.exidx) refers to gd32f30x_dma.o(i._Z21dma_interrupt_disablej16dma_channel_enumj) for i._Z21dma_interrupt_disablej16dma_channel_enumj
    gd32f30x_exmc.o(.ARM.exidx) refers to gd32f30x_exmc.o(i._Z19exmc_norsram_deinitj) for i._Z19exmc_norsram_deinitj
    gd32f30x_exmc.o(.ARM.exidx) refers to gd32f30x_exmc.o(i._Z17exmc_norsram_initP29exmc_norsram_parameter_struct) for i._Z17exmc_norsram_initP29exmc_norsram_parameter_struct
    gd32f30x_exmc.o(.ARM.exidx) refers to gd32f30x_exmc.o(i._Z27exmc_norsram_parameter_initP29exmc_norsram_parameter_struct) for i._Z27exmc_norsram_parameter_initP29exmc_norsram_parameter_struct
    gd32f30x_exmc.o(.ARM.exidx) refers to gd32f30x_exmc.o(i._Z29exmc_norsram_page_size_configjj) for i._Z29exmc_norsram_page_size_configjj
    gd32f30x_exmc.o(.ARM.exidx) refers to gd32f30x_exmc.o(i._Z19exmc_norsram_enablej) for i._Z19exmc_norsram_enablej
    gd32f30x_exmc.o(.ARM.exidx) refers to gd32f30x_exmc.o(i._Z20exmc_norsram_disablej) for i._Z20exmc_norsram_disablej
    gd32f30x_exmc.o(.ARM.exidx) refers to gd32f30x_exmc.o(i._Z16exmc_nand_deinitj) for i._Z16exmc_nand_deinitj
    gd32f30x_exmc.o(.ARM.exidx) refers to gd32f30x_exmc.o(i._Z14exmc_nand_initP26exmc_nand_parameter_struct) for i._Z14exmc_nand_initP26exmc_nand_parameter_struct
    gd32f30x_exmc.o(.ARM.exidx) refers to gd32f30x_exmc.o(i._Z24exmc_nand_parameter_initP26exmc_nand_parameter_struct) for i._Z24exmc_nand_parameter_initP26exmc_nand_parameter_struct
    gd32f30x_exmc.o(.ARM.exidx) refers to gd32f30x_exmc.o(i._Z16exmc_nand_enablej) for i._Z16exmc_nand_enablej
    gd32f30x_exmc.o(.ARM.exidx) refers to gd32f30x_exmc.o(i._Z17exmc_nand_disablej) for i._Z17exmc_nand_disablej
    gd32f30x_exmc.o(.ARM.exidx) refers to gd32f30x_exmc.o(i._Z20exmc_nand_ecc_configj11EventStatus) for i._Z20exmc_nand_ecc_configj11EventStatus
    gd32f30x_exmc.o(.ARM.exidx) refers to gd32f30x_exmc.o(i._Z12exmc_ecc_getj) for i._Z12exmc_ecc_getj
    gd32f30x_exmc.o(.ARM.exidx) refers to gd32f30x_exmc.o(i._Z18exmc_pccard_deinitv) for i._Z18exmc_pccard_deinitv
    gd32f30x_exmc.o(.ARM.exidx) refers to gd32f30x_exmc.o(i._Z16exmc_pccard_initP28exmc_pccard_parameter_struct) for i._Z16exmc_pccard_initP28exmc_pccard_parameter_struct
    gd32f30x_exmc.o(.ARM.exidx) refers to gd32f30x_exmc.o(i._Z26exmc_pccard_parameter_initP28exmc_pccard_parameter_struct) for i._Z26exmc_pccard_parameter_initP28exmc_pccard_parameter_struct
    gd32f30x_exmc.o(.ARM.exidx) refers to gd32f30x_exmc.o(i._Z18exmc_pccard_enablev) for i._Z18exmc_pccard_enablev
    gd32f30x_exmc.o(.ARM.exidx) refers to gd32f30x_exmc.o(i._Z19exmc_pccard_disablev) for i._Z19exmc_pccard_disablev
    gd32f30x_exmc.o(.ARM.exidx) refers to gd32f30x_exmc.o(i._Z13exmc_flag_getjj) for i._Z13exmc_flag_getjj
    gd32f30x_exmc.o(.ARM.exidx) refers to gd32f30x_exmc.o(i._Z15exmc_flag_clearjj) for i._Z15exmc_flag_clearjj
    gd32f30x_exmc.o(.ARM.exidx) refers to gd32f30x_exmc.o(i._Z23exmc_interrupt_flag_getjj) for i._Z23exmc_interrupt_flag_getjj
    gd32f30x_exmc.o(.ARM.exidx) refers to gd32f30x_exmc.o(i._Z25exmc_interrupt_flag_clearjj) for i._Z25exmc_interrupt_flag_clearjj
    gd32f30x_exmc.o(.ARM.exidx) refers to gd32f30x_exmc.o(i._Z21exmc_interrupt_enablejj) for i._Z21exmc_interrupt_enablejj
    gd32f30x_exmc.o(.ARM.exidx) refers to gd32f30x_exmc.o(i._Z22exmc_interrupt_disablejj) for i._Z22exmc_interrupt_disablejj
    gd32f30x_exti.o(.ARM.exidx) refers to gd32f30x_exti.o(i._Z11exti_deinitv) for i._Z11exti_deinitv
    gd32f30x_exti.o(.ARM.exidx) refers to gd32f30x_exti.o(i._Z9exti_init14exti_line_enum14exti_mode_enum19exti_trig_type_enum) for i._Z9exti_init14exti_line_enum14exti_mode_enum19exti_trig_type_enum
    gd32f30x_exti.o(.ARM.exidx) refers to gd32f30x_exti.o(i._Z21exti_interrupt_enable14exti_line_enum) for i._Z21exti_interrupt_enable14exti_line_enum
    gd32f30x_exti.o(.ARM.exidx) refers to gd32f30x_exti.o(i._Z17exti_event_enable14exti_line_enum) for i._Z17exti_event_enable14exti_line_enum
    gd32f30x_exti.o(.ARM.exidx) refers to gd32f30x_exti.o(i._Z22exti_interrupt_disable14exti_line_enum) for i._Z22exti_interrupt_disable14exti_line_enum
    gd32f30x_exti.o(.ARM.exidx) refers to gd32f30x_exti.o(i._Z18exti_event_disable14exti_line_enum) for i._Z18exti_event_disable14exti_line_enum
    gd32f30x_exti.o(.ARM.exidx) refers to gd32f30x_exti.o(i._Z13exti_flag_get14exti_line_enum) for i._Z13exti_flag_get14exti_line_enum
    gd32f30x_exti.o(.ARM.exidx) refers to gd32f30x_exti.o(i._Z15exti_flag_clear14exti_line_enum) for i._Z15exti_flag_clear14exti_line_enum
    gd32f30x_exti.o(.ARM.exidx) refers to gd32f30x_exti.o(i._Z23exti_interrupt_flag_get14exti_line_enum) for i._Z23exti_interrupt_flag_get14exti_line_enum
    gd32f30x_exti.o(.ARM.exidx) refers to gd32f30x_exti.o(i._Z25exti_interrupt_flag_clear14exti_line_enum) for i._Z25exti_interrupt_flag_clear14exti_line_enum
    gd32f30x_exti.o(.ARM.exidx) refers to gd32f30x_exti.o(i._Z30exti_software_interrupt_enable14exti_line_enum) for i._Z30exti_software_interrupt_enable14exti_line_enum
    gd32f30x_exti.o(.ARM.exidx) refers to gd32f30x_exti.o(i._Z31exti_software_interrupt_disable14exti_line_enum) for i._Z31exti_software_interrupt_disable14exti_line_enum
    gd32f30x_fmc.o(i._Z13ob_user_writehhhh) refers to gd32f30x_fmc.o(i._Z20fmc_bank0_ready_waitj) for fmc_bank0_ready_wait(unsigned)
    gd32f30x_fmc.o(i._Z14fmc_mass_erasev) refers to gd32f30x_fmc.o(i._Z20fmc_bank0_ready_waitj) for fmc_bank0_ready_wait(unsigned)
    gd32f30x_fmc.o(i._Z14fmc_mass_erasev) refers to gd32f30x_fmc.o(i._Z20fmc_bank1_ready_waitj) for fmc_bank1_ready_wait(unsigned)
    gd32f30x_fmc.o(i._Z14fmc_page_erasej) refers to gd32f30x_fmc.o(i._Z20fmc_bank0_ready_waitj) for fmc_bank0_ready_wait(unsigned)
    gd32f30x_fmc.o(i._Z14fmc_page_erasej) refers to gd32f30x_fmc.o(i._Z20fmc_bank1_ready_waitj) for fmc_bank1_ready_wait(unsigned)
    gd32f30x_fmc.o(i._Z15fmc_bank0_erasev) refers to gd32f30x_fmc.o(i._Z20fmc_bank0_ready_waitj) for fmc_bank0_ready_wait(unsigned)
    gd32f30x_fmc.o(i._Z15fmc_bank1_erasev) refers to gd32f30x_fmc.o(i._Z20fmc_bank1_ready_waitj) for fmc_bank1_ready_wait(unsigned)
    gd32f30x_fmc.o(i._Z15ob_data_programjh) refers to gd32f30x_fmc.o(i._Z20fmc_bank0_ready_waitj) for fmc_bank0_ready_wait(unsigned)
    gd32f30x_fmc.o(i._Z16fmc_word_programjj) refers to gd32f30x_fmc.o(i._Z20fmc_bank0_ready_waitj) for fmc_bank0_ready_wait(unsigned)
    gd32f30x_fmc.o(i._Z16fmc_word_programjj) refers to gd32f30x_fmc.o(i._Z20fmc_bank1_ready_waitj) for fmc_bank1_ready_wait(unsigned)
    gd32f30x_fmc.o(i._Z18fmc_word_reprogramjj) refers to gd32f30x_fmc.o(i._Z20fmc_bank0_ready_waitj) for fmc_bank0_ready_wait(unsigned)
    gd32f30x_fmc.o(i._Z18fmc_word_reprogramjj) refers to gd32f30x_fmc.o(i._Z20fmc_bank1_ready_waitj) for fmc_bank1_ready_wait(unsigned)
    gd32f30x_fmc.o(i._Z20fmc_bank0_ready_waitj) refers to gd32f30x_fmc.o(i._Z19fmc_bank0_state_getv) for fmc_bank0_state_get()
    gd32f30x_fmc.o(i._Z20fmc_bank1_ready_waitj) refers to gd32f30x_fmc.o(i._Z19fmc_bank1_state_getv) for fmc_bank1_state_get()
    gd32f30x_fmc.o(i._Z20fmc_halfword_programjt) refers to gd32f30x_fmc.o(i._Z20fmc_bank0_ready_waitj) for fmc_bank0_ready_wait(unsigned)
    gd32f30x_fmc.o(i._Z20fmc_halfword_programjt) refers to gd32f30x_fmc.o(i._Z20fmc_bank1_ready_waitj) for fmc_bank1_ready_wait(unsigned)
    gd32f30x_fmc.o(i._Z26ob_write_protection_enablej) refers to gd32f30x_fmc.o(i._Z20fmc_bank0_ready_waitj) for fmc_bank0_ready_wait(unsigned)
    gd32f30x_fmc.o(i._Z29ob_security_protection_configh) refers to gd32f30x_fmc.o(i._Z20fmc_bank0_ready_waitj) for fmc_bank0_ready_wait(unsigned)
    gd32f30x_fmc.o(i._Z8ob_erasev) refers to gd32f30x_fmc.o(i._Z20fmc_bank0_ready_waitj) for fmc_bank0_ready_wait(unsigned)
    gd32f30x_fmc.o(i._Z8ob_erasev) refers to gd32f30x_fmc.o(i._Z10ob_spc_getv) for ob_spc_get()
    gd32f30x_fmc.o(.ARM.exidx) refers to gd32f30x_fmc.o(i._Z13fmc_wscnt_setj) for i._Z13fmc_wscnt_setj
    gd32f30x_fmc.o(.ARM.exidx) refers to gd32f30x_fmc.o(i._Z10fmc_unlockv) for i._Z10fmc_unlockv
    gd32f30x_fmc.o(.ARM.exidx) refers to gd32f30x_fmc.o(i._Z16fmc_bank0_unlockv) for i._Z16fmc_bank0_unlockv
    gd32f30x_fmc.o(.ARM.exidx) refers to gd32f30x_fmc.o(i._Z16fmc_bank1_unlockv) for i._Z16fmc_bank1_unlockv
    gd32f30x_fmc.o(.ARM.exidx) refers to gd32f30x_fmc.o(i._Z8fmc_lockv) for i._Z8fmc_lockv
    gd32f30x_fmc.o(.ARM.exidx) refers to gd32f30x_fmc.o(i._Z14fmc_bank0_lockv) for i._Z14fmc_bank0_lockv
    gd32f30x_fmc.o(.ARM.exidx) refers to gd32f30x_fmc.o(i._Z14fmc_bank1_lockv) for i._Z14fmc_bank1_lockv
    gd32f30x_fmc.o(.ARM.exidx) refers to gd32f30x_fmc.o(i._Z19fmc_bank0_state_getv) for i._Z19fmc_bank0_state_getv
    gd32f30x_fmc.o(.ARM.exidx) refers to gd32f30x_fmc.o(i._Z20fmc_bank0_ready_waitj) for i._Z20fmc_bank0_ready_waitj
    gd32f30x_fmc.o(.ARM.exidx) refers to gd32f30x_fmc.o(i._Z19fmc_bank1_state_getv) for i._Z19fmc_bank1_state_getv
    gd32f30x_fmc.o(.ARM.exidx) refers to gd32f30x_fmc.o(i._Z20fmc_bank1_ready_waitj) for i._Z20fmc_bank1_ready_waitj
    gd32f30x_fmc.o(.ARM.exidx) refers to gd32f30x_fmc.o(i._Z14fmc_page_erasej) for i._Z14fmc_page_erasej
    gd32f30x_fmc.o(.ARM.exidx) refers to gd32f30x_fmc.o(i._Z14fmc_mass_erasev) for i._Z14fmc_mass_erasev
    gd32f30x_fmc.o(.ARM.exidx) refers to gd32f30x_fmc.o(i._Z15fmc_bank0_erasev) for i._Z15fmc_bank0_erasev
    gd32f30x_fmc.o(.ARM.exidx) refers to gd32f30x_fmc.o(i._Z15fmc_bank1_erasev) for i._Z15fmc_bank1_erasev
    gd32f30x_fmc.o(.ARM.exidx) refers to gd32f30x_fmc.o(i._Z16fmc_word_programjj) for i._Z16fmc_word_programjj
    gd32f30x_fmc.o(.ARM.exidx) refers to gd32f30x_fmc.o(i._Z20fmc_halfword_programjt) for i._Z20fmc_halfword_programjt
    gd32f30x_fmc.o(.ARM.exidx) refers to gd32f30x_fmc.o(i._Z18fmc_word_reprogramjj) for i._Z18fmc_word_reprogramjj
    gd32f30x_fmc.o(.ARM.exidx) refers to gd32f30x_fmc.o(i._Z9ob_unlockv) for i._Z9ob_unlockv
    gd32f30x_fmc.o(.ARM.exidx) refers to gd32f30x_fmc.o(i._Z7ob_lockv) for i._Z7ob_lockv
    gd32f30x_fmc.o(.ARM.exidx) refers to gd32f30x_fmc.o(i._Z10ob_spc_getv) for i._Z10ob_spc_getv
    gd32f30x_fmc.o(.ARM.exidx) refers to gd32f30x_fmc.o(i._Z8ob_erasev) for i._Z8ob_erasev
    gd32f30x_fmc.o(.ARM.exidx) refers to gd32f30x_fmc.o(i._Z26ob_write_protection_enablej) for i._Z26ob_write_protection_enablej
    gd32f30x_fmc.o(.ARM.exidx) refers to gd32f30x_fmc.o(i._Z29ob_security_protection_configh) for i._Z29ob_security_protection_configh
    gd32f30x_fmc.o(.ARM.exidx) refers to gd32f30x_fmc.o(i._Z13ob_user_writehhhh) for i._Z13ob_user_writehhhh
    gd32f30x_fmc.o(.ARM.exidx) refers to gd32f30x_fmc.o(i._Z15ob_data_programjh) for i._Z15ob_data_programjh
    gd32f30x_fmc.o(.ARM.exidx) refers to gd32f30x_fmc.o(i._Z11ob_user_getv) for i._Z11ob_user_getv
    gd32f30x_fmc.o(.ARM.exidx) refers to gd32f30x_fmc.o(i._Z11ob_data_getv) for i._Z11ob_data_getv
    gd32f30x_fmc.o(.ARM.exidx) refers to gd32f30x_fmc.o(i._Z23ob_write_protection_getv) for i._Z23ob_write_protection_getv
    gd32f30x_fmc.o(.ARM.exidx) refers to gd32f30x_fmc.o(i._Z20fmc_interrupt_enablej) for i._Z20fmc_interrupt_enablej
    gd32f30x_fmc.o(.ARM.exidx) refers to gd32f30x_fmc.o(i._Z21fmc_interrupt_disablej) for i._Z21fmc_interrupt_disablej
    gd32f30x_fmc.o(.ARM.exidx) refers to gd32f30x_fmc.o(i._Z12fmc_flag_getj) for i._Z12fmc_flag_getj
    gd32f30x_fmc.o(.ARM.exidx) refers to gd32f30x_fmc.o(i._Z14fmc_flag_clearj) for i._Z14fmc_flag_clearj
    gd32f30x_fmc.o(.ARM.exidx) refers to gd32f30x_fmc.o(i._Z22fmc_interrupt_flag_get23fmc_interrupt_flag_enum) for i._Z22fmc_interrupt_flag_get23fmc_interrupt_flag_enum
    gd32f30x_fmc.o(.ARM.exidx) refers to gd32f30x_fmc.o(i._Z24fmc_interrupt_flag_clear23fmc_interrupt_flag_enum) for i._Z24fmc_interrupt_flag_clear23fmc_interrupt_flag_enum
    gd32f30x_fwdgt.o(.ARM.exidx) refers to gd32f30x_fwdgt.o(i._Z18fwdgt_write_enablev) for i._Z18fwdgt_write_enablev
    gd32f30x_fwdgt.o(.ARM.exidx) refers to gd32f30x_fwdgt.o(i._Z19fwdgt_write_disablev) for i._Z19fwdgt_write_disablev
    gd32f30x_fwdgt.o(.ARM.exidx) refers to gd32f30x_fwdgt.o(i._Z20fwdgt_counter_reloadv) for i._Z20fwdgt_counter_reloadv
    gd32f30x_fwdgt.o(.ARM.exidx) refers to gd32f30x_fwdgt.o(i._Z12fwdgt_enablev) for i._Z12fwdgt_enablev
    gd32f30x_fwdgt.o(.ARM.exidx) refers to gd32f30x_fwdgt.o(i._Z12fwdgt_configth) for i._Z12fwdgt_configth
    gd32f30x_fwdgt.o(.ARM.exidx) refers to gd32f30x_fwdgt.o(i._Z14fwdgt_flag_gett) for i._Z14fwdgt_flag_gett
    gd32f30x_gpio.o(i._Z11gpio_deinitj) refers to gd32f30x_rcu.o(i._Z23rcu_periph_reset_enable21rcu_periph_reset_enum) for rcu_periph_reset_enable(rcu_periph_reset_enum)
    gd32f30x_gpio.o(i._Z11gpio_deinitj) refers to gd32f30x_rcu.o(i._Z24rcu_periph_reset_disable21rcu_periph_reset_enum) for rcu_periph_reset_disable(rcu_periph_reset_enum)
    gd32f30x_gpio.o(i._Z16gpio_afio_deinitv) refers to gd32f30x_rcu.o(i._Z23rcu_periph_reset_enable21rcu_periph_reset_enum) for rcu_periph_reset_enable(rcu_periph_reset_enum)
    gd32f30x_gpio.o(i._Z16gpio_afio_deinitv) refers to gd32f30x_rcu.o(i._Z24rcu_periph_reset_disable21rcu_periph_reset_enum) for rcu_periph_reset_disable(rcu_periph_reset_enum)
    gd32f30x_gpio.o(.ARM.exidx) refers to gd32f30x_gpio.o(i._Z11gpio_deinitj) for i._Z11gpio_deinitj
    gd32f30x_gpio.o(.ARM.exidx) refers to gd32f30x_gpio.o(i._Z16gpio_afio_deinitv) for i._Z16gpio_afio_deinitv
    gd32f30x_gpio.o(.ARM.exidx) refers to gd32f30x_gpio.o(i._Z9gpio_initjjjj) for i._Z9gpio_initjjjj
    gd32f30x_gpio.o(.ARM.exidx) refers to gd32f30x_gpio.o(i._Z12gpio_bit_setjj) for i._Z12gpio_bit_setjj
    gd32f30x_gpio.o(.ARM.exidx) refers to gd32f30x_gpio.o(i._Z14gpio_bit_resetjj) for i._Z14gpio_bit_resetjj
    gd32f30x_gpio.o(.ARM.exidx) refers to gd32f30x_gpio.o(i._Z14gpio_bit_writejj10FlagStatus) for i._Z14gpio_bit_writejj10FlagStatus
    gd32f30x_gpio.o(.ARM.exidx) refers to gd32f30x_gpio.o(i._Z15gpio_port_writejt) for i._Z15gpio_port_writejt
    gd32f30x_gpio.o(.ARM.exidx) refers to gd32f30x_gpio.o(i._Z18gpio_input_bit_getjj) for i._Z18gpio_input_bit_getjj
    gd32f30x_gpio.o(.ARM.exidx) refers to gd32f30x_gpio.o(i._Z19gpio_input_port_getj) for i._Z19gpio_input_port_getj
    gd32f30x_gpio.o(.ARM.exidx) refers to gd32f30x_gpio.o(i._Z19gpio_output_bit_getjj) for i._Z19gpio_output_bit_getjj
    gd32f30x_gpio.o(.ARM.exidx) refers to gd32f30x_gpio.o(i._Z20gpio_output_port_getj) for i._Z20gpio_output_port_getj
    gd32f30x_gpio.o(.ARM.exidx) refers to gd32f30x_gpio.o(i._Z13gpio_pin_lockjj) for i._Z13gpio_pin_lockjj
    gd32f30x_gpio.o(.ARM.exidx) refers to gd32f30x_gpio.o(i._Z24gpio_event_output_confighh) for i._Z24gpio_event_output_confighh
    gd32f30x_gpio.o(.ARM.exidx) refers to gd32f30x_gpio.o(i._Z24gpio_event_output_enablev) for i._Z24gpio_event_output_enablev
    gd32f30x_gpio.o(.ARM.exidx) refers to gd32f30x_gpio.o(i._Z25gpio_event_output_disablev) for i._Z25gpio_event_output_disablev
    gd32f30x_gpio.o(.ARM.exidx) refers to gd32f30x_gpio.o(i._Z23gpio_exti_source_selecthh) for i._Z23gpio_exti_source_selecthh
    gd32f30x_gpio.o(.ARM.exidx) refers to gd32f30x_gpio.o(i._Z21gpio_pin_remap_configj11EventStatus) for i._Z21gpio_pin_remap_configj11EventStatus
    gd32f30x_gpio.o(.ARM.exidx) refers to gd32f30x_gpio.o(i._Z24gpio_compensation_configj) for i._Z24gpio_compensation_configj
    gd32f30x_gpio.o(.ARM.exidx) refers to gd32f30x_gpio.o(i._Z26gpio_compensation_flag_getv) for i._Z26gpio_compensation_flag_getv
    gd32f30x_i2c.o(i._Z10i2c_deinitj) refers to gd32f30x_rcu.o(i._Z23rcu_periph_reset_enable21rcu_periph_reset_enum) for rcu_periph_reset_enable(rcu_periph_reset_enum)
    gd32f30x_i2c.o(i._Z10i2c_deinitj) refers to gd32f30x_rcu.o(i._Z24rcu_periph_reset_disable21rcu_periph_reset_enum) for rcu_periph_reset_disable(rcu_periph_reset_enum)
    gd32f30x_i2c.o(i._Z16i2c_clock_configjjj) refers to gd32f30x_rcu.o(i._Z18rcu_clock_freq_get19rcu_clock_freq_enum) for rcu_clock_freq_get(rcu_clock_freq_enum)
    gd32f30x_i2c.o(.ARM.exidx) refers to gd32f30x_i2c.o(i._Z10i2c_deinitj) for i._Z10i2c_deinitj
    gd32f30x_i2c.o(.ARM.exidx) refers to gd32f30x_i2c.o(i._Z16i2c_clock_configjjj) for i._Z16i2c_clock_configjjj
    gd32f30x_i2c.o(.ARM.exidx) refers to gd32f30x_i2c.o(i._Z20i2c_mode_addr_configjjjj) for i._Z20i2c_mode_addr_configjjjj
    gd32f30x_i2c.o(.ARM.exidx) refers to gd32f30x_i2c.o(i._Z21i2c_smbus_type_configjj) for i._Z21i2c_smbus_type_configjj
    gd32f30x_i2c.o(.ARM.exidx) refers to gd32f30x_i2c.o(i._Z14i2c_ack_configjj) for i._Z14i2c_ack_configjj
    gd32f30x_i2c.o(.ARM.exidx) refers to gd32f30x_i2c.o(i._Z17i2c_ackpos_configjj) for i._Z17i2c_ackpos_configjj
    gd32f30x_i2c.o(.ARM.exidx) refers to gd32f30x_i2c.o(i._Z21i2c_master_addressingjjj) for i._Z21i2c_master_addressingjjj
    gd32f30x_i2c.o(.ARM.exidx) refers to gd32f30x_i2c.o(i._Z19i2c_dualaddr_enablejj) for i._Z19i2c_dualaddr_enablejj
    gd32f30x_i2c.o(.ARM.exidx) refers to gd32f30x_i2c.o(i._Z10i2c_enablej) for i._Z10i2c_enablej
    gd32f30x_i2c.o(.ARM.exidx) refers to gd32f30x_i2c.o(i._Z11i2c_disablej) for i._Z11i2c_disablej
    gd32f30x_i2c.o(.ARM.exidx) refers to gd32f30x_i2c.o(i._Z16i2c_start_on_busj) for i._Z16i2c_start_on_busj
    gd32f30x_i2c.o(.ARM.exidx) refers to gd32f30x_i2c.o(i._Z15i2c_stop_on_busj) for i._Z15i2c_stop_on_busj
    gd32f30x_i2c.o(.ARM.exidx) refers to gd32f30x_i2c.o(i._Z17i2c_data_transmitjh) for i._Z17i2c_data_transmitjh
    gd32f30x_i2c.o(.ARM.exidx) refers to gd32f30x_i2c.o(i._Z16i2c_data_receivej) for i._Z16i2c_data_receivej
    gd32f30x_i2c.o(.ARM.exidx) refers to gd32f30x_i2c.o(i._Z14i2c_dma_enablejj) for i._Z14i2c_dma_enablejj
    gd32f30x_i2c.o(.ARM.exidx) refers to gd32f30x_i2c.o(i._Z28i2c_dma_last_transfer_enablejj) for i._Z28i2c_dma_last_transfer_enablejj
    gd32f30x_i2c.o(.ARM.exidx) refers to gd32f30x_i2c.o(i._Z26i2c_stretch_scl_low_configjj) for i._Z26i2c_stretch_scl_low_configjj
    gd32f30x_i2c.o(.ARM.exidx) refers to gd32f30x_i2c.o(i._Z34i2c_slave_response_to_gcall_configjj) for i._Z34i2c_slave_response_to_gcall_configjj
    gd32f30x_i2c.o(.ARM.exidx) refers to gd32f30x_i2c.o(i._Z25i2c_software_reset_configjj) for i._Z25i2c_software_reset_configjj
    gd32f30x_i2c.o(.ARM.exidx) refers to gd32f30x_i2c.o(i._Z12i2c_flag_getjj) for i._Z12i2c_flag_getjj
    gd32f30x_i2c.o(.ARM.exidx) refers to gd32f30x_i2c.o(i._Z14i2c_flag_clearjj) for i._Z14i2c_flag_clearjj
    gd32f30x_i2c.o(.ARM.exidx) refers to gd32f30x_i2c.o(i._Z20i2c_interrupt_enablejj) for i._Z20i2c_interrupt_enablejj
    gd32f30x_i2c.o(.ARM.exidx) refers to gd32f30x_i2c.o(i._Z21i2c_interrupt_disablejj) for i._Z21i2c_interrupt_disablejj
    gd32f30x_i2c.o(.ARM.exidx) refers to gd32f30x_i2c.o(i._Z22i2c_interrupt_flag_getjj) for i._Z22i2c_interrupt_flag_getjj
    gd32f30x_i2c.o(.ARM.exidx) refers to gd32f30x_i2c.o(i._Z24i2c_interrupt_flag_clearjj) for i._Z24i2c_interrupt_flag_clearjj
    gd32f30x_i2c.o(.ARM.exidx) refers to gd32f30x_i2c.o(i._Z14i2c_pec_enablejj) for i._Z14i2c_pec_enablejj
    gd32f30x_i2c.o(.ARM.exidx) refers to gd32f30x_i2c.o(i._Z23i2c_pec_transfer_enablejj) for i._Z23i2c_pec_transfer_enablejj
    gd32f30x_i2c.o(.ARM.exidx) refers to gd32f30x_i2c.o(i._Z17i2c_pec_value_getj) for i._Z17i2c_pec_value_getj
    gd32f30x_i2c.o(.ARM.exidx) refers to gd32f30x_i2c.o(i._Z21i2c_smbus_issue_alertjj) for i._Z21i2c_smbus_issue_alertjj
    gd32f30x_i2c.o(.ARM.exidx) refers to gd32f30x_i2c.o(i._Z20i2c_smbus_arp_enablejj) for i._Z20i2c_smbus_arp_enablejj
    gd32f30x_misc.o(i._Z15nvic_irq_enablehhh) refers to gd32f30x_misc.o(i._Z23nvic_priority_group_setj) for nvic_priority_group_set(unsigned)
    gd32f30x_misc.o(.ARM.exidx) refers to gd32f30x_misc.o(i._Z23nvic_priority_group_setj) for i._Z23nvic_priority_group_setj
    gd32f30x_misc.o(.ARM.exidx) refers to gd32f30x_misc.o(i._Z15nvic_irq_enablehhh) for i._Z15nvic_irq_enablehhh
    gd32f30x_misc.o(.ARM.exidx) refers to gd32f30x_misc.o(i._Z16nvic_irq_disableh) for i._Z16nvic_irq_disableh
    gd32f30x_misc.o(.ARM.exidx) refers to gd32f30x_misc.o(i._Z21nvic_vector_table_setjj) for i._Z21nvic_vector_table_setjj
    gd32f30x_misc.o(.ARM.exidx) refers to gd32f30x_misc.o(i._Z19system_lowpower_seth) for i._Z19system_lowpower_seth
    gd32f30x_misc.o(.ARM.exidx) refers to gd32f30x_misc.o(i._Z21system_lowpower_reseth) for i._Z21system_lowpower_reseth
    gd32f30x_misc.o(.ARM.exidx) refers to gd32f30x_misc.o(i._Z21systick_clksource_setj) for i._Z21systick_clksource_setj
    gd32f30x_pmu.o(i._Z10pmu_deinitv) refers to gd32f30x_rcu.o(i._Z23rcu_periph_reset_enable21rcu_periph_reset_enum) for rcu_periph_reset_enable(rcu_periph_reset_enum)
    gd32f30x_pmu.o(i._Z10pmu_deinitv) refers to gd32f30x_rcu.o(i._Z24rcu_periph_reset_disable21rcu_periph_reset_enum) for rcu_periph_reset_disable(rcu_periph_reset_enum)
    gd32f30x_pmu.o(i._Z28pmu_highdriver_switch_selectj) refers to gd32f30x_pmu.o(i._Z12pmu_flag_getj) for pmu_flag_get(unsigned)
    gd32f30x_pmu.o(.ARM.exidx) refers to gd32f30x_pmu.o(i._Z10pmu_deinitv) for i._Z10pmu_deinitv
    gd32f30x_pmu.o(.ARM.exidx) refers to gd32f30x_pmu.o(i._Z14pmu_lvd_selectj) for i._Z14pmu_lvd_selectj
    gd32f30x_pmu.o(.ARM.exidx) refers to gd32f30x_pmu.o(i._Z21pmu_ldo_output_selectj) for i._Z21pmu_ldo_output_selectj
    gd32f30x_pmu.o(.ARM.exidx) refers to gd32f30x_pmu.o(i._Z12pmu_flag_getj) for i._Z12pmu_flag_getj
    gd32f30x_pmu.o(.ARM.exidx) refers to gd32f30x_pmu.o(i._Z28pmu_highdriver_switch_selectj) for i._Z28pmu_highdriver_switch_selectj
    gd32f30x_pmu.o(.ARM.exidx) refers to gd32f30x_pmu.o(i._Z25pmu_lowdriver_mode_enablev) for i._Z25pmu_lowdriver_mode_enablev
    gd32f30x_pmu.o(.ARM.exidx) refers to gd32f30x_pmu.o(i._Z26pmu_lowdriver_mode_disablev) for i._Z26pmu_lowdriver_mode_disablev
    gd32f30x_pmu.o(.ARM.exidx) refers to gd32f30x_pmu.o(i._Z26pmu_highdriver_mode_enablev) for i._Z26pmu_highdriver_mode_enablev
    gd32f30x_pmu.o(.ARM.exidx) refers to gd32f30x_pmu.o(i._Z27pmu_highdriver_mode_disablev) for i._Z27pmu_highdriver_mode_disablev
    gd32f30x_pmu.o(.ARM.exidx) refers to gd32f30x_pmu.o(i._Z15pmu_lvd_disablev) for i._Z15pmu_lvd_disablev
    gd32f30x_pmu.o(.ARM.exidx) refers to gd32f30x_pmu.o(i._Z26pmu_lowpower_driver_configj) for i._Z26pmu_lowpower_driver_configj
    gd32f30x_pmu.o(.ARM.exidx) refers to gd32f30x_pmu.o(i._Z29pmu_normalpower_driver_configj) for i._Z29pmu_normalpower_driver_configj
    gd32f30x_pmu.o(.ARM.exidx) refers to gd32f30x_pmu.o(i._Z16pmu_to_sleepmodeh) for i._Z16pmu_to_sleepmodeh
    gd32f30x_pmu.o(.ARM.exidx) refers to gd32f30x_pmu.o(i._Z20pmu_to_deepsleepmodejh) for i._Z20pmu_to_deepsleepmodejh
    gd32f30x_pmu.o(.ARM.exidx) refers to gd32f30x_pmu.o(i._Z18pmu_to_standbymodeh) for i._Z18pmu_to_standbymodeh
    gd32f30x_pmu.o(.ARM.exidx) refers to gd32f30x_pmu.o(i._Z14pmu_flag_clearj) for i._Z14pmu_flag_clearj
    gd32f30x_pmu.o(.ARM.exidx) refers to gd32f30x_pmu.o(i._Z23pmu_backup_write_enablev) for i._Z23pmu_backup_write_enablev
    gd32f30x_pmu.o(.ARM.exidx) refers to gd32f30x_pmu.o(i._Z24pmu_backup_write_disablev) for i._Z24pmu_backup_write_disablev
    gd32f30x_pmu.o(.ARM.exidx) refers to gd32f30x_pmu.o(i._Z21pmu_wakeup_pin_enablev) for i._Z21pmu_wakeup_pin_enablev
    gd32f30x_pmu.o(.ARM.exidx) refers to gd32f30x_pmu.o(i._Z22pmu_wakeup_pin_disablev) for i._Z22pmu_wakeup_pin_disablev
    gd32f30x_rcu.o(i._Z10rcu_deinitv) refers to gd32f30x_rcu.o(i._Z18rcu_osci_stab_wait18rcu_osci_type_enum) for rcu_osci_stab_wait(rcu_osci_type_enum)
    gd32f30x_rcu.o(i._Z18rcu_osci_stab_wait18rcu_osci_type_enum) refers to gd32f30x_rcu.o(i._Z12rcu_flag_get13rcu_flag_enum) for rcu_flag_get(rcu_flag_enum)
    gd32f30x_rcu.o(.ARM.exidx) refers to gd32f30x_rcu.o(i._Z12rcu_flag_get13rcu_flag_enum) for i._Z12rcu_flag_get13rcu_flag_enum
    gd32f30x_rcu.o(.ARM.exidx) refers to gd32f30x_rcu.o(i._Z18rcu_osci_stab_wait18rcu_osci_type_enum) for i._Z18rcu_osci_stab_wait18rcu_osci_type_enum
    gd32f30x_rcu.o(.ARM.exidx) refers to gd32f30x_rcu.o(i._Z10rcu_deinitv) for i._Z10rcu_deinitv
    gd32f30x_rcu.o(.ARM.exidx) refers to gd32f30x_rcu.o(i._Z23rcu_periph_clock_enable15rcu_periph_enum) for i._Z23rcu_periph_clock_enable15rcu_periph_enum
    gd32f30x_rcu.o(.ARM.exidx) refers to gd32f30x_rcu.o(i._Z24rcu_periph_clock_disable15rcu_periph_enum) for i._Z24rcu_periph_clock_disable15rcu_periph_enum
    gd32f30x_rcu.o(.ARM.exidx) refers to gd32f30x_rcu.o(i._Z29rcu_periph_clock_sleep_enable21rcu_periph_sleep_enum) for i._Z29rcu_periph_clock_sleep_enable21rcu_periph_sleep_enum
    gd32f30x_rcu.o(.ARM.exidx) refers to gd32f30x_rcu.o(i._Z30rcu_periph_clock_sleep_disable21rcu_periph_sleep_enum) for i._Z30rcu_periph_clock_sleep_disable21rcu_periph_sleep_enum
    gd32f30x_rcu.o(.ARM.exidx) refers to gd32f30x_rcu.o(i._Z23rcu_periph_reset_enable21rcu_periph_reset_enum) for i._Z23rcu_periph_reset_enable21rcu_periph_reset_enum
    gd32f30x_rcu.o(.ARM.exidx) refers to gd32f30x_rcu.o(i._Z24rcu_periph_reset_disable21rcu_periph_reset_enum) for i._Z24rcu_periph_reset_disable21rcu_periph_reset_enum
    gd32f30x_rcu.o(.ARM.exidx) refers to gd32f30x_rcu.o(i._Z20rcu_bkp_reset_enablev) for i._Z20rcu_bkp_reset_enablev
    gd32f30x_rcu.o(.ARM.exidx) refers to gd32f30x_rcu.o(i._Z21rcu_bkp_reset_disablev) for i._Z21rcu_bkp_reset_disablev
    gd32f30x_rcu.o(.ARM.exidx) refers to gd32f30x_rcu.o(i._Z30rcu_system_clock_source_configj) for i._Z30rcu_system_clock_source_configj
    gd32f30x_rcu.o(.ARM.exidx) refers to gd32f30x_rcu.o(i._Z27rcu_system_clock_source_getv) for i._Z27rcu_system_clock_source_getv
    gd32f30x_rcu.o(.ARM.exidx) refers to gd32f30x_rcu.o(i._Z20rcu_ahb_clock_configj) for i._Z20rcu_ahb_clock_configj
    gd32f30x_rcu.o(.ARM.exidx) refers to gd32f30x_rcu.o(i._Z21rcu_apb1_clock_configj) for i._Z21rcu_apb1_clock_configj
    gd32f30x_rcu.o(.ARM.exidx) refers to gd32f30x_rcu.o(i._Z21rcu_apb2_clock_configj) for i._Z21rcu_apb2_clock_configj
    gd32f30x_rcu.o(.ARM.exidx) refers to gd32f30x_rcu.o(i._Z17rcu_ckout0_configj) for i._Z17rcu_ckout0_configj
    gd32f30x_rcu.o(.ARM.exidx) refers to gd32f30x_rcu.o(i._Z14rcu_pll_configjj) for i._Z14rcu_pll_configjj
    gd32f30x_rcu.o(.ARM.exidx) refers to gd32f30x_rcu.o(i._Z20rcu_pllpresel_configj) for i._Z20rcu_pllpresel_configj
    gd32f30x_rcu.o(.ARM.exidx) refers to gd32f30x_rcu.o(i._Z17rcu_predv0_configj) for i._Z17rcu_predv0_configj
    gd32f30x_rcu.o(.ARM.exidx) refers to gd32f30x_rcu.o(i._Z20rcu_adc_clock_configj) for i._Z20rcu_adc_clock_configj
    gd32f30x_rcu.o(.ARM.exidx) refers to gd32f30x_rcu.o(i._Z20rcu_usb_clock_configj) for i._Z20rcu_usb_clock_configj
    gd32f30x_rcu.o(.ARM.exidx) refers to gd32f30x_rcu.o(i._Z20rcu_rtc_clock_configj) for i._Z20rcu_rtc_clock_configj
    gd32f30x_rcu.o(.ARM.exidx) refers to gd32f30x_rcu.o(i._Z22rcu_ck48m_clock_configj) for i._Z22rcu_ck48m_clock_configj
    gd32f30x_rcu.o(.ARM.exidx) refers to gd32f30x_rcu.o(i._Z24rcu_all_reset_flag_clearv) for i._Z24rcu_all_reset_flag_clearv
    gd32f30x_rcu.o(.ARM.exidx) refers to gd32f30x_rcu.o(i._Z22rcu_interrupt_flag_get17rcu_int_flag_enum) for i._Z22rcu_interrupt_flag_get17rcu_int_flag_enum
    gd32f30x_rcu.o(.ARM.exidx) refers to gd32f30x_rcu.o(i._Z24rcu_interrupt_flag_clear23rcu_int_flag_clear_enum) for i._Z24rcu_interrupt_flag_clear23rcu_int_flag_clear_enum
    gd32f30x_rcu.o(.ARM.exidx) refers to gd32f30x_rcu.o(i._Z20rcu_interrupt_enable12rcu_int_enum) for i._Z20rcu_interrupt_enable12rcu_int_enum
    gd32f30x_rcu.o(.ARM.exidx) refers to gd32f30x_rcu.o(i._Z21rcu_interrupt_disable12rcu_int_enum) for i._Z21rcu_interrupt_disable12rcu_int_enum
    gd32f30x_rcu.o(.ARM.exidx) refers to gd32f30x_rcu.o(i._Z33rcu_lxtal_drive_capability_configj) for i._Z33rcu_lxtal_drive_capability_configj
    gd32f30x_rcu.o(.ARM.exidx) refers to gd32f30x_rcu.o(i._Z11rcu_osci_on18rcu_osci_type_enum) for i._Z11rcu_osci_on18rcu_osci_type_enum
    gd32f30x_rcu.o(.ARM.exidx) refers to gd32f30x_rcu.o(i._Z12rcu_osci_off18rcu_osci_type_enum) for i._Z12rcu_osci_off18rcu_osci_type_enum
    gd32f30x_rcu.o(.ARM.exidx) refers to gd32f30x_rcu.o(i._Z27rcu_osci_bypass_mode_enable18rcu_osci_type_enum) for i._Z27rcu_osci_bypass_mode_enable18rcu_osci_type_enum
    gd32f30x_rcu.o(.ARM.exidx) refers to gd32f30x_rcu.o(i._Z28rcu_osci_bypass_mode_disable18rcu_osci_type_enum) for i._Z28rcu_osci_bypass_mode_disable18rcu_osci_type_enum
    gd32f30x_rcu.o(.ARM.exidx) refers to gd32f30x_rcu.o(i._Z30rcu_hxtal_clock_monitor_enablev) for i._Z30rcu_hxtal_clock_monitor_enablev
    gd32f30x_rcu.o(.ARM.exidx) refers to gd32f30x_rcu.o(i._Z31rcu_hxtal_clock_monitor_disablev) for i._Z31rcu_hxtal_clock_monitor_disablev
    gd32f30x_rcu.o(.ARM.exidx) refers to gd32f30x_rcu.o(i._Z26rcu_irc8m_adjust_value_setj) for i._Z26rcu_irc8m_adjust_value_setj
    gd32f30x_rcu.o(.ARM.exidx) refers to gd32f30x_rcu.o(i._Z25rcu_deepsleep_voltage_setj) for i._Z25rcu_deepsleep_voltage_setj
    gd32f30x_rcu.o(.ARM.exidx) refers to gd32f30x_rcu.o(i._Z18rcu_clock_freq_get19rcu_clock_freq_enum) for i._Z18rcu_clock_freq_get19rcu_clock_freq_enum
    gd32f30x_rtc.o(i._Z15rtc_counter_setj) refers to gd32f30x_rtc.o(i._Z28rtc_configuration_mode_enterv) for rtc_configuration_mode_enter()
    gd32f30x_rtc.o(i._Z15rtc_counter_setj) refers to gd32f30x_rtc.o(i._Z27rtc_configuration_mode_exitv) for rtc_configuration_mode_exit()
    gd32f30x_rtc.o(i._Z16rtc_alarm_configj) refers to gd32f30x_rtc.o(i._Z28rtc_configuration_mode_enterv) for rtc_configuration_mode_enter()
    gd32f30x_rtc.o(i._Z16rtc_alarm_configj) refers to gd32f30x_rtc.o(i._Z27rtc_configuration_mode_exitv) for rtc_configuration_mode_exit()
    gd32f30x_rtc.o(i._Z17rtc_prescaler_setj) refers to gd32f30x_rtc.o(i._Z28rtc_configuration_mode_enterv) for rtc_configuration_mode_enter()
    gd32f30x_rtc.o(i._Z17rtc_prescaler_setj) refers to gd32f30x_rtc.o(i._Z27rtc_configuration_mode_exitv) for rtc_configuration_mode_exit()
    gd32f30x_rtc.o(.ARM.exidx) refers to gd32f30x_rtc.o(i._Z20rtc_interrupt_enablej) for i._Z20rtc_interrupt_enablej
    gd32f30x_rtc.o(.ARM.exidx) refers to gd32f30x_rtc.o(i._Z21rtc_interrupt_disablej) for i._Z21rtc_interrupt_disablej
    gd32f30x_rtc.o(.ARM.exidx) refers to gd32f30x_rtc.o(i._Z28rtc_configuration_mode_enterv) for i._Z28rtc_configuration_mode_enterv
    gd32f30x_rtc.o(.ARM.exidx) refers to gd32f30x_rtc.o(i._Z27rtc_configuration_mode_exitv) for i._Z27rtc_configuration_mode_exitv
    gd32f30x_rtc.o(.ARM.exidx) refers to gd32f30x_rtc.o(i._Z14rtc_lwoff_waitv) for i._Z14rtc_lwoff_waitv
    gd32f30x_rtc.o(.ARM.exidx) refers to gd32f30x_rtc.o(i._Z22rtc_register_sync_waitv) for i._Z22rtc_register_sync_waitv
    gd32f30x_rtc.o(.ARM.exidx) refers to gd32f30x_rtc.o(i._Z15rtc_counter_getv) for i._Z15rtc_counter_getv
    gd32f30x_rtc.o(.ARM.exidx) refers to gd32f30x_rtc.o(i._Z15rtc_counter_setj) for i._Z15rtc_counter_setj
    gd32f30x_rtc.o(.ARM.exidx) refers to gd32f30x_rtc.o(i._Z17rtc_prescaler_setj) for i._Z17rtc_prescaler_setj
    gd32f30x_rtc.o(.ARM.exidx) refers to gd32f30x_rtc.o(i._Z16rtc_alarm_configj) for i._Z16rtc_alarm_configj
    gd32f30x_rtc.o(.ARM.exidx) refers to gd32f30x_rtc.o(i._Z15rtc_divider_getv) for i._Z15rtc_divider_getv
    gd32f30x_rtc.o(.ARM.exidx) refers to gd32f30x_rtc.o(i._Z12rtc_flag_getj) for i._Z12rtc_flag_getj
    gd32f30x_rtc.o(.ARM.exidx) refers to gd32f30x_rtc.o(i._Z14rtc_flag_clearj) for i._Z14rtc_flag_clearj
    gd32f30x_sdio.o(.ARM.exidx) refers to gd32f30x_sdio.o(i._Z11sdio_deinitv) for i._Z11sdio_deinitv
    gd32f30x_sdio.o(.ARM.exidx) refers to gd32f30x_sdio.o(i._Z17sdio_clock_configjjjt) for i._Z17sdio_clock_configjjjt
    gd32f30x_sdio.o(.ARM.exidx) refers to gd32f30x_sdio.o(i._Z26sdio_hardware_clock_enablev) for i._Z26sdio_hardware_clock_enablev
    gd32f30x_sdio.o(.ARM.exidx) refers to gd32f30x_sdio.o(i._Z27sdio_hardware_clock_disablev) for i._Z27sdio_hardware_clock_disablev
    gd32f30x_sdio.o(.ARM.exidx) refers to gd32f30x_sdio.o(i._Z17sdio_bus_mode_setj) for i._Z17sdio_bus_mode_setj
    gd32f30x_sdio.o(.ARM.exidx) refers to gd32f30x_sdio.o(i._Z20sdio_power_state_setj) for i._Z20sdio_power_state_setj
    gd32f30x_sdio.o(.ARM.exidx) refers to gd32f30x_sdio.o(i._Z20sdio_power_state_getv) for i._Z20sdio_power_state_getv
    gd32f30x_sdio.o(.ARM.exidx) refers to gd32f30x_sdio.o(i._Z17sdio_clock_enablev) for i._Z17sdio_clock_enablev
    gd32f30x_sdio.o(.ARM.exidx) refers to gd32f30x_sdio.o(i._Z18sdio_clock_disablev) for i._Z18sdio_clock_disablev
    gd32f30x_sdio.o(.ARM.exidx) refers to gd32f30x_sdio.o(i._Z28sdio_command_response_configjjj) for i._Z28sdio_command_response_configjjj
    gd32f30x_sdio.o(.ARM.exidx) refers to gd32f30x_sdio.o(i._Z18sdio_wait_type_setj) for i._Z18sdio_wait_type_setj
    gd32f30x_sdio.o(.ARM.exidx) refers to gd32f30x_sdio.o(i._Z15sdio_csm_enablev) for i._Z15sdio_csm_enablev
    gd32f30x_sdio.o(.ARM.exidx) refers to gd32f30x_sdio.o(i._Z16sdio_csm_disablev) for i._Z16sdio_csm_disablev
    gd32f30x_sdio.o(.ARM.exidx) refers to gd32f30x_sdio.o(i._Z22sdio_command_index_getv) for i._Z22sdio_command_index_getv
    gd32f30x_sdio.o(.ARM.exidx) refers to gd32f30x_sdio.o(i._Z17sdio_response_getj) for i._Z17sdio_response_getj
    gd32f30x_sdio.o(.ARM.exidx) refers to gd32f30x_sdio.o(i._Z16sdio_data_configjjj) for i._Z16sdio_data_configjjj
    gd32f30x_sdio.o(.ARM.exidx) refers to gd32f30x_sdio.o(i._Z25sdio_data_transfer_configjj) for i._Z25sdio_data_transfer_configjj
    gd32f30x_sdio.o(.ARM.exidx) refers to gd32f30x_sdio.o(i._Z15sdio_dsm_enablev) for i._Z15sdio_dsm_enablev
    gd32f30x_sdio.o(.ARM.exidx) refers to gd32f30x_sdio.o(i._Z16sdio_dsm_disablev) for i._Z16sdio_dsm_disablev
    gd32f30x_sdio.o(.ARM.exidx) refers to gd32f30x_sdio.o(i._Z15sdio_data_writej) for i._Z15sdio_data_writej
    gd32f30x_sdio.o(.ARM.exidx) refers to gd32f30x_sdio.o(i._Z14sdio_data_readv) for i._Z14sdio_data_readv
    gd32f30x_sdio.o(.ARM.exidx) refers to gd32f30x_sdio.o(i._Z21sdio_data_counter_getv) for i._Z21sdio_data_counter_getv
    gd32f30x_sdio.o(.ARM.exidx) refers to gd32f30x_sdio.o(i._Z21sdio_fifo_counter_getv) for i._Z21sdio_fifo_counter_getv
    gd32f30x_sdio.o(.ARM.exidx) refers to gd32f30x_sdio.o(i._Z15sdio_dma_enablev) for i._Z15sdio_dma_enablev
    gd32f30x_sdio.o(.ARM.exidx) refers to gd32f30x_sdio.o(i._Z16sdio_dma_disablev) for i._Z16sdio_dma_disablev
    gd32f30x_sdio.o(.ARM.exidx) refers to gd32f30x_sdio.o(i._Z13sdio_flag_getj) for i._Z13sdio_flag_getj
    gd32f30x_sdio.o(.ARM.exidx) refers to gd32f30x_sdio.o(i._Z15sdio_flag_clearj) for i._Z15sdio_flag_clearj
    gd32f30x_sdio.o(.ARM.exidx) refers to gd32f30x_sdio.o(i._Z21sdio_interrupt_enablej) for i._Z21sdio_interrupt_enablej
    gd32f30x_sdio.o(.ARM.exidx) refers to gd32f30x_sdio.o(i._Z22sdio_interrupt_disablej) for i._Z22sdio_interrupt_disablej
    gd32f30x_sdio.o(.ARM.exidx) refers to gd32f30x_sdio.o(i._Z23sdio_interrupt_flag_getj) for i._Z23sdio_interrupt_flag_getj
    gd32f30x_sdio.o(.ARM.exidx) refers to gd32f30x_sdio.o(i._Z25sdio_interrupt_flag_clearj) for i._Z25sdio_interrupt_flag_clearj
    gd32f30x_sdio.o(.ARM.exidx) refers to gd32f30x_sdio.o(i._Z20sdio_readwait_enablev) for i._Z20sdio_readwait_enablev
    gd32f30x_sdio.o(.ARM.exidx) refers to gd32f30x_sdio.o(i._Z21sdio_readwait_disablev) for i._Z21sdio_readwait_disablev
    gd32f30x_sdio.o(.ARM.exidx) refers to gd32f30x_sdio.o(i._Z25sdio_stop_readwait_enablev) for i._Z25sdio_stop_readwait_enablev
    gd32f30x_sdio.o(.ARM.exidx) refers to gd32f30x_sdio.o(i._Z26sdio_stop_readwait_disablev) for i._Z26sdio_stop_readwait_disablev
    gd32f30x_sdio.o(.ARM.exidx) refers to gd32f30x_sdio.o(i._Z22sdio_readwait_type_setj) for i._Z22sdio_readwait_type_setj
    gd32f30x_sdio.o(.ARM.exidx) refers to gd32f30x_sdio.o(i._Z21sdio_operation_enablev) for i._Z21sdio_operation_enablev
    gd32f30x_sdio.o(.ARM.exidx) refers to gd32f30x_sdio.o(i._Z22sdio_operation_disablev) for i._Z22sdio_operation_disablev
    gd32f30x_sdio.o(.ARM.exidx) refers to gd32f30x_sdio.o(i._Z19sdio_suspend_enablev) for i._Z19sdio_suspend_enablev
    gd32f30x_sdio.o(.ARM.exidx) refers to gd32f30x_sdio.o(i._Z20sdio_suspend_disablev) for i._Z20sdio_suspend_disablev
    gd32f30x_sdio.o(.ARM.exidx) refers to gd32f30x_sdio.o(i._Z25sdio_ceata_command_enablev) for i._Z25sdio_ceata_command_enablev
    gd32f30x_sdio.o(.ARM.exidx) refers to gd32f30x_sdio.o(i._Z26sdio_ceata_command_disablev) for i._Z26sdio_ceata_command_disablev
    gd32f30x_sdio.o(.ARM.exidx) refers to gd32f30x_sdio.o(i._Z27sdio_ceata_interrupt_enablev) for i._Z27sdio_ceata_interrupt_enablev
    gd32f30x_sdio.o(.ARM.exidx) refers to gd32f30x_sdio.o(i._Z28sdio_ceata_interrupt_disablev) for i._Z28sdio_ceata_interrupt_disablev
    gd32f30x_sdio.o(.ARM.exidx) refers to gd32f30x_sdio.o(i._Z36sdio_ceata_command_completion_enablev) for i._Z36sdio_ceata_command_completion_enablev
    gd32f30x_sdio.o(.ARM.exidx) refers to gd32f30x_sdio.o(i._Z37sdio_ceata_command_completion_disablev) for i._Z37sdio_ceata_command_completion_disablev
    gd32f30x_spi.o(i._Z14i2s_psc_configjjjj) refers to gd32f30x_rcu.o(i._Z18rcu_clock_freq_get19rcu_clock_freq_enum) for rcu_clock_freq_get(rcu_clock_freq_enum)
    gd32f30x_spi.o(i._Z14spi_i2s_deinitj) refers to gd32f30x_rcu.o(i._Z23rcu_periph_reset_enable21rcu_periph_reset_enum) for rcu_periph_reset_enable(rcu_periph_reset_enum)
    gd32f30x_spi.o(i._Z14spi_i2s_deinitj) refers to gd32f30x_rcu.o(i._Z24rcu_periph_reset_disable21rcu_periph_reset_enum) for rcu_periph_reset_disable(rcu_periph_reset_enum)
    gd32f30x_spi.o(.ARM.exidx) refers to gd32f30x_spi.o(i._Z14spi_i2s_deinitj) for i._Z14spi_i2s_deinitj
    gd32f30x_spi.o(.ARM.exidx) refers to gd32f30x_spi.o(i._Z8spi_initjP20spi_parameter_struct) for i._Z8spi_initjP20spi_parameter_struct
    gd32f30x_spi.o(.ARM.exidx) refers to gd32f30x_spi.o(i._Z10spi_enablej) for i._Z10spi_enablej
    gd32f30x_spi.o(.ARM.exidx) refers to gd32f30x_spi.o(i._Z11spi_disablej) for i._Z11spi_disablej
    gd32f30x_spi.o(.ARM.exidx) refers to gd32f30x_spi.o(i._Z14i2s_psc_configjjjj) for i._Z14i2s_psc_configjjjj
    gd32f30x_spi.o(.ARM.exidx) refers to gd32f30x_spi.o(i._Z8i2s_initjjjj) for i._Z8i2s_initjjjj
    gd32f30x_spi.o(.ARM.exidx) refers to gd32f30x_spi.o(i._Z10i2s_enablej) for i._Z10i2s_enablej
    gd32f30x_spi.o(.ARM.exidx) refers to gd32f30x_spi.o(i._Z11i2s_disablej) for i._Z11i2s_disablej
    gd32f30x_spi.o(.ARM.exidx) refers to gd32f30x_spi.o(i._Z21spi_nss_output_enablej) for i._Z21spi_nss_output_enablej
    gd32f30x_spi.o(.ARM.exidx) refers to gd32f30x_spi.o(i._Z22spi_nss_output_disablej) for i._Z22spi_nss_output_disablej
    gd32f30x_spi.o(.ARM.exidx) refers to gd32f30x_spi.o(i._Z21spi_nss_internal_highj) for i._Z21spi_nss_internal_highj
    gd32f30x_spi.o(.ARM.exidx) refers to gd32f30x_spi.o(i._Z20spi_nss_internal_lowj) for i._Z20spi_nss_internal_lowj
    gd32f30x_spi.o(.ARM.exidx) refers to gd32f30x_spi.o(i._Z14spi_dma_enablejh) for i._Z14spi_dma_enablejh
    gd32f30x_spi.o(.ARM.exidx) refers to gd32f30x_spi.o(i._Z15spi_dma_disablejh) for i._Z15spi_dma_disablejh
    gd32f30x_spi.o(.ARM.exidx) refers to gd32f30x_spi.o(i._Z32spi_i2s_data_frame_format_configjt) for i._Z32spi_i2s_data_frame_format_configjt
    gd32f30x_spi.o(.ARM.exidx) refers to gd32f30x_spi.o(i._Z21spi_i2s_data_transmitjt) for i._Z21spi_i2s_data_transmitjt
    gd32f30x_spi.o(.ARM.exidx) refers to gd32f30x_spi.o(i._Z20spi_i2s_data_receivej) for i._Z20spi_i2s_data_receivej
    gd32f30x_spi.o(.ARM.exidx) refers to gd32f30x_spi.o(i._Z33spi_bidirectional_transfer_configjj) for i._Z33spi_bidirectional_transfer_configjj
    gd32f30x_spi.o(.ARM.exidx) refers to gd32f30x_spi.o(i._Z24spi_i2s_interrupt_enablejh) for i._Z24spi_i2s_interrupt_enablejh
    gd32f30x_spi.o(.ARM.exidx) refers to gd32f30x_spi.o(i._Z25spi_i2s_interrupt_disablejh) for i._Z25spi_i2s_interrupt_disablejh
    gd32f30x_spi.o(.ARM.exidx) refers to gd32f30x_spi.o(i._Z26spi_i2s_interrupt_flag_getjh) for i._Z26spi_i2s_interrupt_flag_getjh
    gd32f30x_spi.o(.ARM.exidx) refers to gd32f30x_spi.o(i._Z16spi_i2s_flag_getjj) for i._Z16spi_i2s_flag_getjj
    gd32f30x_spi.o(.ARM.exidx) refers to gd32f30x_spi.o(i._Z19spi_crc_error_clearj) for i._Z19spi_crc_error_clearj
    gd32f30x_spi.o(.ARM.exidx) refers to gd32f30x_spi.o(i._Z10spi_crc_onj) for i._Z10spi_crc_onj
    gd32f30x_spi.o(.ARM.exidx) refers to gd32f30x_spi.o(i._Z11spi_crc_offj) for i._Z11spi_crc_offj
    gd32f30x_spi.o(.ARM.exidx) refers to gd32f30x_spi.o(i._Z22spi_crc_polynomial_setjt) for i._Z22spi_crc_polynomial_setjt
    gd32f30x_spi.o(.ARM.exidx) refers to gd32f30x_spi.o(i._Z22spi_crc_polynomial_getj) for i._Z22spi_crc_polynomial_getj
    gd32f30x_spi.o(.ARM.exidx) refers to gd32f30x_spi.o(i._Z12spi_crc_nextj) for i._Z12spi_crc_nextj
    gd32f30x_spi.o(.ARM.exidx) refers to gd32f30x_spi.o(i._Z11spi_crc_getjh) for i._Z11spi_crc_getjh
    gd32f30x_spi.o(.ARM.exidx) refers to gd32f30x_spi.o(i._Z18spi_ti_mode_enablej) for i._Z18spi_ti_mode_enablej
    gd32f30x_spi.o(.ARM.exidx) refers to gd32f30x_spi.o(i._Z19spi_ti_mode_disablej) for i._Z19spi_ti_mode_disablej
    gd32f30x_spi.o(.ARM.exidx) refers to gd32f30x_spi.o(i._Z20spi_nssp_mode_enablej) for i._Z20spi_nssp_mode_enablej
    gd32f30x_spi.o(.ARM.exidx) refers to gd32f30x_spi.o(i._Z21spi_nssp_mode_disablej) for i._Z21spi_nssp_mode_disablej
    gd32f30x_spi.o(.ARM.exidx) refers to gd32f30x_spi.o(i._Z11qspi_enablej) for i._Z11qspi_enablej
    gd32f30x_spi.o(.ARM.exidx) refers to gd32f30x_spi.o(i._Z12qspi_disablej) for i._Z12qspi_disablej
    gd32f30x_spi.o(.ARM.exidx) refers to gd32f30x_spi.o(i._Z17qspi_write_enablej) for i._Z17qspi_write_enablej
    gd32f30x_spi.o(.ARM.exidx) refers to gd32f30x_spi.o(i._Z16qspi_read_enablej) for i._Z16qspi_read_enablej
    gd32f30x_spi.o(.ARM.exidx) refers to gd32f30x_spi.o(i._Z23qspi_io23_output_enablej) for i._Z23qspi_io23_output_enablej
    gd32f30x_spi.o(.ARM.exidx) refers to gd32f30x_spi.o(i._Z24qspi_io23_output_disablej) for i._Z24qspi_io23_output_disablej
    gd32f30x_timer.o(i._Z12timer_deinitj) refers to gd32f30x_rcu.o(i._Z23rcu_periph_reset_enable21rcu_periph_reset_enum) for rcu_periph_reset_enable(rcu_periph_reset_enum)
    gd32f30x_timer.o(i._Z12timer_deinitj) refers to gd32f30x_rcu.o(i._Z24rcu_periph_reset_disable21rcu_periph_reset_enum) for rcu_periph_reset_disable(rcu_periph_reset_enum)
    gd32f30x_timer.o(i._Z26timer_input_capture_configjtP25timer_ic_parameter_struct) refers to gd32f30x_timer.o(i._Z44timer_channel_input_capture_prescaler_configjtt) for timer_channel_input_capture_prescaler_config(unsigned, unsigned short, unsigned short)
    gd32f30x_timer.o(i._Z30timer_input_pwm_capture_configjtP25timer_ic_parameter_struct) refers to gd32f30x_timer.o(i._Z44timer_channel_input_capture_prescaler_configjtt) for timer_channel_input_capture_prescaler_config(unsigned, unsigned short, unsigned short)
    gd32f30x_timer.o(i._Z33timer_external_clock_mode0_configjjjj) refers to gd32f30x_timer.o(i._Z29timer_external_trigger_configjjjj) for timer_external_trigger_config(unsigned, unsigned, unsigned, unsigned)
    gd32f30x_timer.o(i._Z33timer_external_clock_mode1_configjjjj) refers to gd32f30x_timer.o(i._Z29timer_external_trigger_configjjjj) for timer_external_trigger_config(unsigned, unsigned, unsigned, unsigned)
    gd32f30x_timer.o(i._Z47timer_external_trigger_as_external_clock_configjjtj) refers to gd32f30x_timer.o(i._Z33timer_input_trigger_source_selectjj) for timer_input_trigger_source_select(unsigned, unsigned)
    gd32f30x_timer.o(i._Z47timer_internal_trigger_as_external_clock_configjj) refers to gd32f30x_timer.o(i._Z33timer_input_trigger_source_selectjj) for timer_input_trigger_source_select(unsigned, unsigned)
    gd32f30x_timer.o(.ARM.exidx) refers to gd32f30x_timer.o(i._Z12timer_deinitj) for i._Z12timer_deinitj
    gd32f30x_timer.o(.ARM.exidx) refers to gd32f30x_timer.o(i._Z10timer_initjP22timer_parameter_struct) for i._Z10timer_initjP22timer_parameter_struct
    gd32f30x_timer.o(.ARM.exidx) refers to gd32f30x_timer.o(i._Z12timer_enablej) for i._Z12timer_enablej
    gd32f30x_timer.o(.ARM.exidx) refers to gd32f30x_timer.o(i._Z13timer_disablej) for i._Z13timer_disablej
    gd32f30x_timer.o(.ARM.exidx) refers to gd32f30x_timer.o(i._Z31timer_auto_reload_shadow_enablej) for i._Z31timer_auto_reload_shadow_enablej
    gd32f30x_timer.o(.ARM.exidx) refers to gd32f30x_timer.o(i._Z32timer_auto_reload_shadow_disablej) for i._Z32timer_auto_reload_shadow_disablej
    gd32f30x_timer.o(.ARM.exidx) refers to gd32f30x_timer.o(i._Z25timer_update_event_enablej) for i._Z25timer_update_event_enablej
    gd32f30x_timer.o(.ARM.exidx) refers to gd32f30x_timer.o(i._Z26timer_update_event_disablej) for i._Z26timer_update_event_disablej
    gd32f30x_timer.o(.ARM.exidx) refers to gd32f30x_timer.o(i._Z23timer_counter_alignmentjt) for i._Z23timer_counter_alignmentjt
    gd32f30x_timer.o(.ARM.exidx) refers to gd32f30x_timer.o(i._Z26timer_counter_up_directionj) for i._Z26timer_counter_up_directionj
    gd32f30x_timer.o(.ARM.exidx) refers to gd32f30x_timer.o(i._Z28timer_counter_down_directionj) for i._Z28timer_counter_down_directionj
    gd32f30x_timer.o(.ARM.exidx) refers to gd32f30x_timer.o(i._Z22timer_prescaler_configjth) for i._Z22timer_prescaler_configjth
    gd32f30x_timer.o(.ARM.exidx) refers to gd32f30x_timer.o(i._Z29timer_repetition_value_configjt) for i._Z29timer_repetition_value_configjt
    gd32f30x_timer.o(.ARM.exidx) refers to gd32f30x_timer.o(i._Z29timer_autoreload_value_configjj) for i._Z29timer_autoreload_value_configjj
    gd32f30x_timer.o(.ARM.exidx) refers to gd32f30x_timer.o(i._Z26timer_counter_value_configjj) for i._Z26timer_counter_value_configjj
    gd32f30x_timer.o(.ARM.exidx) refers to gd32f30x_timer.o(i._Z18timer_counter_readj) for i._Z18timer_counter_readj
    gd32f30x_timer.o(.ARM.exidx) refers to gd32f30x_timer.o(i._Z20timer_prescaler_readj) for i._Z20timer_prescaler_readj
    gd32f30x_timer.o(.ARM.exidx) refers to gd32f30x_timer.o(i._Z30timer_single_pulse_mode_configjh) for i._Z30timer_single_pulse_mode_configjh
    gd32f30x_timer.o(.ARM.exidx) refers to gd32f30x_timer.o(i._Z26timer_update_source_configjh) for i._Z26timer_update_source_configjh
    gd32f30x_timer.o(.ARM.exidx) refers to gd32f30x_timer.o(i._Z22timer_interrupt_enablejj) for i._Z22timer_interrupt_enablejj
    gd32f30x_timer.o(.ARM.exidx) refers to gd32f30x_timer.o(i._Z23timer_interrupt_disablejj) for i._Z23timer_interrupt_disablejj
    gd32f30x_timer.o(.ARM.exidx) refers to gd32f30x_timer.o(i._Z24timer_interrupt_flag_getjj) for i._Z24timer_interrupt_flag_getjj
    gd32f30x_timer.o(.ARM.exidx) refers to gd32f30x_timer.o(i._Z26timer_interrupt_flag_clearjj) for i._Z26timer_interrupt_flag_clearjj
    gd32f30x_timer.o(.ARM.exidx) refers to gd32f30x_timer.o(i._Z14timer_flag_getjj) for i._Z14timer_flag_getjj
    gd32f30x_timer.o(.ARM.exidx) refers to gd32f30x_timer.o(i._Z16timer_flag_clearjj) for i._Z16timer_flag_clearjj
    gd32f30x_timer.o(.ARM.exidx) refers to gd32f30x_timer.o(i._Z16timer_dma_enablejt) for i._Z16timer_dma_enablejt
    gd32f30x_timer.o(.ARM.exidx) refers to gd32f30x_timer.o(i._Z17timer_dma_disablejt) for i._Z17timer_dma_disablejt
    gd32f30x_timer.o(.ARM.exidx) refers to gd32f30x_timer.o(i._Z39timer_channel_dma_request_source_selectjh) for i._Z39timer_channel_dma_request_source_selectjh
    gd32f30x_timer.o(.ARM.exidx) refers to gd32f30x_timer.o(i._Z25timer_dma_transfer_configjjj) for i._Z25timer_dma_transfer_configjjj
    gd32f30x_timer.o(.ARM.exidx) refers to gd32f30x_timer.o(i._Z29timer_event_software_generatejt) for i._Z29timer_event_software_generatejt
    gd32f30x_timer.o(.ARM.exidx) refers to gd32f30x_timer.o(i._Z18timer_break_configjP28timer_break_parameter_struct) for i._Z18timer_break_configjP28timer_break_parameter_struct
    gd32f30x_timer.o(.ARM.exidx) refers to gd32f30x_timer.o(i._Z18timer_break_enablej) for i._Z18timer_break_enablej
    gd32f30x_timer.o(.ARM.exidx) refers to gd32f30x_timer.o(i._Z19timer_break_disablej) for i._Z19timer_break_disablej
    gd32f30x_timer.o(.ARM.exidx) refers to gd32f30x_timer.o(i._Z29timer_automatic_output_enablej) for i._Z29timer_automatic_output_enablej
    gd32f30x_timer.o(.ARM.exidx) refers to gd32f30x_timer.o(i._Z30timer_automatic_output_disablej) for i._Z30timer_automatic_output_disablej
    gd32f30x_timer.o(.ARM.exidx) refers to gd32f30x_timer.o(i._Z27timer_primary_output_configj11EventStatus) for i._Z27timer_primary_output_configj11EventStatus
    gd32f30x_timer.o(.ARM.exidx) refers to gd32f30x_timer.o(i._Z35timer_channel_control_shadow_configj11EventStatus) for i._Z35timer_channel_control_shadow_configj11EventStatus
    gd32f30x_timer.o(.ARM.exidx) refers to gd32f30x_timer.o(i._Z42timer_channel_control_shadow_update_configjh) for i._Z42timer_channel_control_shadow_update_configjh
    gd32f30x_timer.o(.ARM.exidx) refers to gd32f30x_timer.o(i._Z27timer_channel_output_configjtP25timer_oc_parameter_struct) for i._Z27timer_channel_output_configjtP25timer_oc_parameter_struct
    gd32f30x_timer.o(.ARM.exidx) refers to gd32f30x_timer.o(i._Z32timer_channel_output_mode_configjtt) for i._Z32timer_channel_output_mode_configjtt
    gd32f30x_timer.o(.ARM.exidx) refers to gd32f30x_timer.o(i._Z39timer_channel_output_pulse_value_configjtj) for i._Z39timer_channel_output_pulse_value_configjtj
    gd32f30x_timer.o(.ARM.exidx) refers to gd32f30x_timer.o(i._Z34timer_channel_output_shadow_configjtt) for i._Z34timer_channel_output_shadow_configjtt
    gd32f30x_timer.o(.ARM.exidx) refers to gd32f30x_timer.o(i._Z32timer_channel_output_fast_configjtt) for i._Z32timer_channel_output_fast_configjtt
    gd32f30x_timer.o(.ARM.exidx) refers to gd32f30x_timer.o(i._Z33timer_channel_output_clear_configjtt) for i._Z33timer_channel_output_clear_configjtt
    gd32f30x_timer.o(.ARM.exidx) refers to gd32f30x_timer.o(i._Z36timer_channel_output_polarity_configjtt) for i._Z36timer_channel_output_polarity_configjtt
    gd32f30x_timer.o(.ARM.exidx) refers to gd32f30x_timer.o(i._Z50timer_channel_complementary_output_polarity_configjtt) for i._Z50timer_channel_complementary_output_polarity_configjtt
    gd32f30x_timer.o(.ARM.exidx) refers to gd32f30x_timer.o(i._Z33timer_channel_output_state_configjtj) for i._Z33timer_channel_output_state_configjtj
    gd32f30x_timer.o(.ARM.exidx) refers to gd32f30x_timer.o(i._Z47timer_channel_complementary_output_state_configjtt) for i._Z47timer_channel_complementary_output_state_configjtt
    gd32f30x_timer.o(.ARM.exidx) refers to gd32f30x_timer.o(i._Z44timer_channel_input_capture_prescaler_configjtt) for i._Z44timer_channel_input_capture_prescaler_configjtt
    gd32f30x_timer.o(.ARM.exidx) refers to gd32f30x_timer.o(i._Z26timer_input_capture_configjtP25timer_ic_parameter_struct) for i._Z26timer_input_capture_configjtP25timer_ic_parameter_struct
    gd32f30x_timer.o(.ARM.exidx) refers to gd32f30x_timer.o(i._Z41timer_channel_capture_value_register_readjt) for i._Z41timer_channel_capture_value_register_readjt
    gd32f30x_timer.o(.ARM.exidx) refers to gd32f30x_timer.o(i._Z30timer_input_pwm_capture_configjtP25timer_ic_parameter_struct) for i._Z30timer_input_pwm_capture_configjtP25timer_ic_parameter_struct
    gd32f30x_timer.o(.ARM.exidx) refers to gd32f30x_timer.o(i._Z22timer_hall_mode_configjh) for i._Z22timer_hall_mode_configjh
    gd32f30x_timer.o(.ARM.exidx) refers to gd32f30x_timer.o(i._Z33timer_input_trigger_source_selectjj) for i._Z33timer_input_trigger_source_selectjj
    gd32f30x_timer.o(.ARM.exidx) refers to gd32f30x_timer.o(i._Z41timer_master_output_trigger_source_selectjj) for i._Z41timer_master_output_trigger_source_selectjj
    gd32f30x_timer.o(.ARM.exidx) refers to gd32f30x_timer.o(i._Z23timer_slave_mode_selectjj) for i._Z23timer_slave_mode_selectjj
    gd32f30x_timer.o(.ARM.exidx) refers to gd32f30x_timer.o(i._Z30timer_master_slave_mode_configjh) for i._Z30timer_master_slave_mode_configjh
    gd32f30x_timer.o(.ARM.exidx) refers to gd32f30x_timer.o(i._Z29timer_external_trigger_configjjjj) for i._Z29timer_external_trigger_configjjjj
    gd32f30x_timer.o(.ARM.exidx) refers to gd32f30x_timer.o(i._Z36timer_quadrature_decoder_mode_configjjtt) for i._Z36timer_quadrature_decoder_mode_configjjtt
    gd32f30x_timer.o(.ARM.exidx) refers to gd32f30x_timer.o(i._Z27timer_internal_clock_configj) for i._Z27timer_internal_clock_configj
    gd32f30x_timer.o(.ARM.exidx) refers to gd32f30x_timer.o(i._Z47timer_internal_trigger_as_external_clock_configjj) for i._Z47timer_internal_trigger_as_external_clock_configjj
    gd32f30x_timer.o(.ARM.exidx) refers to gd32f30x_timer.o(i._Z47timer_external_trigger_as_external_clock_configjjtj) for i._Z47timer_external_trigger_as_external_clock_configjjtj
    gd32f30x_timer.o(.ARM.exidx) refers to gd32f30x_timer.o(i._Z33timer_external_clock_mode0_configjjjj) for i._Z33timer_external_clock_mode0_configjjjj
    gd32f30x_timer.o(.ARM.exidx) refers to gd32f30x_timer.o(i._Z33timer_external_clock_mode1_configjjjj) for i._Z33timer_external_clock_mode1_configjjjj
    gd32f30x_timer.o(.ARM.exidx) refers to gd32f30x_timer.o(i._Z34timer_external_clock_mode1_disablej) for i._Z34timer_external_clock_mode1_disablej
    gd32f30x_timer.o(.ARM.exidx) refers to gd32f30x_timer.o(i._Z30timer_write_cc_register_configjt) for i._Z30timer_write_cc_register_configjt
    gd32f30x_timer.o(.ARM.exidx) refers to gd32f30x_timer.o(i._Z35timer_output_value_selection_configjt) for i._Z35timer_output_value_selection_configjt
    gd32f30x_usart.o(i._Z12usart_deinitj) refers to gd32f30x_rcu.o(i._Z23rcu_periph_reset_enable21rcu_periph_reset_enum) for rcu_periph_reset_enable(rcu_periph_reset_enum)
    gd32f30x_usart.o(i._Z12usart_deinitj) refers to gd32f30x_rcu.o(i._Z24rcu_periph_reset_disable21rcu_periph_reset_enum) for rcu_periph_reset_disable(rcu_periph_reset_enum)
    gd32f30x_usart.o(i._Z18usart_baudrate_setjj) refers to gd32f30x_rcu.o(i._Z18rcu_clock_freq_get19rcu_clock_freq_enum) for rcu_clock_freq_get(rcu_clock_freq_enum)
    gd32f30x_usart.o(.ARM.exidx) refers to gd32f30x_usart.o(i._Z12usart_deinitj) for i._Z12usart_deinitj
    gd32f30x_usart.o(.ARM.exidx) refers to gd32f30x_usart.o(i._Z18usart_baudrate_setjj) for i._Z18usart_baudrate_setjj
    gd32f30x_usart.o(.ARM.exidx) refers to gd32f30x_usart.o(i._Z19usart_parity_configjj) for i._Z19usart_parity_configjj
    gd32f30x_usart.o(.ARM.exidx) refers to gd32f30x_usart.o(i._Z21usart_word_length_setjj) for i._Z21usart_word_length_setjj
    gd32f30x_usart.o(.ARM.exidx) refers to gd32f30x_usart.o(i._Z18usart_stop_bit_setjj) for i._Z18usart_stop_bit_setjj
    gd32f30x_usart.o(.ARM.exidx) refers to gd32f30x_usart.o(i._Z12usart_enablej) for i._Z12usart_enablej
    gd32f30x_usart.o(.ARM.exidx) refers to gd32f30x_usart.o(i._Z13usart_disablej) for i._Z13usart_disablej
    gd32f30x_usart.o(.ARM.exidx) refers to gd32f30x_usart.o(i._Z21usart_transmit_configjj) for i._Z21usart_transmit_configjj
    gd32f30x_usart.o(.ARM.exidx) refers to gd32f30x_usart.o(i._Z20usart_receive_configjj) for i._Z20usart_receive_configjj
    gd32f30x_usart.o(.ARM.exidx) refers to gd32f30x_usart.o(i._Z23usart_data_first_configjj) for i._Z23usart_data_first_configjj
    gd32f30x_usart.o(.ARM.exidx) refers to gd32f30x_usart.o(i._Z19usart_invert_configj17usart_invert_enum) for i._Z19usart_invert_configj17usart_invert_enum
    gd32f30x_usart.o(.ARM.exidx) refers to gd32f30x_usart.o(i._Z29usart_receiver_timeout_enablej) for i._Z29usart_receiver_timeout_enablej
    gd32f30x_usart.o(.ARM.exidx) refers to gd32f30x_usart.o(i._Z30usart_receiver_timeout_disablej) for i._Z30usart_receiver_timeout_disablej
    gd32f30x_usart.o(.ARM.exidx) refers to gd32f30x_usart.o(i._Z39usart_receiver_timeout_threshold_configjj) for i._Z39usart_receiver_timeout_threshold_configjj
    gd32f30x_usart.o(.ARM.exidx) refers to gd32f30x_usart.o(i._Z19usart_data_transmitjj) for i._Z19usart_data_transmitjj
    gd32f30x_usart.o(.ARM.exidx) refers to gd32f30x_usart.o(i._Z18usart_data_receivej) for i._Z18usart_data_receivej
    gd32f30x_usart.o(.ARM.exidx) refers to gd32f30x_usart.o(i._Z20usart_address_configjh) for i._Z20usart_address_configjh
    gd32f30x_usart.o(.ARM.exidx) refers to gd32f30x_usart.o(i._Z22usart_mute_mode_enablej) for i._Z22usart_mute_mode_enablej
    gd32f30x_usart.o(.ARM.exidx) refers to gd32f30x_usart.o(i._Z23usart_mute_mode_disablej) for i._Z23usart_mute_mode_disablej
    gd32f30x_usart.o(.ARM.exidx) refers to gd32f30x_usart.o(i._Z29usart_mute_mode_wakeup_configjj) for i._Z29usart_mute_mode_wakeup_configjj
    gd32f30x_usart.o(.ARM.exidx) refers to gd32f30x_usart.o(i._Z21usart_lin_mode_enablej) for i._Z21usart_lin_mode_enablej
    gd32f30x_usart.o(.ARM.exidx) refers to gd32f30x_usart.o(i._Z22usart_lin_mode_disablej) for i._Z22usart_lin_mode_disablej
    gd32f30x_usart.o(.ARM.exidx) refers to gd32f30x_usart.o(i._Z39usart_lin_break_detection_length_configjj) for i._Z39usart_lin_break_detection_length_configjj
    gd32f30x_usart.o(.ARM.exidx) refers to gd32f30x_usart.o(i._Z16usart_send_breakj) for i._Z16usart_send_breakj
    gd32f30x_usart.o(.ARM.exidx) refers to gd32f30x_usart.o(i._Z23usart_halfduplex_enablej) for i._Z23usart_halfduplex_enablej
    gd32f30x_usart.o(.ARM.exidx) refers to gd32f30x_usart.o(i._Z24usart_halfduplex_disablej) for i._Z24usart_halfduplex_disablej
    gd32f30x_usart.o(.ARM.exidx) refers to gd32f30x_usart.o(i._Z30usart_synchronous_clock_enablej) for i._Z30usart_synchronous_clock_enablej
    gd32f30x_usart.o(.ARM.exidx) refers to gd32f30x_usart.o(i._Z31usart_synchronous_clock_disablej) for i._Z31usart_synchronous_clock_disablej
    gd32f30x_usart.o(.ARM.exidx) refers to gd32f30x_usart.o(i._Z30usart_synchronous_clock_configjjjj) for i._Z30usart_synchronous_clock_configjjjj
    gd32f30x_usart.o(.ARM.exidx) refers to gd32f30x_usart.o(i._Z23usart_guard_time_configjj) for i._Z23usart_guard_time_configjj
    gd32f30x_usart.o(.ARM.exidx) refers to gd32f30x_usart.o(i._Z27usart_smartcard_mode_enablej) for i._Z27usart_smartcard_mode_enablej
    gd32f30x_usart.o(.ARM.exidx) refers to gd32f30x_usart.o(i._Z28usart_smartcard_mode_disablej) for i._Z28usart_smartcard_mode_disablej
    gd32f30x_usart.o(.ARM.exidx) refers to gd32f30x_usart.o(i._Z32usart_smartcard_mode_nack_enablej) for i._Z32usart_smartcard_mode_nack_enablej
    gd32f30x_usart.o(.ARM.exidx) refers to gd32f30x_usart.o(i._Z33usart_smartcard_mode_nack_disablej) for i._Z33usart_smartcard_mode_nack_disablej
    gd32f30x_usart.o(.ARM.exidx) refers to gd32f30x_usart.o(i._Z32usart_smartcard_autoretry_configjj) for i._Z32usart_smartcard_autoretry_configjj
    gd32f30x_usart.o(.ARM.exidx) refers to gd32f30x_usart.o(i._Z25usart_block_length_configjj) for i._Z25usart_block_length_configjj
    gd32f30x_usart.o(.ARM.exidx) refers to gd32f30x_usart.o(i._Z22usart_irda_mode_enablej) for i._Z22usart_irda_mode_enablej
    gd32f30x_usart.o(.ARM.exidx) refers to gd32f30x_usart.o(i._Z23usart_irda_mode_disablej) for i._Z23usart_irda_mode_disablej
    gd32f30x_usart.o(.ARM.exidx) refers to gd32f30x_usart.o(i._Z22usart_prescaler_configjh) for i._Z22usart_prescaler_configjh
    gd32f30x_usart.o(.ARM.exidx) refers to gd32f30x_usart.o(i._Z26usart_irda_lowpower_configjj) for i._Z26usart_irda_lowpower_configjj
    gd32f30x_usart.o(.ARM.exidx) refers to gd32f30x_usart.o(i._Z30usart_hardware_flow_rts_configjj) for i._Z30usart_hardware_flow_rts_configjj
    gd32f30x_usart.o(.ARM.exidx) refers to gd32f30x_usart.o(i._Z30usart_hardware_flow_cts_configjj) for i._Z30usart_hardware_flow_cts_configjj
    gd32f30x_usart.o(.ARM.exidx) refers to gd32f30x_usart.o(i._Z24usart_dma_receive_configjj) for i._Z24usart_dma_receive_configjj
    gd32f30x_usart.o(.ARM.exidx) refers to gd32f30x_usart.o(i._Z25usart_dma_transmit_configjj) for i._Z25usart_dma_transmit_configjj
    gd32f30x_usart.o(.ARM.exidx) refers to gd32f30x_usart.o(i._Z14usart_flag_getj15usart_flag_enum) for i._Z14usart_flag_getj15usart_flag_enum
    gd32f30x_usart.o(.ARM.exidx) refers to gd32f30x_usart.o(i._Z16usart_flag_clearj15usart_flag_enum) for i._Z16usart_flag_clearj15usart_flag_enum
    gd32f30x_usart.o(.ARM.exidx) refers to gd32f30x_usart.o(i._Z22usart_interrupt_enablejj) for i._Z22usart_interrupt_enablejj
    gd32f30x_usart.o(.ARM.exidx) refers to gd32f30x_usart.o(i._Z23usart_interrupt_disablejj) for i._Z23usart_interrupt_disablejj
    gd32f30x_usart.o(.ARM.exidx) refers to gd32f30x_usart.o(i._Z24usart_interrupt_flag_getjj) for i._Z24usart_interrupt_flag_getjj
    gd32f30x_usart.o(.ARM.exidx) refers to gd32f30x_usart.o(i._Z26usart_interrupt_flag_clearjj) for i._Z26usart_interrupt_flag_clearjj
    gd32f30x_wwdgt.o(i._Z12wwdgt_deinitv) refers to gd32f30x_rcu.o(i._Z23rcu_periph_reset_enable21rcu_periph_reset_enum) for rcu_periph_reset_enable(rcu_periph_reset_enum)
    gd32f30x_wwdgt.o(i._Z12wwdgt_deinitv) refers to gd32f30x_rcu.o(i._Z24rcu_periph_reset_disable21rcu_periph_reset_enum) for rcu_periph_reset_disable(rcu_periph_reset_enum)
    gd32f30x_wwdgt.o(.ARM.exidx) refers to gd32f30x_wwdgt.o(i._Z12wwdgt_deinitv) for i._Z12wwdgt_deinitv
    gd32f30x_wwdgt.o(.ARM.exidx) refers to gd32f30x_wwdgt.o(i._Z20wwdgt_counter_updatet) for i._Z20wwdgt_counter_updatet
    gd32f30x_wwdgt.o(.ARM.exidx) refers to gd32f30x_wwdgt.o(i._Z12wwdgt_enablev) for i._Z12wwdgt_enablev
    gd32f30x_wwdgt.o(.ARM.exidx) refers to gd32f30x_wwdgt.o(i._Z12wwdgt_configttj) for i._Z12wwdgt_configttj
    gd32f30x_wwdgt.o(.ARM.exidx) refers to gd32f30x_wwdgt.o(i._Z22wwdgt_interrupt_enablev) for i._Z22wwdgt_interrupt_enablev
    gd32f30x_wwdgt.o(.ARM.exidx) refers to gd32f30x_wwdgt.o(i._Z14wwdgt_flag_getv) for i._Z14wwdgt_flag_getv
    gd32f30x_wwdgt.o(.ARM.exidx) refers to gd32f30x_wwdgt.o(i._Z16wwdgt_flag_clearv) for i._Z16wwdgt_flag_clearv
    startup_gd32f30x_hd.o(STACK) refers (Special) to heapauxi.o(.text) for __use_two_region_memory
    startup_gd32f30x_hd.o(HEAP) refers (Special) to heapauxi.o(.text) for __use_two_region_memory
    startup_gd32f30x_hd.o(RESET) refers (Special) to heapauxi.o(.text) for __use_two_region_memory
    startup_gd32f30x_hd.o(RESET) refers to startup_gd32f30x_hd.o(STACK) for __initial_sp
    startup_gd32f30x_hd.o(RESET) refers to startup_gd32f30x_hd.o(.text) for Reset_Handler
    startup_gd32f30x_hd.o(RESET) refers to core.o(i.NMI_Handler) for NMI_Handler
    startup_gd32f30x_hd.o(RESET) refers to core.o(i.HardFault_Handler) for HardFault_Handler
    startup_gd32f30x_hd.o(RESET) refers to core.o(i.SysTick_Handler) for SysTick_Handler
    startup_gd32f30x_hd.o(RESET) refers to sensor.o(i.EXTI0_IRQHandler) for EXTI0_IRQHandler
    startup_gd32f30x_hd.o(RESET) refers to can.o(i.CAN0_RX1_IRQHandler) for CAN0_RX1_IRQHandler
    startup_gd32f30x_hd.o(RESET) refers to sensor.o(i.EXTI5_9_IRQHandler) for EXTI5_9_IRQHandler
    startup_gd32f30x_hd.o(RESET) refers to usart.o(i.USART0_IRQHandler) for USART0_IRQHandler
    startup_gd32f30x_hd.o(.text) refers (Special) to heapauxi.o(.text) for __use_two_region_memory
    startup_gd32f30x_hd.o(.text) refers to system_gd32f30x.o(i.SystemInit) for SystemInit
    startup_gd32f30x_hd.o(.text) refers to __main.o(!!!main) for __main
    startup_gd32f30x_hd.o(.text) refers to startup_gd32f30x_hd.o(HEAP) for Heap_Mem
    startup_gd32f30x_hd.o(.text) refers to startup_gd32f30x_hd.o(STACK) for Stack_Mem
    system_gd32f30x.o(i.SystemCoreClockUpdate) refers to system_gd32f30x.o(.data) for SystemCoreClock
    system_gd32f30x.o(i.SystemInit) refers to system_gd32f30x.o(i._Z19system_clock_configv) for system_clock_config()
    system_gd32f30x.o(i._Z19system_clock_configv) refers to system_gd32f30x.o(i._Z23system_clock_120m_hxtalv) for system_clock_120m_hxtal()
    system_gd32f30x.o(.ARM.exidx) refers to system_gd32f30x.o(i._Z23system_clock_120m_hxtalv) for i._Z23system_clock_120m_hxtalv
    system_gd32f30x.o(.ARM.exidx) refers to system_gd32f30x.o(i._Z19system_clock_configv) for i._Z19system_clock_configv
    system_gd32f30x.o(.ARM.exidx) refers to system_gd32f30x.o(i.SystemInit) for i.SystemInit
    system_gd32f30x.o(.ARM.exidx) refers to system_gd32f30x.o(i.SystemCoreClockUpdate) for i.SystemCoreClockUpdate
    __main.o(!!!main) refers to __rtentry.o(.ARM.Collect$$rtentry$$00000000) for __rt_entry
    init_aeabi.o(.emb_text) refers (Special) to libinit2.o(.ARM.Collect$$libinit$$00000031) for __rt_lib_init_cpp_2
    init_aeabi.o(.init_array) refers (Special) to libinit2.o(.ARM.Collect$$libinit$$00000031) for __rt_lib_init_cpp_2
    init_aeabi.o(.init_array) refers to init_aeabi.o(.text) for __cpp_initialize__aeabi_
    init_aeabi.o(.dummy_text) refers (Special) to libinit2.o(.ARM.Collect$$libinit$$00000031) for __rt_lib_init_cpp_2
    init_aeabi.o(.text) refers (Special) to libinit2.o(.ARM.Collect$$libinit$$00000031) for __rt_lib_init_cpp_2
    init_aeabi.o(.ARM.exidx) refers (Special) to libinit2.o(.ARM.Collect$$libinit$$00000031) for __rt_lib_init_cpp_2
    init_aeabi.o(.ARM.exidx) refers to init_aeabi.o(.text) for .text
    cxa_guard_acquire.o(.ARM.exidx) refers to cxa_guard_acquire.o(i.__cxa_guard_acquire) for i.__cxa_guard_acquire
    cxa_guard_release.o(.ARM.exidx) refers to cxa_guard_release.o(i.__cxa_guard_release) for i.__cxa_guard_release
    basic.o(x$fpl$basic) refers (Special) to usenofp.o(x$fpl$usenofp) for __I$use$fp
    d2f.o(x$fpl$d2f) refers (Special) to usenofp.o(x$fpl$usenofp) for __I$use$fp
    d2f.o(x$fpl$d2f) refers to fretinf.o(x$fpl$fretinf) for __fpl_fretinf
    d2f.o(x$fpl$d2f) refers to dnaninf.o(x$fpl$dnaninf) for __fpl_dnaninf
    daddsub_clz.o(x$fpl$dadd) refers (Special) to usenofp.o(x$fpl$usenofp) for __I$use$fp
    daddsub_clz.o(x$fpl$dadd) refers to daddsub_clz.o(x$fpl$dsub) for _dsub1
    daddsub_clz.o(x$fpl$dadd) refers to dretinf.o(x$fpl$dretinf) for __fpl_dretinf
    daddsub_clz.o(x$fpl$dadd) refers to dnaninf.o(x$fpl$dnaninf) for __fpl_dnaninf
    daddsub_clz.o(x$fpl$drsb) refers (Special) to usenofp.o(x$fpl$usenofp) for __I$use$fp
    daddsub_clz.o(x$fpl$drsb) refers to daddsub_clz.o(x$fpl$dadd) for _dadd1
    daddsub_clz.o(x$fpl$drsb) refers to daddsub_clz.o(x$fpl$dsub) for _dsub1
    daddsub_clz.o(x$fpl$dsub) refers (Special) to usenofp.o(x$fpl$usenofp) for __I$use$fp
    daddsub_clz.o(x$fpl$dsub) refers to daddsub_clz.o(x$fpl$dadd) for _dadd1
    daddsub_clz.o(x$fpl$dsub) refers to dnaninf.o(x$fpl$dnaninf) for __fpl_dnaninf
    ddiv.o(x$fpl$drdiv) refers (Special) to usenofp.o(x$fpl$usenofp) for __I$use$fp
    ddiv.o(x$fpl$drdiv) refers to ddiv.o(x$fpl$ddiv) for ddiv_entry
    ddiv.o(x$fpl$ddiv) refers (Special) to usenofp.o(x$fpl$usenofp) for __I$use$fp
    ddiv.o(x$fpl$ddiv) refers to dretinf.o(x$fpl$dretinf) for __fpl_dretinf
    ddiv.o(x$fpl$ddiv) refers to dnaninf.o(x$fpl$dnaninf) for __fpl_dnaninf
    dfix.o(x$fpl$dfix) refers (Special) to usenofp.o(x$fpl$usenofp) for __I$use$fp
    dfix.o(x$fpl$dfix) refers to dnaninf.o(x$fpl$dnaninf) for __fpl_dnaninf
    dfix.o(x$fpl$dfixr) refers (Special) to usenofp.o(x$fpl$usenofp) for __I$use$fp
    dfix.o(x$fpl$dfixr) refers to dnaninf.o(x$fpl$dnaninf) for __fpl_dnaninf
    dfixu.o(x$fpl$dfixu) refers (Special) to usenofp.o(x$fpl$usenofp) for __I$use$fp
    dfixu.o(x$fpl$dfixu) refers to dnaninf.o(x$fpl$dnaninf) for __fpl_dnaninf
    dfixu.o(x$fpl$dfixur) refers (Special) to usenofp.o(x$fpl$usenofp) for __I$use$fp
    dfixu.o(x$fpl$dfixur) refers to dnaninf.o(x$fpl$dnaninf) for __fpl_dnaninf
    dflt_clz.o(x$fpl$dfltu) refers (Special) to usenofp.o(x$fpl$usenofp) for __I$use$fp
    dflt_clz.o(x$fpl$dflt) refers (Special) to usenofp.o(x$fpl$usenofp) for __I$use$fp
    dflt_clz.o(x$fpl$dfltn) refers (Special) to usenofp.o(x$fpl$usenofp) for __I$use$fp
    dleqf.o(x$fpl$dleqf) refers (Special) to usenofp.o(x$fpl$usenofp) for __I$use$fp
    dleqf.o(x$fpl$dleqf) refers to dnaninf.o(x$fpl$dnaninf) for __fpl_dnaninf
    dleqf.o(x$fpl$dleqf) refers to dcmpi.o(x$fpl$dcmpinf) for __fpl_dcmp_Inf
    dmul.o(x$fpl$dmul) refers (Special) to usenofp.o(x$fpl$usenofp) for __I$use$fp
    dmul.o(x$fpl$dmul) refers to dretinf.o(x$fpl$dretinf) for __fpl_dretinf
    dmul.o(x$fpl$dmul) refers to dnaninf.o(x$fpl$dnaninf) for __fpl_dnaninf
    drleqf.o(x$fpl$drleqf) refers (Special) to usenofp.o(x$fpl$usenofp) for __I$use$fp
    drleqf.o(x$fpl$drleqf) refers to dleqf.o(x$fpl$dleqf) for __fpl_dcmple_InfNaN
    f2d.o(x$fpl$f2d) refers (Special) to usenofp.o(x$fpl$usenofp) for __I$use$fp
    f2d.o(x$fpl$f2d) refers to fnaninf.o(x$fpl$fnaninf) for __fpl_fnaninf
    f2d.o(x$fpl$f2d) refers to dretinf.o(x$fpl$dretinf) for __fpl_dretinf
    cos.o(i.__hardfp_cos) refers (Special) to usenofp.o(x$fpl$usenofp) for __I$use$fp
    cos.o(i.__hardfp_cos) refers to _rserrno.o(.text) for __set_errno
    cos.o(i.__hardfp_cos) refers to dunder.o(i.__mathlib_dbl_invalid) for __mathlib_dbl_invalid
    cos.o(i.__hardfp_cos) refers to dunder.o(i.__mathlib_dbl_infnan) for __mathlib_dbl_infnan
    cos.o(i.__hardfp_cos) refers to rred.o(i.__ieee754_rem_pio2) for __ieee754_rem_pio2
    cos.o(i.__hardfp_cos) refers to sin_i.o(i.__kernel_sin) for __kernel_sin
    cos.o(i.__hardfp_cos) refers to cos_i.o(i.__kernel_cos) for __kernel_cos
    cos.o(i.__hardfp_cos) refers to basic.o(x$fpl$basic) for __aeabi_dneg
    cos.o(i.__softfp_cos) refers (Special) to usenofp.o(x$fpl$usenofp) for __I$use$fp
    cos.o(i.__softfp_cos) refers to cos.o(i.__hardfp_cos) for __hardfp_cos
    cos.o(i.cos) refers (Special) to usenofp.o(x$fpl$usenofp) for __I$use$fp
    cos.o(i.cos) refers to cos.o(i.__hardfp_cos) for __hardfp_cos
    cos_x.o(i.____hardfp_cos$lsc) refers (Special) to usenofp.o(x$fpl$usenofp) for __I$use$fp
    cos_x.o(i.____hardfp_cos$lsc) refers to _rserrno.o(.text) for __set_errno
    cos_x.o(i.____hardfp_cos$lsc) refers to dunder.o(i.__mathlib_dbl_infnan) for __mathlib_dbl_infnan
    cos_x.o(i.____hardfp_cos$lsc) refers to rred.o(i.__ieee754_rem_pio2) for __ieee754_rem_pio2
    cos_x.o(i.____hardfp_cos$lsc) refers to sin_i.o(i.__kernel_sin) for __kernel_sin
    cos_x.o(i.____hardfp_cos$lsc) refers to cos_i.o(i.__kernel_cos) for __kernel_cos
    cos_x.o(i.____hardfp_cos$lsc) refers to basic.o(x$fpl$basic) for __aeabi_dneg
    cos_x.o(i.____softfp_cos$lsc) refers (Special) to usenofp.o(x$fpl$usenofp) for __I$use$fp
    cos_x.o(i.____softfp_cos$lsc) refers to cos_x.o(i.____hardfp_cos$lsc) for ____hardfp_cos$lsc
    cos_x.o(i.__cos$lsc) refers (Special) to usenofp.o(x$fpl$usenofp) for __I$use$fp
    cos_x.o(i.__cos$lsc) refers to cos_x.o(i.____hardfp_cos$lsc) for ____hardfp_cos$lsc
    cosf.o(i.__hardfp_cosf) refers (Special) to usenofp.o(x$fpl$usenofp) for __I$use$fp
    cosf.o(i.__hardfp_cosf) refers to rredf.o(i.__mathlib_rredf2) for __mathlib_rredf2
    cosf.o(i.__hardfp_cosf) refers to _rserrno.o(.text) for __set_errno
    cosf.o(i.__hardfp_cosf) refers to funder.o(i.__mathlib_flt_invalid) for __mathlib_flt_invalid
    cosf.o(i.__hardfp_cosf) refers to funder.o(i.__mathlib_flt_infnan) for __mathlib_flt_infnan
    cosf.o(i.__softfp_cosf) refers (Special) to usenofp.o(x$fpl$usenofp) for __I$use$fp
    cosf.o(i.__softfp_cosf) refers to cosf.o(i.__hardfp_cosf) for __hardfp_cosf
    cosf.o(i.cosf) refers (Special) to usenofp.o(x$fpl$usenofp) for __I$use$fp
    cosf.o(i.cosf) refers to cosf.o(i.__hardfp_cosf) for __hardfp_cosf
    cosf_x.o(i.____hardfp_cosf$lsc) refers (Special) to usenofp.o(x$fpl$usenofp) for __I$use$fp
    cosf_x.o(i.____hardfp_cosf$lsc) refers to rredf.o(i.__mathlib_rredf2) for __mathlib_rredf2
    cosf_x.o(i.____hardfp_cosf$lsc) refers to _rserrno.o(.text) for __set_errno
    cosf_x.o(i.____hardfp_cosf$lsc) refers to funder.o(i.__mathlib_flt_infnan) for __mathlib_flt_infnan
    cosf_x.o(i.____softfp_cosf$lsc) refers (Special) to usenofp.o(x$fpl$usenofp) for __I$use$fp
    cosf_x.o(i.____softfp_cosf$lsc) refers to cosf_x.o(i.____hardfp_cosf$lsc) for ____hardfp_cosf$lsc
    cosf_x.o(i.__cosf$lsc) refers (Special) to usenofp.o(x$fpl$usenofp) for __I$use$fp
    cosf_x.o(i.__cosf$lsc) refers to cosf_x.o(i.____hardfp_cosf$lsc) for ____hardfp_cosf$lsc
    logf.o(i.__hardfp_logf) refers (Special) to usenofp.o(x$fpl$usenofp) for __I$use$fp
    logf.o(i.__hardfp_logf) refers to funder.o(i.__mathlib_flt_infnan) for __mathlib_flt_infnan
    logf.o(i.__hardfp_logf) refers to _rserrno.o(.text) for __set_errno
    logf.o(i.__hardfp_logf) refers to funder.o(i.__mathlib_flt_invalid) for __mathlib_flt_invalid
    logf.o(i.__hardfp_logf) refers to funder.o(i.__mathlib_flt_divzero) for __mathlib_flt_divzero
    logf.o(i.__hardfp_logf) refers to logf.o(.constdata) for .constdata
    logf.o(i.__softfp_logf) refers (Special) to usenofp.o(x$fpl$usenofp) for __I$use$fp
    logf.o(i.__softfp_logf) refers to logf.o(i.__hardfp_logf) for __hardfp_logf
    logf.o(i.logf) refers (Special) to usenofp.o(x$fpl$usenofp) for __I$use$fp
    logf.o(i.logf) refers to logf.o(i.__hardfp_logf) for __hardfp_logf
    logf.o(.constdata) refers (Special) to usenofp.o(x$fpl$usenofp) for __I$use$fp
    logf_x.o(i.____hardfp_logf$lsc) refers (Special) to usenofp.o(x$fpl$usenofp) for __I$use$fp
    logf_x.o(i.____hardfp_logf$lsc) refers to funder.o(i.__mathlib_flt_infnan) for __mathlib_flt_infnan
    logf_x.o(i.____hardfp_logf$lsc) refers to _rserrno.o(.text) for __set_errno
    logf_x.o(i.____hardfp_logf$lsc) refers to logf_x.o(.constdata) for .constdata
    logf_x.o(i.____softfp_logf$lsc) refers (Special) to usenofp.o(x$fpl$usenofp) for __I$use$fp
    logf_x.o(i.____softfp_logf$lsc) refers to logf_x.o(i.____hardfp_logf$lsc) for ____hardfp_logf$lsc
    logf_x.o(i.__logf$lsc) refers (Special) to usenofp.o(x$fpl$usenofp) for __I$use$fp
    logf_x.o(i.__logf$lsc) refers to logf_x.o(i.____hardfp_logf$lsc) for ____hardfp_logf$lsc
    logf_x.o(.constdata) refers (Special) to usenofp.o(x$fpl$usenofp) for __I$use$fp
    powf.o(i.__hardfp_powf) refers (Special) to usenofp.o(x$fpl$usenofp) for __I$use$fp
    powf.o(i.__hardfp_powf) refers to _rserrno.o(.text) for __set_errno
    powf.o(i.__hardfp_powf) refers to funder.o(i.__mathlib_flt_overflow) for __mathlib_flt_overflow
    powf.o(i.__hardfp_powf) refers to fpclassifyf.o(i.__ARM_fpclassifyf) for __ARM_fpclassifyf
    powf.o(i.__hardfp_powf) refers to funder.o(i.__mathlib_flt_underflow) for __mathlib_flt_underflow
    powf.o(i.__hardfp_powf) refers to funder.o(i.__mathlib_flt_invalid) for __mathlib_flt_invalid
    powf.o(i.__hardfp_powf) refers to powf.o(.constdata) for .constdata
    powf.o(i.__hardfp_powf) refers to funder.o(i.__mathlib_flt_infnan2) for __mathlib_flt_infnan2
    powf.o(i.__hardfp_powf) refers to funder.o(i.__mathlib_flt_divzero) for __mathlib_flt_divzero
    powf.o(i.__softfp_powf) refers (Special) to usenofp.o(x$fpl$usenofp) for __I$use$fp
    powf.o(i.__softfp_powf) refers to powf.o(i.__hardfp_powf) for __hardfp_powf
    powf.o(i.powf) refers (Special) to usenofp.o(x$fpl$usenofp) for __I$use$fp
    powf.o(i.powf) refers to powf.o(i.__hardfp_powf) for __hardfp_powf
    powf.o(.constdata) refers (Special) to usenofp.o(x$fpl$usenofp) for __I$use$fp
    powf_x.o(i.____hardfp_powf$lsc) refers (Special) to usenofp.o(x$fpl$usenofp) for __I$use$fp
    powf_x.o(i.____hardfp_powf$lsc) refers to _rserrno.o(.text) for __set_errno
    powf_x.o(i.____hardfp_powf$lsc) refers to powf_x.o(.constdata) for .constdata
    powf_x.o(i.____hardfp_powf$lsc) refers to funder.o(i.__mathlib_flt_infnan2) for __mathlib_flt_infnan2
    powf_x.o(i.____softfp_powf$lsc) refers (Special) to usenofp.o(x$fpl$usenofp) for __I$use$fp
    powf_x.o(i.____softfp_powf$lsc) refers to powf_x.o(i.____hardfp_powf$lsc) for ____hardfp_powf$lsc
    powf_x.o(i.__powf$lsc) refers (Special) to usenofp.o(x$fpl$usenofp) for __I$use$fp
    powf_x.o(i.__powf$lsc) refers to powf_x.o(i.____hardfp_powf$lsc) for ____hardfp_powf$lsc
    powf_x.o(.constdata) refers (Special) to usenofp.o(x$fpl$usenofp) for __I$use$fp
    sin.o(i.__hardfp_sin) refers (Special) to usenofp.o(x$fpl$usenofp) for __I$use$fp
    sin.o(i.__hardfp_sin) refers to _rserrno.o(.text) for __set_errno
    sin.o(i.__hardfp_sin) refers to dunder.o(i.__mathlib_dbl_invalid) for __mathlib_dbl_invalid
    sin.o(i.__hardfp_sin) refers to dunder.o(i.__mathlib_dbl_infnan) for __mathlib_dbl_infnan
    sin.o(i.__hardfp_sin) refers to rred.o(i.__ieee754_rem_pio2) for __ieee754_rem_pio2
    sin.o(i.__hardfp_sin) refers to cos_i.o(i.__kernel_cos) for __kernel_cos
    sin.o(i.__hardfp_sin) refers to basic.o(x$fpl$basic) for __aeabi_dneg
    sin.o(i.__hardfp_sin) refers to sin_i.o(i.__kernel_sin) for __kernel_sin
    sin.o(i.__softfp_sin) refers (Special) to usenofp.o(x$fpl$usenofp) for __I$use$fp
    sin.o(i.__softfp_sin) refers to sin.o(i.__hardfp_sin) for __hardfp_sin
    sin.o(i.sin) refers (Special) to usenofp.o(x$fpl$usenofp) for __I$use$fp
    sin.o(i.sin) refers to sin.o(i.__hardfp_sin) for __hardfp_sin
    sin_x.o(i.____hardfp_sin$lsc) refers (Special) to usenofp.o(x$fpl$usenofp) for __I$use$fp
    sin_x.o(i.____hardfp_sin$lsc) refers to _rserrno.o(.text) for __set_errno
    sin_x.o(i.____hardfp_sin$lsc) refers to dunder.o(i.__mathlib_dbl_infnan) for __mathlib_dbl_infnan
    sin_x.o(i.____hardfp_sin$lsc) refers to rred.o(i.__ieee754_rem_pio2) for __ieee754_rem_pio2
    sin_x.o(i.____hardfp_sin$lsc) refers to cos_i.o(i.__kernel_cos) for __kernel_cos
    sin_x.o(i.____hardfp_sin$lsc) refers to basic.o(x$fpl$basic) for __aeabi_dneg
    sin_x.o(i.____hardfp_sin$lsc) refers to sin_i.o(i.__kernel_sin) for __kernel_sin
    sin_x.o(i.____softfp_sin$lsc) refers (Special) to usenofp.o(x$fpl$usenofp) for __I$use$fp
    sin_x.o(i.____softfp_sin$lsc) refers to sin_x.o(i.____hardfp_sin$lsc) for ____hardfp_sin$lsc
    sin_x.o(i.__sin$lsc) refers (Special) to usenofp.o(x$fpl$usenofp) for __I$use$fp
    sin_x.o(i.__sin$lsc) refers to sin_x.o(i.____hardfp_sin$lsc) for ____hardfp_sin$lsc
    sinf.o(i.__hardfp_sinf) refers (Special) to usenofp.o(x$fpl$usenofp) for __I$use$fp
    sinf.o(i.__hardfp_sinf) refers to rredf.o(i.__mathlib_rredf2) for __mathlib_rredf2
    sinf.o(i.__hardfp_sinf) refers to fpclassifyf.o(i.__ARM_fpclassifyf) for __ARM_fpclassifyf
    sinf.o(i.__hardfp_sinf) refers to funder.o(i.__mathlib_flt_underflow) for __mathlib_flt_underflow
    sinf.o(i.__hardfp_sinf) refers to _rserrno.o(.text) for __set_errno
    sinf.o(i.__hardfp_sinf) refers to funder.o(i.__mathlib_flt_invalid) for __mathlib_flt_invalid
    sinf.o(i.__hardfp_sinf) refers to funder.o(i.__mathlib_flt_infnan) for __mathlib_flt_infnan
    sinf.o(i.__softfp_sinf) refers (Special) to usenofp.o(x$fpl$usenofp) for __I$use$fp
    sinf.o(i.__softfp_sinf) refers to sinf.o(i.__hardfp_sinf) for __hardfp_sinf
    sinf.o(i.sinf) refers (Special) to usenofp.o(x$fpl$usenofp) for __I$use$fp
    sinf.o(i.sinf) refers to sinf.o(i.__hardfp_sinf) for __hardfp_sinf
    sinf_x.o(i.____hardfp_sinf$lsc) refers (Special) to usenofp.o(x$fpl$usenofp) for __I$use$fp
    sinf_x.o(i.____hardfp_sinf$lsc) refers to rredf.o(i.__mathlib_rredf2) for __mathlib_rredf2
    sinf_x.o(i.____hardfp_sinf$lsc) refers to _rserrno.o(.text) for __set_errno
    sinf_x.o(i.____hardfp_sinf$lsc) refers to funder.o(i.__mathlib_flt_infnan) for __mathlib_flt_infnan
    sinf_x.o(i.____softfp_sinf$lsc) refers (Special) to usenofp.o(x$fpl$usenofp) for __I$use$fp
    sinf_x.o(i.____softfp_sinf$lsc) refers to sinf_x.o(i.____hardfp_sinf$lsc) for ____hardfp_sinf$lsc
    sinf_x.o(i.__sinf$lsc) refers (Special) to usenofp.o(x$fpl$usenofp) for __I$use$fp
    sinf_x.o(i.__sinf$lsc) refers to sinf_x.o(i.____hardfp_sinf$lsc) for ____hardfp_sinf$lsc
    sqrtf.o(i.__hardfp_sqrtf) refers (Special) to usenofp.o(x$fpl$usenofp) for __I$use$fp
    sqrtf.o(i.__hardfp_sqrtf) refers to _rserrno.o(.text) for __set_errno
    sqrtf.o(i.__softfp_sqrtf) refers (Special) to usenofp.o(x$fpl$usenofp) for __I$use$fp
    sqrtf.o(i.__softfp_sqrtf) refers to _rserrno.o(.text) for __set_errno
    sqrtf.o(i.sqrtf) refers (Special) to usenofp.o(x$fpl$usenofp) for __I$use$fp
    sqrtf.o(i.sqrtf) refers to _rserrno.o(.text) for __set_errno
    sqrtf_x.o(i.____hardfp_sqrtf$lsc) refers (Special) to usenofp.o(x$fpl$usenofp) for __I$use$fp
    sqrtf_x.o(i.____hardfp_sqrtf$lsc) refers to _rserrno.o(.text) for __set_errno
    sqrtf_x.o(i.____softfp_sqrtf$lsc) refers (Special) to usenofp.o(x$fpl$usenofp) for __I$use$fp
    sqrtf_x.o(i.____softfp_sqrtf$lsc) refers to _rserrno.o(.text) for __set_errno
    sqrtf_x.o(i.__sqrtf$lsc) refers (Special) to usenofp.o(x$fpl$usenofp) for __I$use$fp
    sqrtf_x.o(i.__sqrtf$lsc) refers to _rserrno.o(.text) for __set_errno
    __rtentry.o(.ARM.Collect$$rtentry$$00000000) refers (Special) to __rtentry2.o(.ARM.Collect$$rtentry$$0000000A) for __rt_entry_li
    __rtentry.o(.ARM.Collect$$rtentry$$00000000) refers (Special) to __rtentry2.o(.ARM.Collect$$rtentry$$0000000D) for __rt_entry_main
    __rtentry.o(.ARM.Collect$$rtentry$$00000000) refers (Special) to __rtentry2.o(.ARM.Collect$$rtentry$$0000000C) for __rt_entry_postli_1
    __rtentry.o(.ARM.Collect$$rtentry$$00000000) refers (Special) to __rtentry2.o(.ARM.Collect$$rtentry$$00000009) for __rt_entry_postsh_1
    __rtentry.o(.ARM.Collect$$rtentry$$00000000) refers (Special) to __rtentry2.o(.ARM.Collect$$rtentry$$00000002) for __rt_entry_presh_1
    __rtentry.o(.ARM.Collect$$rtentry$$00000000) refers (Special) to __rtentry4.o(.ARM.Collect$$rtentry$$00000004) for __rt_entry_sh
    _rserrno.o(.text) refers to rt_errno_addr_intlibspace.o(.text) for __aeabi_errno_addr
    libinit2.o(.ARM.Collect$$libinit$$00000001) refers to fpinit.o(x$fpl$fpinit) for _fp_init
    libinit2.o(.ARM.Collect$$libinit$$00000010) refers to libinit2.o(.ARM.Collect$$libinit$$0000000F) for .ARM.Collect$$libinit$$0000000F
    libinit2.o(.ARM.Collect$$libinit$$00000012) refers to libinit2.o(.ARM.Collect$$libinit$$0000000F) for .ARM.Collect$$libinit$$0000000F
    libinit2.o(.ARM.Collect$$libinit$$00000014) refers to libinit2.o(.ARM.Collect$$libinit$$0000000F) for .ARM.Collect$$libinit$$0000000F
    libinit2.o(.ARM.Collect$$libinit$$00000016) refers to libinit2.o(.ARM.Collect$$libinit$$0000000F) for .ARM.Collect$$libinit$$0000000F
    libinit2.o(.ARM.Collect$$libinit$$00000018) refers to libinit2.o(.ARM.Collect$$libinit$$0000000F) for .ARM.Collect$$libinit$$0000000F
    libinit2.o(.ARM.Collect$$libinit$$00000026) refers to argv_veneer.o(.emb_text) for __ARM_argv_veneer
    libinit2.o(.ARM.Collect$$libinit$$00000027) refers to argv_veneer.o(.emb_text) for __ARM_argv_veneer
    libinit2.o(.ARM.Collect$$libinit$$00000031) refers (Weak) to init_aeabi.o(.text) for __cpp_initialize__aeabi_
    dcmpi.o(x$fpl$dcmpinf) refers (Special) to usenofp.o(x$fpl$usenofp) for __I$use$fp
    dnaninf.o(x$fpl$dnaninf) refers (Special) to usenofp.o(x$fpl$usenofp) for __I$use$fp
    dretinf.o(x$fpl$dretinf) refers (Special) to usenofp.o(x$fpl$usenofp) for __I$use$fp
    fnaninf.o(x$fpl$fnaninf) refers (Special) to usenofp.o(x$fpl$usenofp) for __I$use$fp
    fretinf.o(x$fpl$fretinf) refers (Special) to usenofp.o(x$fpl$usenofp) for __I$use$fp
    istatus.o(x$fpl$ieeestatus) refers (Special) to usenofp.o(x$fpl$usenofp) for __I$use$fp
    cos_i.o(i.__kernel_cos) refers (Special) to usenofp.o(x$fpl$usenofp) for __I$use$fp
    cos_i.o(i.__kernel_cos) refers to dfix.o(x$fpl$dfix) for __aeabi_d2iz
    cos_i.o(i.__kernel_cos) refers to dmul.o(x$fpl$dmul) for __aeabi_dmul
    cos_i.o(i.__kernel_cos) refers to poly.o(i.__kernel_poly) for __kernel_poly
    cos_i.o(i.__kernel_cos) refers to daddsub_clz.o(x$fpl$dsub) for __aeabi_dsub
    cos_i.o(i.__kernel_cos) refers to daddsub_clz.o(x$fpl$drsb) for __aeabi_drsub
    cos_i.o(i.__kernel_cos) refers to cos_i.o(.constdata) for .constdata
    cos_i.o(.constdata) refers (Special) to usenofp.o(x$fpl$usenofp) for __I$use$fp
    dunder.o(i.__mathlib_dbl_divzero) refers to ddiv.o(x$fpl$ddiv) for __aeabi_ddiv
    dunder.o(i.__mathlib_dbl_infnan) refers to daddsub_clz.o(x$fpl$dadd) for __aeabi_dadd
    dunder.o(i.__mathlib_dbl_infnan2) refers to daddsub_clz.o(x$fpl$dadd) for __aeabi_dadd
    dunder.o(i.__mathlib_dbl_invalid) refers to ddiv.o(x$fpl$ddiv) for __aeabi_ddiv
    dunder.o(i.__mathlib_dbl_overflow) refers to dmul.o(x$fpl$dmul) for __aeabi_dmul
    dunder.o(i.__mathlib_dbl_posinfnan) refers to dmul.o(x$fpl$dmul) for __aeabi_dmul
    dunder.o(i.__mathlib_dbl_underflow) refers to dmul.o(x$fpl$dmul) for __aeabi_dmul
    fpclassifyf.o(i.__ARM_fpclassifyf) refers (Special) to usenofp.o(x$fpl$usenofp) for __I$use$fp
    rred.o(i.__ieee754_rem_pio2) refers (Special) to usenofp.o(x$fpl$usenofp) for __I$use$fp
    rred.o(i.__ieee754_rem_pio2) refers to daddsub_clz.o(x$fpl$dsub) for __aeabi_dsub
    rred.o(i.__ieee754_rem_pio2) refers to daddsub_clz.o(x$fpl$dadd) for __aeabi_dadd
    rred.o(i.__ieee754_rem_pio2) refers to fabs.o(i.fabs) for fabs
    rred.o(i.__ieee754_rem_pio2) refers to dmul.o(x$fpl$dmul) for __aeabi_dmul
    rred.o(i.__ieee754_rem_pio2) refers to dfix.o(x$fpl$dfix) for __aeabi_d2iz
    rred.o(i.__ieee754_rem_pio2) refers to dflt_clz.o(x$fpl$dflt) for __aeabi_i2d
    rred.o(i.__ieee754_rem_pio2) refers to daddsub_clz.o(x$fpl$drsb) for __aeabi_drsub
    rred.o(i.__ieee754_rem_pio2) refers to basic.o(x$fpl$basic) for __aeabi_dneg
    rred.o(i.__ieee754_rem_pio2) refers to dflt_clz.o(x$fpl$dfltu) for __aeabi_ui2d
    rred.o(i.__ieee754_rem_pio2) refers to rred.o(.constdata) for .constdata
    rred.o(i.__use_accurate_range_reduction) refers (Special) to usenofp.o(x$fpl$usenofp) for __I$use$fp
    rred.o(.constdata) refers (Special) to usenofp.o(x$fpl$usenofp) for __I$use$fp
    rredf.o(i.__mathlib_rredf2) refers (Special) to usenofp.o(x$fpl$usenofp) for __I$use$fp
    rredf.o(i.__mathlib_rredf2) refers to rredf.o(.constdata) for .constdata
    rredf.o(.constdata) refers (Special) to usenofp.o(x$fpl$usenofp) for __I$use$fp
    sin_i.o(i.__kernel_sin) refers (Special) to usenofp.o(x$fpl$usenofp) for __I$use$fp
    sin_i.o(i.__kernel_sin) refers to fpclassify.o(i.__ARM_fpclassify) for __ARM_fpclassify
    sin_i.o(i.__kernel_sin) refers to dunder.o(i.__mathlib_dbl_underflow) for __mathlib_dbl_underflow
    sin_i.o(i.__kernel_sin) refers to dmul.o(x$fpl$dmul) for __aeabi_dmul
    sin_i.o(i.__kernel_sin) refers to poly.o(i.__kernel_poly) for __kernel_poly
    sin_i.o(i.__kernel_sin) refers to daddsub_clz.o(x$fpl$dsub) for __aeabi_dsub
    sin_i.o(i.__kernel_sin) refers to daddsub_clz.o(x$fpl$drsb) for __aeabi_drsub
    sin_i.o(i.__kernel_sin) refers to daddsub_clz.o(x$fpl$dadd) for __aeabi_dadd
    sin_i.o(i.__kernel_sin) refers to sin_i.o(.constdata) for .constdata
    sin_i.o(.constdata) refers (Special) to usenofp.o(x$fpl$usenofp) for __I$use$fp
    sin_i_x.o(i.____kernel_sin$lsc) refers (Special) to usenofp.o(x$fpl$usenofp) for __I$use$fp
    sin_i_x.o(i.____kernel_sin$lsc) refers to dmul.o(x$fpl$dmul) for __aeabi_dmul
    sin_i_x.o(i.____kernel_sin$lsc) refers to poly.o(i.__kernel_poly) for __kernel_poly
    sin_i_x.o(i.____kernel_sin$lsc) refers to daddsub_clz.o(x$fpl$dsub) for __aeabi_dsub
    sin_i_x.o(i.____kernel_sin$lsc) refers to daddsub_clz.o(x$fpl$drsb) for __aeabi_drsub
    sin_i_x.o(i.____kernel_sin$lsc) refers to daddsub_clz.o(x$fpl$dadd) for __aeabi_dadd
    sin_i_x.o(i.____kernel_sin$lsc) refers to sin_i_x.o(.constdata) for .constdata
    sin_i_x.o(.constdata) refers (Special) to usenofp.o(x$fpl$usenofp) for __I$use$fp
    __rtentry2.o(.ARM.Collect$$rtentry$$00000008) refers to boardinit2.o(.text) for _platform_post_stackheap_init
    __rtentry2.o(.ARM.Collect$$rtentry$$0000000A) refers to libinit.o(.ARM.Collect$$libinit$$00000000) for __rt_lib_init
    __rtentry2.o(.ARM.Collect$$rtentry$$0000000B) refers to boardinit3.o(.text) for _platform_post_lib_init
    __rtentry2.o(.ARM.Collect$$rtentry$$0000000D) refers to main.o(i.main) for main
    __rtentry2.o(.ARM.Collect$$rtentry$$0000000D) refers to exit.o(.text) for exit
    __rtentry2.o(.ARM.exidx) refers to __rtentry2.o(.ARM.Collect$$rtentry$$00000001) for .ARM.Collect$$rtentry$$00000001
    __rtentry2.o(.ARM.exidx) refers to __rtentry2.o(.ARM.Collect$$rtentry$$00000008) for .ARM.Collect$$rtentry$$00000008
    __rtentry2.o(.ARM.exidx) refers to __rtentry2.o(.ARM.Collect$$rtentry$$0000000A) for .ARM.Collect$$rtentry$$0000000A
    __rtentry2.o(.ARM.exidx) refers to __rtentry2.o(.ARM.Collect$$rtentry$$0000000B) for .ARM.Collect$$rtentry$$0000000B
    __rtentry2.o(.ARM.exidx) refers to __rtentry2.o(.ARM.Collect$$rtentry$$0000000D) for .ARM.Collect$$rtentry$$0000000D
    __rtentry4.o(.ARM.Collect$$rtentry$$00000004) refers to sys_stackheap_outer.o(.text) for __user_setup_stackheap
    __rtentry4.o(.ARM.exidx) refers to __rtentry4.o(.ARM.Collect$$rtentry$$00000004) for .ARM.Collect$$rtentry$$00000004
    rt_errno_addr.o(.text) refers to rt_errno_addr.o(.bss) for __aeabi_errno_addr_data
    rt_errno_addr_intlibspace.o(.text) refers to libspace.o(.bss) for __libspace_start
    argv_veneer.o(.emb_text) refers to no_argv.o(.text) for __ARM_get_argv
    fabs.o(i.__hardfp_fabs) refers (Special) to usenofp.o(x$fpl$usenofp) for __I$use$fp
    fabs.o(i.__softfp_fabs) refers (Special) to usenofp.o(x$fpl$usenofp) for __I$use$fp
    fabs.o(i.fabs) refers (Special) to usenofp.o(x$fpl$usenofp) for __I$use$fp
    fpclassify.o(i.__ARM_fpclassify) refers (Special) to usenofp.o(x$fpl$usenofp) for __I$use$fp
    poly.o(i.__kernel_poly) refers (Special) to usenofp.o(x$fpl$usenofp) for __I$use$fp
    poly.o(i.__kernel_poly) refers to dmul.o(x$fpl$dmul) for __aeabi_dmul
    poly.o(i.__kernel_poly) refers to daddsub_clz.o(x$fpl$dadd) for __aeabi_dadd
    libspace.o(.text) refers to libspace.o(.bss) for __libspace_start
    sys_stackheap_outer.o(.text) refers to libspace.o(.text) for __user_perproc_libspace
    sys_stackheap_outer.o(.text) refers to startup_gd32f30x_hd.o(.text) for __user_initial_stackheap
    exit.o(.text) refers to rtexit.o(.ARM.Collect$$rtexit$$00000000) for __rt_exit
    _get_argv_nomalloc.o(.text) refers (Special) to hrguard.o(.text) for __heap_region$guard
    _get_argv_nomalloc.o(.text) refers to defsig_rtmem_outer.o(.text) for __rt_SIGRTMEM
    _get_argv_nomalloc.o(.text) refers to sys_command.o(.text) for _sys_command_string
    libinit.o(.ARM.Collect$$libinit$$00000000) refers (Special) to libinit2.o(.ARM.Collect$$libinit$$0000002E) for __rt_lib_init_alloca_1
    libinit.o(.ARM.Collect$$libinit$$00000000) refers (Special) to libinit2.o(.ARM.Collect$$libinit$$0000002C) for __rt_lib_init_argv_1
    libinit.o(.ARM.Collect$$libinit$$00000000) refers (Special) to libinit2.o(.ARM.Collect$$libinit$$0000001B) for __rt_lib_init_atexit_1
    libinit.o(.ARM.Collect$$libinit$$00000000) refers (Special) to libinit2.o(.ARM.Collect$$libinit$$00000021) for __rt_lib_init_clock_1
    libinit.o(.ARM.Collect$$libinit$$00000000) refers (Special) to libinit2.o(.ARM.Collect$$libinit$$00000032) for __rt_lib_init_cpp_1
    libinit.o(.ARM.Collect$$libinit$$00000000) refers (Special) to libinit2.o(.ARM.Collect$$libinit$$00000030) for __rt_lib_init_exceptions_1
    libinit.o(.ARM.Collect$$libinit$$00000000) refers (Special) to libinit2.o(.ARM.Collect$$libinit$$00000001) for __rt_lib_init_fp_1
    libinit.o(.ARM.Collect$$libinit$$00000000) refers (Special) to libinit2.o(.ARM.Collect$$libinit$$0000001F) for __rt_lib_init_fp_trap_1
    libinit.o(.ARM.Collect$$libinit$$00000000) refers (Special) to libinit2.o(.ARM.Collect$$libinit$$00000023) for __rt_lib_init_getenv_1
    libinit.o(.ARM.Collect$$libinit$$00000000) refers (Special) to libinit2.o(.ARM.Collect$$libinit$$0000000A) for __rt_lib_init_heap_1
    libinit.o(.ARM.Collect$$libinit$$00000000) refers (Special) to libinit2.o(.ARM.Collect$$libinit$$00000011) for __rt_lib_init_lc_collate_1
    libinit.o(.ARM.Collect$$libinit$$00000000) refers (Special) to libinit2.o(.ARM.Collect$$libinit$$00000013) for __rt_lib_init_lc_ctype_1
    libinit.o(.ARM.Collect$$libinit$$00000000) refers (Special) to libinit2.o(.ARM.Collect$$libinit$$00000015) for __rt_lib_init_lc_monetary_1
    libinit.o(.ARM.Collect$$libinit$$00000000) refers (Special) to libinit2.o(.ARM.Collect$$libinit$$00000017) for __rt_lib_init_lc_numeric_1
    libinit.o(.ARM.Collect$$libinit$$00000000) refers (Special) to libinit2.o(.ARM.Collect$$libinit$$00000019) for __rt_lib_init_lc_time_1
    libinit.o(.ARM.Collect$$libinit$$00000000) refers (Special) to libinit2.o(.ARM.Collect$$libinit$$00000004) for __rt_lib_init_preinit_1
    libinit.o(.ARM.Collect$$libinit$$00000000) refers (Special) to libinit2.o(.ARM.Collect$$libinit$$0000000E) for __rt_lib_init_rand_1
    libinit.o(.ARM.Collect$$libinit$$00000000) refers (Special) to libinit2.o(.ARM.Collect$$libinit$$00000033) for __rt_lib_init_return
    libinit.o(.ARM.Collect$$libinit$$00000000) refers (Special) to libinit2.o(.ARM.Collect$$libinit$$0000001D) for __rt_lib_init_signal_1
    libinit.o(.ARM.Collect$$libinit$$00000000) refers (Special) to libinit2.o(.ARM.Collect$$libinit$$00000025) for __rt_lib_init_stdio_1
    libinit.o(.ARM.Collect$$libinit$$00000000) refers (Special) to libinit2.o(.ARM.Collect$$libinit$$0000000C) for __rt_lib_init_user_alloc_1
    sys_command.o(.text) refers (Special) to use_no_semi.o(.text) for __I$use$semihosting
    sys_command.o(.text) refers (Special) to indicate_semi.o(.text) for __semihosting_library_function
    rtexit.o(.ARM.Collect$$rtexit$$00000000) refers (Special) to rtexit2.o(.ARM.Collect$$rtexit$$00000004) for __rt_exit_exit
    rtexit.o(.ARM.Collect$$rtexit$$00000000) refers (Special) to rtexit2.o(.ARM.Collect$$rtexit$$00000003) for __rt_exit_ls
    rtexit.o(.ARM.Collect$$rtexit$$00000000) refers (Special) to rtexit2.o(.ARM.Collect$$rtexit$$00000002) for __rt_exit_prels_1
    rtexit.o(.ARM.exidx) refers (Special) to rtexit2.o(.ARM.Collect$$rtexit$$00000004) for __rt_exit_exit
    rtexit.o(.ARM.exidx) refers (Special) to rtexit2.o(.ARM.Collect$$rtexit$$00000003) for __rt_exit_ls
    rtexit.o(.ARM.exidx) refers (Special) to rtexit2.o(.ARM.Collect$$rtexit$$00000002) for __rt_exit_prels_1
    rtexit.o(.ARM.exidx) refers to rtexit.o(.ARM.Collect$$rtexit$$00000000) for .ARM.Collect$$rtexit$$00000000
    defsig_rtmem_outer.o(.text) refers to defsig_rtmem_inner.o(.text) for __rt_SIGRTMEM_inner
    defsig_rtmem_outer.o(.text) refers to defsig_exit.o(.text) for __sig_exit
    defsig_rtmem_formal.o(.text) refers to rt_raise.o(.text) for __rt_raise
    rtexit2.o(.ARM.Collect$$rtexit$$00000003) refers to libshutdown.o(.ARM.Collect$$libshutdown$$00000000) for __rt_lib_shutdown
    rtexit2.o(.ARM.Collect$$rtexit$$00000004) refers to sys_exit.o(.text) for _sys_exit
    rtexit2.o(.ARM.exidx) refers to rtexit2.o(.ARM.Collect$$rtexit$$00000001) for .ARM.Collect$$rtexit$$00000001
    rtexit2.o(.ARM.exidx) refers to rtexit2.o(.ARM.Collect$$rtexit$$00000003) for .ARM.Collect$$rtexit$$00000003
    rtexit2.o(.ARM.exidx) refers to rtexit2.o(.ARM.Collect$$rtexit$$00000004) for .ARM.Collect$$rtexit$$00000004
    rt_raise.o(.text) refers to __raise.o(.text) for __raise
    rt_raise.o(.text) refers to sys_exit.o(.text) for _sys_exit
    defsig_exit.o(.text) refers to sys_exit.o(.text) for _sys_exit
    defsig_rtmem_inner.o(.text) refers to defsig_general.o(.text) for __default_signal_display
    sys_exit.o(.text) refers (Special) to use_no_semi.o(.text) for __I$use$semihosting
    sys_exit.o(.text) refers (Special) to indicate_semi.o(.text) for __semihosting_library_function
    __raise.o(.text) refers to defsig.o(CL$$defsig) for __default_signal_handler
    defsig_general.o(.text) refers to sys_wrch.o(.text) for _ttywrch
    libshutdown.o(.ARM.Collect$$libshutdown$$00000000) refers (Special) to libshutdown2.o(.ARM.Collect$$libshutdown$$00000004) for __rt_lib_shutdown_cpp_1
    libshutdown.o(.ARM.Collect$$libshutdown$$00000000) refers (Special) to libshutdown2.o(.ARM.Collect$$libshutdown$$00000002) for __rt_lib_shutdown_fini_1
    libshutdown.o(.ARM.Collect$$libshutdown$$00000000) refers (Special) to libshutdown2.o(.ARM.Collect$$libshutdown$$00000009) for __rt_lib_shutdown_fp_trap_1
    libshutdown.o(.ARM.Collect$$libshutdown$$00000000) refers (Special) to libshutdown2.o(.ARM.Collect$$libshutdown$$00000011) for __rt_lib_shutdown_heap_1
    libshutdown.o(.ARM.Collect$$libshutdown$$00000000) refers (Special) to libshutdown2.o(.ARM.Collect$$libshutdown$$00000012) for __rt_lib_shutdown_return
    libshutdown.o(.ARM.Collect$$libshutdown$$00000000) refers (Special) to libshutdown2.o(.ARM.Collect$$libshutdown$$0000000C) for __rt_lib_shutdown_signal_1
    libshutdown.o(.ARM.Collect$$libshutdown$$00000000) refers (Special) to libshutdown2.o(.ARM.Collect$$libshutdown$$00000006) for __rt_lib_shutdown_stdio_1
    libshutdown.o(.ARM.Collect$$libshutdown$$00000000) refers (Special) to libshutdown2.o(.ARM.Collect$$libshutdown$$0000000E) for __rt_lib_shutdown_user_alloc_1
    sys_wrch.o(.text) refers (Special) to use_no_semi.o(.text) for __I$use$semihosting
    sys_wrch.o(.text) refers (Special) to indicate_semi.o(.text) for __semihosting_library_function
    defsig.o(CL$$defsig) refers to defsig_rtmem_inner.o(.text) for __rt_SIGRTMEM_inner
    defsig_abrt_inner.o(.text) refers to defsig_general.o(.text) for __default_signal_display
    defsig_fpe_inner.o(.text) refers to defsig_general.o(.text) for __default_signal_display
    defsig_rtred_inner.o(.text) refers to defsig_general.o(.text) for __default_signal_display
    defsig_stak_inner.o(.text) refers to defsig_general.o(.text) for __default_signal_display
    defsig_pvfn_inner.o(.text) refers to defsig_general.o(.text) for __default_signal_display
    defsig_cppl_inner.o(.text) refers to defsig_general.o(.text) for __default_signal_display
    defsig_segv_inner.o(.text) refers to defsig_general.o(.text) for __default_signal_display
    defsig_other.o(.text) refers to defsig_general.o(.text) for __default_signal_display
    slider.o(i._ZSt3cosf) refers to cosf.o(i.__hardfp_cosf) for __hardfp_cosf
    slider.o(.ARM.exidx) refers to slider.o(i._ZSt3cosf) for i._ZSt3cosf
    slider.o(i._ZSt3sinf) refers to sinf.o(i.__hardfp_sinf) for __hardfp_sinf
    slider.o(.ARM.exidx) refers to slider.o(i._ZSt3sinf) for i._ZSt3sinf
    clock.o(i._ZSt3powfi) refers to powf.o(i.__hardfp_powf) for __hardfp_powf
    clock.o(.ARM.exidx) refers to clock.o(i._ZSt3powfi) for i._ZSt3powfi
    clock.o(i._ZSt4sqrtf) refers to sqrtf.o(i.__hardfp_sqrtf) for __hardfp_sqrtf
    clock.o(.ARM.exidx) refers to clock.o(i._ZSt4sqrtf) for i._ZSt4sqrtf


==============================================================================

Removing Unused input sections from the image.

    Removing main.o(.rev16_text), (4 bytes).
    Removing main.o(.revsh_text), (4 bytes).
    Removing main.o(.rrx_text), (6 bytes).
    Removing main.o(i._Z8addNewIdPh), (300 bytes).
    Removing main.o(.ARM.exidx), (8 bytes).
    Removing main.o(.ARM.exidx), (8 bytes).
    Removing main.o(.ARM.exidx), (8 bytes).
    Removing main.o(.ARM.exidx), (8 bytes).
    Removing main.o(.ARM.exidx), (8 bytes).
    Removing main.o(.ARM.exidx), (8 bytes).
    Removing main.o(.ARM.exidx), (8 bytes).
    Removing main.o(.ARM.exidx), (8 bytes).
    Removing main.o(.ARM.exidx), (8 bytes).
    Removing main.o(.ARM.exidx), (8 bytes).
    Removing main.o(.ARM.exidx), (8 bytes).
    Removing main.o(.ARM.exidx), (8 bytes).
    Removing main.o(.ARM.exidx), (8 bytes).
    Removing main.o(.ARM.exidx), (8 bytes).
    Removing main.o(.ARM.exidx), (8 bytes).
    Removing main.o(.ARM.exidx), (8 bytes).
    Removing main.o(.ARM.exidx), (8 bytes).
    Removing main.o(.ARM.exidx), (8 bytes).
    Removing main.o(.ARM.exidx), (8 bytes).
    Removing main.o(.ARM.exidx), (8 bytes).
    Removing main.o(.ARM.exidx), (8 bytes).
    Removing main.o(.bss), (16 bytes).
    Removing search.o(.rev16_text), (4 bytes).
    Removing search.o(.revsh_text), (4 bytes).
    Removing search.o(.rrx_text), (6 bytes).
    Removing search.o(.ARM.exidx), (8 bytes).
    Removing search.o(.ARM.exidx), (8 bytes).
    Removing search.o(.ARM.exidx), (8 bytes).
    Removing search.o(.ARM.exidx), (8 bytes).
    Removing search.o(.ARM.exidx), (8 bytes).
    Removing search.o(.ARM.exidx), (8 bytes).
    Removing error.o(.rev16_text), (4 bytes).
    Removing error.o(.revsh_text), (4 bytes).
    Removing error.o(.rrx_text), (6 bytes).
    Removing error.o(.ARM.exidx), (8 bytes).
    Removing error.o(.ARM.exidx), (8 bytes).
    Removing error.o(.ARM.exidx), (8 bytes).
    Removing error.o(.ARM.exidx), (8 bytes).
    Removing error.o(.ARM.exidx), (8 bytes).
    Removing error.o(.ARM.exidx), (8 bytes).
    Removing error.o(.ARM.exidx), (8 bytes).
    Removing error.o(.ARM.exidx), (8 bytes).
    Removing system.o(.rev16_text), (4 bytes).
    Removing system.o(.revsh_text), (4 bytes).
    Removing system.o(.rrx_text), (6 bytes).
    Removing system.o(.ARM.exidx), (8 bytes).
    Removing system.o(.ARM.exidx), (8 bytes).
    Removing system.o(.ARM.exidx), (8 bytes).
    Removing system.o(.ARM.exidx), (8 bytes).
    Removing system.o(.ARM.exidx), (8 bytes).
    Removing system.o(.ARM.exidx), (8 bytes).
    Removing system.o(.ARM.exidx), (8 bytes).
    Removing system.o(.ARM.exidx), (8 bytes).
    Removing system.o(.ARM.exidx), (8 bytes).
    Removing system.o(.ARM.exidx), (8 bytes).
    Removing system.o(.ARM.exidx), (8 bytes).
    Removing system.o(.ARM.exidx), (8 bytes).
    Removing system.o(.ARM.exidx), (8 bytes).
    Removing system.o(.ARM.exidx), (8 bytes).
    Removing system.o(.ARM.exidx), (8 bytes).
    Removing sleep.o(.rev16_text), (4 bytes).
    Removing sleep.o(.revsh_text), (4 bytes).
    Removing sleep.o(.rrx_text), (6 bytes).
    Removing sleep.o(.ARM.exidx), (8 bytes).
    Removing sleep.o(.ARM.exidx), (8 bytes).
    Removing sleep.o(.ARM.exidx), (8 bytes).
    Removing sleep.o(.ARM.exidx), (8 bytes).
    Removing sleep.o(.ARM.exidx), (8 bytes).
    Removing sleep.o(.ARM.exidx), (8 bytes).
    Removing sleep.o(.ARM.exidx), (8 bytes).
    Removing sleep.o(.ARM.exidx), (8 bytes).
    Removing start_timers.o(.rev16_text), (4 bytes).
    Removing start_timers.o(.revsh_text), (4 bytes).
    Removing start_timers.o(.rrx_text), (6 bytes).
    Removing start_timers.o(.ARM.exidx), (8 bytes).
    Removing start_timers.o(.ARM.exidx), (8 bytes).
    Removing start_timers.o(.ARM.exidx), (8 bytes).
    Removing start_timers.o(.ARM.exidx), (8 bytes).
    Removing setup.o(.rev16_text), (4 bytes).
    Removing setup.o(.revsh_text), (4 bytes).
    Removing setup.o(.rrx_text), (6 bytes).
    Removing setup.o(.ARM.exidx), (8 bytes).
    Removing setup.o(.ARM.exidx), (8 bytes).
    Removing setup.o(.ARM.exidx), (8 bytes).
    Removing setup.o(.ARM.exidx), (8 bytes).
    Removing setup.o(.ARM.exidx), (8 bytes).
    Removing setup.o(.ARM.exidx), (8 bytes).
    Removing setup.o(.ARM.exidx), (8 bytes).
    Removing setup.o(.ARM.exidx), (8 bytes).
    Removing setup.o(.ARM.exidx), (8 bytes).
    Removing setup.o(.ARM.exidx), (8 bytes).
    Removing setup.o(.ARM.exidx), (8 bytes).
    Removing setup.o(.ARM.exidx), (8 bytes).
    Removing setup.o(.ARM.exidx), (8 bytes).
    Removing setup.o(.ARM.exidx), (8 bytes).
    Removing setup_clock.o(.rev16_text), (4 bytes).
    Removing setup_clock.o(.revsh_text), (4 bytes).
    Removing setup_clock.o(.rrx_text), (6 bytes).
    Removing setup_clock.o(.ARM.exidx), (8 bytes).
    Removing setup_clock.o(.ARM.exidx), (8 bytes).
    Removing setup_clock.o(.ARM.exidx), (8 bytes).
    Removing setup_clock.o(.ARM.exidx), (8 bytes).
    Removing setup_clock.o(.ARM.exidx), (8 bytes).
    Removing setup_clock.o(.ARM.exidx), (8 bytes).
    Removing setup_clock.o(.ARM.exidx), (8 bytes).
    Removing setup_clock.o(.ARM.exidx), (8 bytes).
    Removing setup_clock.o(.ARM.exidx), (8 bytes).
    Removing about.o(.rev16_text), (4 bytes).
    Removing about.o(.revsh_text), (4 bytes).
    Removing about.o(.rrx_text), (6 bytes).
    Removing about.o(.ARM.exidx), (8 bytes).
    Removing about.o(.ARM.exidx), (8 bytes).
    Removing about.o(.ARM.exidx), (8 bytes).
    Removing about.o(.ARM.exidx), (8 bytes).
    Removing about.o(.ARM.exidx), (8 bytes).
    Removing text.o(.rev16_text), (4 bytes).
    Removing text.o(.revsh_text), (4 bytes).
    Removing text.o(.rrx_text), (6 bytes).
    Removing text.o(i._ZN4Text14writeStringEndEttPc7FontDefjj), (76 bytes).
    Removing text.o(.ARM.exidx), (8 bytes).
    Removing text.o(.ARM.exidx), (8 bytes).
    Removing text.o(.ARM.exidx), (8 bytes).
    Removing text.o(.ARM.exidx), (8 bytes).
    Removing text.o(.ARM.exidx), (8 bytes).
    Removing text.o(.ARM.exidx), (8 bytes).
    Removing text.o(.ARM.exidx), (8 bytes).
    Removing text.o(.ARM.exidx), (8 bytes).
    Removing text.o(.ARM.exidx), (8 bytes).
    Removing text.o(.ARM.exidx), (8 bytes).
    Removing text.o(.ARM.exidx), (8 bytes).
    Removing text.o(.ARM.exidx), (8 bytes).
    Removing text.o(.ARM.exidx), (8 bytes).
    Removing text.o(.ARM.exidx), (8 bytes).
    Removing text.o(.ARM.exidx), (8 bytes).
    Removing start_timer.o(.rev16_text), (4 bytes).
    Removing start_timer.o(.revsh_text), (4 bytes).
    Removing start_timer.o(.rrx_text), (6 bytes).
    Removing start_timer.o(i._ZN10StartTimer10resetTimerEv), (20 bytes).
    Removing start_timer.o(i._ZN10StartTimer5checkEv), (136 bytes).
    Removing start_timer.o(i._ZN10StartTimer8getTimerEv), (28 bytes).
    Removing start_timer.o(i._ZN10StartTimer8setTimerEj), (24 bytes).
    Removing start_timer.o(.ARM.exidx), (8 bytes).
    Removing start_timer.o(.ARM.exidx), (8 bytes).
    Removing start_timer.o(.ARM.exidx), (8 bytes).
    Removing start_timer.o(.ARM.exidx), (8 bytes).
    Removing start_timer.o(.ARM.exidx), (8 bytes).
    Removing start_timer.o(.ARM.exidx), (8 bytes).
    Removing start_timer.o(.ARM.exidx), (8 bytes).
    Removing start_timer.o(.ARM.exidx), (8 bytes).
    Removing start_timer.o(.ARM.exidx), (8 bytes).
    Removing slider.o(.rev16_text), (4 bytes).
    Removing slider.o(.revsh_text), (4 bytes).
    Removing slider.o(.rrx_text), (6 bytes).
    Removing slider.o(i._ZN6Slider4drawEtthPKcbPbb), (140 bytes).
    Removing slider.o(i._ZN6Slider4drawEtthPctcbPbb), (212 bytes).
    Removing slider.o(.ARM.exidx), (8 bytes).
    Removing slider.o(.ARM.exidx), (8 bytes).
    Removing slider.o(.ARM.exidx), (8 bytes).
    Removing slider.o(.ARM.exidx), (8 bytes).
    Removing slider.o(.ARM.exidx), (8 bytes).
    Removing slider.o(.ARM.exidx), (8 bytes).
    Removing slider.o(.ARM.exidx), (8 bytes).
    Removing slider.o(.ARM.exidx), (8 bytes).
    Removing slider.o(.ARM.exidx), (8 bytes).
    Removing slider.o(.ARM.exidx), (8 bytes).
    Removing slider.o(.ARM.exidx), (8 bytes).
    Removing slider.o(.ARM.exidx), (8 bytes).
    Removing slider.o(.ARM.exidx), (8 bytes).
    Removing slider.o(.ARM.exidx), (8 bytes).
    Removing slider.o(.ARM.exidx), (8 bytes).
    Removing slider.o(.ARM.exidx), (8 bytes).
    Removing slider.o(.ARM.exidx), (8 bytes).
    Removing slider.o(.ARM.exidx), (8 bytes).
    Removing slider.o(.ARM.exidx), (8 bytes).
    Removing slider.o(.ARM.exidx), (8 bytes).
    Removing slider.o(.ARM.exidx), (8 bytes).
    Removing slider.o(.ARM.exidx), (8 bytes).
    Removing slider.o(.ARM.exidx), (8 bytes).
    Removing slider.o(.ARM.exidx), (8 bytes).
    Removing slider.o(.ARM.exidx), (8 bytes).
    Removing slider.o(.ARM.exidx), (8 bytes).
    Removing checkbox.o(.rev16_text), (4 bytes).
    Removing checkbox.o(.revsh_text), (4 bytes).
    Removing checkbox.o(.rrx_text), (6 bytes).
    Removing checkbox.o(.ARM.exidx), (8 bytes).
    Removing checkbox.o(.ARM.exidx), (8 bytes).
    Removing checkbox.o(.ARM.exidx), (8 bytes).
    Removing checkbox.o(.ARM.exidx), (8 bytes).
    Removing clock.o(.rev16_text), (4 bytes).
    Removing clock.o(.revsh_text), (4 bytes).
    Removing clock.o(.rrx_text), (6 bytes).
    Removing clock.o(i._ZN5Clock11viewAnTimerEhPaS0_Ph), (608 bytes).
    Removing clock.o(i._ZN5Clock12viewDigClockEhh), (320 bytes).
    Removing clock.o(i._ZN5Clock12viewDigTimerEhh), (300 bytes).
    Removing clock.o(i._ZN5Clock17viewGridClockHourEth), (380 bytes).
    Removing clock.o(i._ZN5Clock18clearGridClockHourEv), (276 bytes).
    Removing clock.o(i._ZN5Clock18viewCenterDigClockEcaa), (416 bytes).
    Removing clock.o(i._ZN5Clock19viewGridClockMinuteEth), (368 bytes).
    Removing clock.o(.ARM.exidx), (8 bytes).
    Removing clock.o(.ARM.exidx), (8 bytes).
    Removing clock.o(.ARM.exidx), (8 bytes).
    Removing clock.o(.ARM.exidx), (8 bytes).
    Removing clock.o(.ARM.exidx), (8 bytes).
    Removing clock.o(.ARM.exidx), (8 bytes).
    Removing clock.o(.ARM.exidx), (8 bytes).
    Removing clock.o(.ARM.exidx), (8 bytes).
    Removing clock.o(.ARM.exidx), (8 bytes).
    Removing clock.o(.ARM.exidx), (8 bytes).
    Removing clock.o(.ARM.exidx), (8 bytes).
    Removing clock.o(.ARM.exidx), (8 bytes).
    Removing clock.o(.ARM.exidx), (8 bytes).
    Removing clock.o(.ARM.exidx), (8 bytes).
    Removing clock.o(.ARM.exidx), (8 bytes).
    Removing clock.o(.ARM.exidx), (8 bytes).
    Removing clock.o(.ARM.exidx), (8 bytes).
    Removing clock.o(.ARM.exidx), (8 bytes).
    Removing clock.o(.ARM.exidx), (8 bytes).
    Removing clock.o(.ARM.exidx), (8 bytes).
    Removing clock.o(.ARM.exidx), (8 bytes).
    Removing clock.o(.ARM.exidx), (8 bytes).
    Removing clock.o(.ARM.exidx), (8 bytes).
    Removing clock.o(.ARM.exidx), (8 bytes).
    Removing clock.o(.ARM.exidx), (8 bytes).
    Removing clock.o(.ARM.exidx), (8 bytes).
    Removing clock.o(.ARM.exidx), (8 bytes).
    Removing clock.o(.ARM.exidx), (8 bytes).
    Removing clock.o(.ARM.exidx), (8 bytes).
    Removing clock.o(.ARM.exidx), (8 bytes).
    Removing clock.o(.constdata), (21 bytes).
    Removing core.o(.rev16_text), (4 bytes).
    Removing core.o(.revsh_text), (4 bytes).
    Removing core.o(.rrx_text), (6 bytes).
    Removing core.o(i._ZN4Core10resetTimerEv), (6 bytes).
    Removing core.o(i._ZN4Core14protectedFlashEv), (2 bytes).
    Removing core.o(i._ZN4Core15paramToProtocolEPVhhS1_hjS1_), (100 bytes).
    Removing core.o(i._ZN4Core8getDeltaEss), (22 bytes).
    Removing core.o(i._ZN4Core9packFloatEPhf), (28 bytes).
    Removing core.o(.ARM.exidx), (8 bytes).
    Removing core.o(.ARM.exidx), (8 bytes).
    Removing core.o(.ARM.exidx), (8 bytes).
    Removing core.o(.ARM.exidx), (8 bytes).
    Removing core.o(.ARM.exidx), (8 bytes).
    Removing core.o(.ARM.exidx), (8 bytes).
    Removing core.o(.ARM.exidx), (8 bytes).
    Removing core.o(.ARM.exidx), (8 bytes).
    Removing core.o(.ARM.exidx), (8 bytes).
    Removing core.o(.ARM.exidx), (8 bytes).
    Removing core.o(.ARM.exidx), (8 bytes).
    Removing core.o(.ARM.exidx), (8 bytes).
    Removing core.o(.ARM.exidx), (8 bytes).
    Removing core.o(.ARM.exidx), (8 bytes).
    Removing core.o(.ARM.exidx), (8 bytes).
    Removing core.o(.ARM.exidx), (8 bytes).
    Removing core.o(.ARM.exidx), (8 bytes).
    Removing core.o(.ARM.exidx), (8 bytes).
    Removing core.o(.ARM.exidx), (8 bytes).
    Removing core.o(.ARM.exidx), (8 bytes).
    Removing core.o(.ARM.exidx), (8 bytes).
    Removing canvas.o(.rev16_text), (4 bytes).
    Removing canvas.o(.revsh_text), (4 bytes).
    Removing canvas.o(.rrx_text), (6 bytes).
    Removing canvas.o(i._ZN6Canvas11rotateImageEttiii), (560 bytes).
    Removing canvas.o(i._ZN6Canvas13drawRoundRectEttttj), (122 bytes).
    Removing canvas.o(i._ZN6Canvas14loadBackgroundEttttj), (468 bytes).
    Removing canvas.o(i._ZN6Canvas14writePixelZoomEsshj), (100 bytes).
    Removing canvas.o(i._ZN6Canvas16drawSliderDoubleEsshhh), (992 bytes).
    Removing canvas.o(i._ZN6Canvas16loadImagePointerEttj), (544 bytes).
    Removing canvas.o(i._ZN6Canvas19loadImageEffectBlueEttjj), (392 bytes).
    Removing canvas.o(i._ZN6Canvas19loadImageEffectGreyEttjj), (364 bytes).
    Removing canvas.o(i._ZN6Canvas19writeFillRectEffectEttttjj), (100 bytes).
    Removing canvas.o(i._ZN6Canvas20drawImageEffectColorEttttjjj), (352 bytes).
    Removing canvas.o(i._ZN6Canvas20loadBackgroundInvertEttttj), (488 bytes).
    Removing canvas.o(i._ZN6Canvas20loadImageEffectColorEttjjj), (332 bytes).
    Removing canvas.o(i._ZN6Canvas21loadImageEffectInvertEttjj), (332 bytes).
    Removing canvas.o(i._ZN6Canvas23writeFillRectEffectPolyEttttjj), (188 bytes).
    Removing canvas.o(.ARM.exidx), (8 bytes).
    Removing canvas.o(.ARM.exidx), (8 bytes).
    Removing canvas.o(.ARM.exidx), (8 bytes).
    Removing canvas.o(.ARM.exidx), (8 bytes).
    Removing canvas.o(.ARM.exidx), (8 bytes).
    Removing canvas.o(.ARM.exidx), (8 bytes).
    Removing canvas.o(.ARM.exidx), (8 bytes).
    Removing canvas.o(.ARM.exidx), (8 bytes).
    Removing canvas.o(.ARM.exidx), (8 bytes).
    Removing canvas.o(.ARM.exidx), (8 bytes).
    Removing canvas.o(.ARM.exidx), (8 bytes).
    Removing canvas.o(.ARM.exidx), (8 bytes).
    Removing canvas.o(.ARM.exidx), (8 bytes).
    Removing canvas.o(.ARM.exidx), (8 bytes).
    Removing canvas.o(.ARM.exidx), (8 bytes).
    Removing canvas.o(.ARM.exidx), (8 bytes).
    Removing canvas.o(.ARM.exidx), (8 bytes).
    Removing canvas.o(.ARM.exidx), (8 bytes).
    Removing canvas.o(.ARM.exidx), (8 bytes).
    Removing canvas.o(.ARM.exidx), (8 bytes).
    Removing canvas.o(.ARM.exidx), (8 bytes).
    Removing canvas.o(.ARM.exidx), (8 bytes).
    Removing canvas.o(.ARM.exidx), (8 bytes).
    Removing canvas.o(.ARM.exidx), (8 bytes).
    Removing canvas.o(.ARM.exidx), (8 bytes).
    Removing canvas.o(.ARM.exidx), (8 bytes).
    Removing canvas.o(.ARM.exidx), (8 bytes).
    Removing canvas.o(.ARM.exidx), (8 bytes).
    Removing canvas.o(.ARM.exidx), (8 bytes).
    Removing canvas.o(.ARM.exidx), (8 bytes).
    Removing canvas.o(.ARM.exidx), (8 bytes).
    Removing canvas.o(.ARM.exidx), (8 bytes).
    Removing canvas.o(.ARM.exidx), (8 bytes).
    Removing canvas.o(.ARM.exidx), (8 bytes).
    Removing canvas.o(.data), (5 bytes).
    Removing can.o(.rev16_text), (4 bytes).
    Removing can.o(.revsh_text), (4 bytes).
    Removing can.o(.rrx_text), (6 bytes).
    Removing can.o(i._ZN3Can11ClearFaultsEv), (10 bytes).
    Removing can.o(.ARM.exidx), (8 bytes).
    Removing can.o(.ARM.exidx), (8 bytes).
    Removing can.o(.ARM.exidx), (8 bytes).
    Removing can.o(.ARM.exidx), (8 bytes).
    Removing can.o(.ARM.exidx), (8 bytes).
    Removing can.o(.ARM.exidx), (8 bytes).
    Removing can.o(.ARM.exidx), (8 bytes).
    Removing can.o(.ARM.exidx), (8 bytes).
    Removing can.o(.ARM.exidx), (8 bytes).
    Removing rvc.o(.rev16_text), (4 bytes).
    Removing rvc.o(.revsh_text), (4 bytes).
    Removing rvc.o(.rrx_text), (6 bytes).
    Removing rvc.o(.ARM.exidx), (8 bytes).
    Removing rvc.o(.ARM.exidx), (8 bytes).
    Removing rvc.o(.ARM.exidx), (8 bytes).
    Removing rvc.o(.ARM.exidx), (8 bytes).
    Removing rvc.o(.ARM.exidx), (8 bytes).
    Removing pgn_rvc.o(.rev16_text), (4 bytes).
    Removing pgn_rvc.o(.revsh_text), (4 bytes).
    Removing pgn_rvc.o(.rrx_text), (6 bytes).
    Removing pgn_rvc.o(.ARM.exidx), (8 bytes).
    Removing pgn_rvc.o(.ARM.exidx), (8 bytes).
    Removing pgn_rvc.o(.ARM.exidx), (8 bytes).
    Removing pgn_rvc.o(.ARM.exidx), (8 bytes).
    Removing pgn_rvc.o(.ARM.exidx), (8 bytes).
    Removing pgn_rvc.o(.ARM.exidx), (8 bytes).
    Removing pgn_rvc.o(.ARM.exidx), (8 bytes).
    Removing pgn_rvc.o(.ARM.exidx), (8 bytes).
    Removing pgn_rvc.o(.ARM.exidx), (8 bytes).
    Removing pgn_rvc.o(.ARM.exidx), (8 bytes).
    Removing pgn_rvc.o(.ARM.exidx), (8 bytes).
    Removing pgn_rvc.o(.ARM.exidx), (8 bytes).
    Removing pgn_rvc.o(.ARM.exidx), (8 bytes).
    Removing pgn_rvc.o(.ARM.exidx), (8 bytes).
    Removing pgn_rvc.o(.ARM.exidx), (8 bytes).
    Removing temperature.o(.rev16_text), (4 bytes).
    Removing temperature.o(.revsh_text), (4 bytes).
    Removing temperature.o(.rrx_text), (6 bytes).
    Removing temperature.o(i._ZN11Temperature8getValueEv), (8 bytes).
    Removing temperature.o(.ARM.exidx), (8 bytes).
    Removing temperature.o(.ARM.exidx), (8 bytes).
    Removing temperature.o(.ARM.exidx), (8 bytes).
    Removing temperature.o(.ARM.exidx), (8 bytes).
    Removing temperature.o(.ARM.exidx), (8 bytes).
    Removing temperature.o(.ARM.exidx), (8 bytes).
    Removing memory.o(.rev16_text), (4 bytes).
    Removing memory.o(.revsh_text), (4 bytes).
    Removing memory.o(.rrx_text), (6 bytes).
    Removing memory.o(i._ZN6Memory10blockEraseEj), (144 bytes).
    Removing memory.o(i._ZN6Memory11searchImageEj), (98 bytes).
    Removing memory.o(i._ZN6Memory11writeEnableEv), (60 bytes).
    Removing memory.o(i._ZN6Memory13initializeSpiEv), (236 bytes).
    Removing memory.o(i._ZN6Memory5resetEv), (68 bytes).
    Removing memory.o(i._ZN6Memory7calcCRCEv), (256 bytes).
    Removing memory.o(i._ZN6Memory8fillPageEv), (78 bytes).
    Removing memory.o(i._ZN6Memory9chipEraseEv), (88 bytes).
    Removing memory.o(i._ZN6Memory9lastEraseEv), (56 bytes).
    Removing memory.o(i._ZN6Memory9powerDownEv), (60 bytes).
    Removing memory.o(i._ZN6Memory9searchEndEPj), (96 bytes).
    Removing memory.o(i._ZN6Memory9writeByteEhjj), (184 bytes).
    Removing memory.o(i._ZN6Memory9writePageEPhjh), (192 bytes).
    Removing memory.o(i._ZN6Memory9writeZeroEjh), (100 bytes).
    Removing memory.o(.ARM.exidx), (8 bytes).
    Removing memory.o(.ARM.exidx), (8 bytes).
    Removing memory.o(.ARM.exidx), (8 bytes).
    Removing memory.o(.ARM.exidx), (8 bytes).
    Removing memory.o(.ARM.exidx), (8 bytes).
    Removing memory.o(.ARM.exidx), (8 bytes).
    Removing memory.o(.ARM.exidx), (8 bytes).
    Removing memory.o(.ARM.exidx), (8 bytes).
    Removing memory.o(.ARM.exidx), (8 bytes).
    Removing memory.o(.ARM.exidx), (8 bytes).
    Removing memory.o(.ARM.exidx), (8 bytes).
    Removing memory.o(.ARM.exidx), (8 bytes).
    Removing memory.o(.ARM.exidx), (8 bytes).
    Removing memory.o(.ARM.exidx), (8 bytes).
    Removing memory.o(.ARM.exidx), (8 bytes).
    Removing memory.o(.ARM.exidx), (8 bytes).
    Removing memory.o(.ARM.exidx), (8 bytes).
    Removing memory.o(.ARM.exidx), (8 bytes).
    Removing memory.o(.ARM.exidx), (8 bytes).
    Removing memory.o(.ARM.exidx), (8 bytes).
    Removing memory.o(.ARM.exidx), (8 bytes).
    Removing memory.o(.ARM.exidx), (8 bytes).
    Removing memory.o(.ARM.exidx), (8 bytes).
    Removing memory.o(.ARM.exidx), (8 bytes).
    Removing memory.o(.ARM.exidx), (8 bytes).
    Removing memory.o(.ARM.exidx), (8 bytes).
    Removing memory.o(.ARM.exidx), (8 bytes).
    Removing memory.o(.data), (10 bytes).
    Removing display.o(.rev16_text), (4 bytes).
    Removing display.o(.revsh_text), (4 bytes).
    Removing display.o(.rrx_text), (6 bytes).
    Removing display.o(i._ZN7Display10resetTimerEv), (20 bytes).
    Removing display.o(i._ZN7Display13setResolutionEh), (60 bytes).
    Removing display.o(i._ZN7Display13writeDataFastEh), (64 bytes).
    Removing display.o(i._ZN7Display4testEt), (88 bytes).
    Removing display.o(.ARM.exidx), (8 bytes).
    Removing display.o(.ARM.exidx), (8 bytes).
    Removing display.o(.ARM.exidx), (8 bytes).
    Removing display.o(.ARM.exidx), (8 bytes).
    Removing display.o(.ARM.exidx), (8 bytes).
    Removing display.o(.ARM.exidx), (8 bytes).
    Removing display.o(.ARM.exidx), (8 bytes).
    Removing display.o(.ARM.exidx), (8 bytes).
    Removing display.o(.ARM.exidx), (8 bytes).
    Removing display.o(.ARM.exidx), (8 bytes).
    Removing display.o(.ARM.exidx), (8 bytes).
    Removing display.o(.ARM.exidx), (8 bytes).
    Removing display.o(.ARM.exidx), (8 bytes).
    Removing display.o(.ARM.exidx), (8 bytes).
    Removing display.o(.ARM.exidx), (8 bytes).
    Removing display.o(.ARM.exidx), (8 bytes).
    Removing display.o(.ARM.exidx), (8 bytes).
    Removing display.o(.ARM.exidx), (8 bytes).
    Removing sensor.o(.rev16_text), (4 bytes).
    Removing sensor.o(.revsh_text), (4 bytes).
    Removing sensor.o(.rrx_text), (6 bytes).
    Removing sensor.o(i._ZN6Sensor12getTickTouchEv), (20 bytes).
    Removing sensor.o(i._ZN6Sensor14resetTickTouchEv), (20 bytes).
    Removing sensor.o(i._ZN6Sensor5writeEPhhh), (168 bytes).
    Removing sensor.o(.ARM.exidx), (8 bytes).
    Removing sensor.o(.ARM.exidx), (8 bytes).
    Removing sensor.o(.ARM.exidx), (8 bytes).
    Removing sensor.o(.ARM.exidx), (8 bytes).
    Removing sensor.o(.ARM.exidx), (8 bytes).
    Removing sensor.o(.ARM.exidx), (8 bytes).
    Removing sensor.o(.ARM.exidx), (8 bytes).
    Removing sensor.o(.ARM.exidx), (8 bytes).
    Removing sensor.o(.ARM.exidx), (8 bytes).
    Removing sensor.o(.ARM.exidx), (8 bytes).
    Removing gd32f30x_can.o(.rev16_text), (4 bytes).
    Removing gd32f30x_can.o(.revsh_text), (4 bytes).
    Removing gd32f30x_can.o(.rrx_text), (6 bytes).
    Removing gd32f30x_can.o(i._Z10can_wakeupj), (48 bytes).
    Removing gd32f30x_can.o(i._Z12can_flag_getj13can_flag_enum), (30 bytes).
    Removing gd32f30x_can.o(i._Z14can_flag_clearj13can_flag_enum), (16 bytes).
    Removing gd32f30x_can.o(i._Z16can_fifo_releasejh), (32 bytes).
    Removing gd32f30x_can.o(i._Z19can_transmit_statesjh), (124 bytes).
    Removing gd32f30x_can.o(i._Z20can_working_mode_setjh), (168 bytes).
    Removing gd32f30x_can.o(i._Z21can_interrupt_disablejj), (8 bytes).
    Removing gd32f30x_can.o(i._Z21can_transmission_stopjh), (80 bytes).
    Removing gd32f30x_can.o(i._Z22can1_filter_start_bankh), (56 bytes).
    Removing gd32f30x_can.o(i._Z23can_debug_freeze_enablej), (32 bytes).
    Removing gd32f30x_can.o(i._Z24can_debug_freeze_disablej), (32 bytes).
    Removing gd32f30x_can.o(i._Z28can_receive_error_number_getj), (8 bytes).
    Removing gd32f30x_can.o(i._Z28can_time_trigger_mode_enablej), (48 bytes).
    Removing gd32f30x_can.o(i._Z29can_time_trigger_mode_disablej), (48 bytes).
    Removing gd32f30x_can.o(i._Z29can_transmit_error_number_getj), (10 bytes).
    Removing gd32f30x_can.o(.ARM.exidx), (8 bytes).
    Removing gd32f30x_can.o(.ARM.exidx), (8 bytes).
    Removing gd32f30x_can.o(.ARM.exidx), (8 bytes).
    Removing gd32f30x_can.o(.ARM.exidx), (8 bytes).
    Removing gd32f30x_can.o(.ARM.exidx), (8 bytes).
    Removing gd32f30x_can.o(.ARM.exidx), (8 bytes).
    Removing gd32f30x_can.o(.ARM.exidx), (8 bytes).
    Removing gd32f30x_can.o(.ARM.exidx), (8 bytes).
    Removing gd32f30x_can.o(.ARM.exidx), (8 bytes).
    Removing gd32f30x_can.o(.ARM.exidx), (8 bytes).
    Removing gd32f30x_can.o(.ARM.exidx), (8 bytes).
    Removing gd32f30x_can.o(.ARM.exidx), (8 bytes).
    Removing gd32f30x_can.o(.ARM.exidx), (8 bytes).
    Removing gd32f30x_can.o(.ARM.exidx), (8 bytes).
    Removing gd32f30x_can.o(.ARM.exidx), (8 bytes).
    Removing gd32f30x_can.o(.ARM.exidx), (8 bytes).
    Removing gd32f30x_can.o(.ARM.exidx), (8 bytes).
    Removing gd32f30x_can.o(.ARM.exidx), (8 bytes).
    Removing gd32f30x_can.o(.ARM.exidx), (8 bytes).
    Removing gd32f30x_can.o(.ARM.exidx), (8 bytes).
    Removing gd32f30x_can.o(.ARM.exidx), (8 bytes).
    Removing gd32f30x_can.o(.ARM.exidx), (8 bytes).
    Removing gd32f30x_can.o(.ARM.exidx), (8 bytes).
    Removing gd32f30x_can.o(.ARM.exidx), (8 bytes).
    Removing gd32f30x_can.o(.ARM.exidx), (8 bytes).
    Removing gd32f30x_can.o(.ARM.exidx), (8 bytes).
    Removing unix_time.o(.rev16_text), (4 bytes).
    Removing unix_time.o(.revsh_text), (4 bytes).
    Removing unix_time.o(.rrx_text), (6 bytes).
    Removing unix_time.o(.ARM.exidx), (8 bytes).
    Removing unix_time.o(.ARM.exidx), (8 bytes).
    Removing hcu.o(.rev16_text), (4 bytes).
    Removing hcu.o(.revsh_text), (4 bytes).
    Removing hcu.o(.rrx_text), (6 bytes).
    Removing hcu.o(i._ZN3Hcu9checkPumpEv), (52 bytes).
    Removing hcu.o(.ARM.exidx), (8 bytes).
    Removing hcu.o(.ARM.exidx), (8 bytes).
    Removing hcu.o(.ARM.exidx), (8 bytes).
    Removing hcu.o(.ARM.exidx), (8 bytes).
    Removing hcu.o(.ARM.exidx), (8 bytes).
    Removing usart.o(.rev16_text), (4 bytes).
    Removing usart.o(.revsh_text), (4 bytes).
    Removing usart.o(.rrx_text), (6 bytes).
    Removing usart.o(i._ZN5Usart7handlerEv), (84 bytes).
    Removing usart.o(.ARM.exidx), (8 bytes).
    Removing usart.o(.ARM.exidx), (8 bytes).
    Removing usart.o(.ARM.exidx), (8 bytes).
    Removing usart.o(.ARM.exidx), (8 bytes).
    Removing usart.o(.ARM.exidx), (8 bytes).
    Removing usart.o(.ARM.exidx), (8 bytes).
    Removing usart.o(.ARM.exidx), (8 bytes).
    Removing usart.o(.ARM.exidx), (8 bytes).
    Removing usart.o(.ARM.exidx), (8 bytes).
    Removing usart.o(.ARM.exidx), (8 bytes).
    Removing usart.o(.ARM.exidx), (8 bytes).
    Removing usart.o(.data), (8 bytes).
    Removing gd32f30x_adc.o(.rev16_text), (4 bytes).
    Removing gd32f30x_adc.o(.revsh_text), (4 bytes).
    Removing gd32f30x_adc.o(.rrx_text), (6 bytes).
    Removing gd32f30x_adc.o(i._Z12adc_flag_getjj), (14 bytes).
    Removing gd32f30x_adc.o(i._Z20adc_dma_mode_disablej), (10 bytes).
    Removing gd32f30x_adc.o(i._Z20adc_interrupt_enablejj), (44 bytes).
    Removing gd32f30x_adc.o(i._Z20adc_watchdog_disablej), (16 bytes).
    Removing gd32f30x_adc.o(i._Z21adc_regular_data_readj), (8 bytes).
    Removing gd32f30x_adc.o(i._Z22adc_inserted_data_readjh), (46 bytes).
    Removing gd32f30x_adc.o(i._Z22adc_interrupt_flag_getjj), (88 bytes).
    Removing gd32f30x_adc.o(i._Z24adc_interrupt_flag_clearjj), (8 bytes).
    Removing gd32f30x_adc.o(i._Z26adc_oversample_mode_configjhth), (56 bytes).
    Removing gd32f30x_adc.o(i._Z26adc_oversample_mode_enablej), (14 bytes).
    Removing gd32f30x_adc.o(i._Z27adc_inserted_channel_configjhhj), (120 bytes).
    Removing gd32f30x_adc.o(i._Z27adc_oversample_mode_disablej), (14 bytes).
    Removing gd32f30x_adc.o(i._Z27adc_software_trigger_enablejh), (30 bytes).
    Removing gd32f30x_adc.o(i._Z29adc_discontinuous_mode_configjhh), (76 bytes).
    Removing gd32f30x_adc.o(i._Z29adc_watchdog_threshold_configjtt), (14 bytes).
    Removing gd32f30x_adc.o(i._Z30adc_tempsensor_vrefint_disablev), (20 bytes).
    Removing gd32f30x_adc.o(i._Z32adc_sync_mode_convert_value_readv), (12 bytes).
    Removing gd32f30x_adc.o(i._Z33adc_watchdog_group_channel_enablejh), (64 bytes).
    Removing gd32f30x_adc.o(i._Z34adc_inserted_channel_offset_configjht), (36 bytes).
    Removing gd32f30x_adc.o(i._Z34adc_watchdog_single_channel_enablejh), (32 bytes).
    Removing gd32f30x_adc.o(.ARM.exidx), (8 bytes).
    Removing gd32f30x_adc.o(.ARM.exidx), (8 bytes).
    Removing gd32f30x_adc.o(.ARM.exidx), (8 bytes).
    Removing gd32f30x_adc.o(.ARM.exidx), (8 bytes).
    Removing gd32f30x_adc.o(.ARM.exidx), (8 bytes).
    Removing gd32f30x_adc.o(.ARM.exidx), (8 bytes).
    Removing gd32f30x_adc.o(.ARM.exidx), (8 bytes).
    Removing gd32f30x_adc.o(.ARM.exidx), (8 bytes).
    Removing gd32f30x_adc.o(.ARM.exidx), (8 bytes).
    Removing gd32f30x_adc.o(.ARM.exidx), (8 bytes).
    Removing gd32f30x_adc.o(.ARM.exidx), (8 bytes).
    Removing gd32f30x_adc.o(.ARM.exidx), (8 bytes).
    Removing gd32f30x_adc.o(.ARM.exidx), (8 bytes).
    Removing gd32f30x_adc.o(.ARM.exidx), (8 bytes).
    Removing gd32f30x_adc.o(.ARM.exidx), (8 bytes).
    Removing gd32f30x_adc.o(.ARM.exidx), (8 bytes).
    Removing gd32f30x_adc.o(.ARM.exidx), (8 bytes).
    Removing gd32f30x_adc.o(.ARM.exidx), (8 bytes).
    Removing gd32f30x_adc.o(.ARM.exidx), (8 bytes).
    Removing gd32f30x_adc.o(.ARM.exidx), (8 bytes).
    Removing gd32f30x_adc.o(.ARM.exidx), (8 bytes).
    Removing gd32f30x_adc.o(.ARM.exidx), (8 bytes).
    Removing gd32f30x_adc.o(.ARM.exidx), (8 bytes).
    Removing gd32f30x_adc.o(.ARM.exidx), (8 bytes).
    Removing gd32f30x_adc.o(.ARM.exidx), (8 bytes).
    Removing gd32f30x_adc.o(.ARM.exidx), (8 bytes).
    Removing gd32f30x_adc.o(.ARM.exidx), (8 bytes).
    Removing gd32f30x_adc.o(.ARM.exidx), (8 bytes).
    Removing gd32f30x_adc.o(.ARM.exidx), (8 bytes).
    Removing gd32f30x_adc.o(.ARM.exidx), (8 bytes).
    Removing gd32f30x_adc.o(.ARM.exidx), (8 bytes).
    Removing gd32f30x_adc.o(.ARM.exidx), (8 bytes).
    Removing gd32f30x_adc.o(.ARM.exidx), (8 bytes).
    Removing gd32f30x_adc.o(.ARM.exidx), (8 bytes).
    Removing gd32f30x_adc.o(.ARM.exidx), (8 bytes).
    Removing gd32f30x_adc.o(.ARM.exidx), (8 bytes).
    Removing gd32f30x_bkp.o(.rev16_text), (4 bytes).
    Removing gd32f30x_bkp.o(.revsh_text), (4 bytes).
    Removing gd32f30x_bkp.o(.rrx_text), (6 bytes).
    Removing gd32f30x_bkp.o(i._Z12bkp_flag_gett), (24 bytes).
    Removing gd32f30x_bkp.o(i._Z14bkp_flag_cleart), (20 bytes).
    Removing gd32f30x_bkp.o(i._Z21bkp_rtc_output_selectt), (28 bytes).
    Removing gd32f30x_bkp.o(i._Z22bkp_interrupt_flag_gett), (24 bytes).
    Removing gd32f30x_bkp.o(i._Z24bkp_interrupt_flag_cleart), (20 bytes).
    Removing gd32f30x_bkp.o(i._Z27bkp_rtc_clock_output_selectt), (28 bytes).
    Removing gd32f30x_bkp.o(i._Z27bkp_tamper_active_level_sett), (28 bytes).
    Removing gd32f30x_bkp.o(i._Z27bkp_tamper_detection_enablev), (20 bytes).
    Removing gd32f30x_bkp.o(i._Z27bkp_tamper_interrupt_enablev), (20 bytes).
    Removing gd32f30x_bkp.o(i._Z28bkp_rtc_signal_output_enablev), (20 bytes).
    Removing gd32f30x_bkp.o(i._Z28bkp_tamper_detection_disablev), (20 bytes).
    Removing gd32f30x_bkp.o(i._Z28bkp_tamper_interrupt_disablev), (20 bytes).
    Removing gd32f30x_bkp.o(i._Z29bkp_rtc_calibration_value_seth), (24 bytes).
    Removing gd32f30x_bkp.o(i._Z29bkp_rtc_signal_output_disablev), (20 bytes).
    Removing gd32f30x_bkp.o(i._Z33bkp_rtc_calibration_output_enablev), (20 bytes).
    Removing gd32f30x_bkp.o(i._Z34bkp_rtc_calibration_output_disablev), (20 bytes).
    Removing gd32f30x_bkp.o(i._Z35bkp_rtc_clock_calibration_directiont), (24 bytes).
    Removing gd32f30x_bkp.o(.ARM.exidx), (8 bytes).
    Removing gd32f30x_bkp.o(.ARM.exidx), (8 bytes).
    Removing gd32f30x_bkp.o(.ARM.exidx), (8 bytes).
    Removing gd32f30x_bkp.o(.ARM.exidx), (8 bytes).
    Removing gd32f30x_bkp.o(.ARM.exidx), (8 bytes).
    Removing gd32f30x_bkp.o(.ARM.exidx), (8 bytes).
    Removing gd32f30x_bkp.o(.ARM.exidx), (8 bytes).
    Removing gd32f30x_bkp.o(.ARM.exidx), (8 bytes).
    Removing gd32f30x_bkp.o(.ARM.exidx), (8 bytes).
    Removing gd32f30x_bkp.o(.ARM.exidx), (8 bytes).
    Removing gd32f30x_bkp.o(.ARM.exidx), (8 bytes).
    Removing gd32f30x_bkp.o(.ARM.exidx), (8 bytes).
    Removing gd32f30x_bkp.o(.ARM.exidx), (8 bytes).
    Removing gd32f30x_bkp.o(.ARM.exidx), (8 bytes).
    Removing gd32f30x_bkp.o(.ARM.exidx), (8 bytes).
    Removing gd32f30x_bkp.o(.ARM.exidx), (8 bytes).
    Removing gd32f30x_bkp.o(.ARM.exidx), (8 bytes).
    Removing gd32f30x_bkp.o(.ARM.exidx), (8 bytes).
    Removing gd32f30x_bkp.o(.ARM.exidx), (8 bytes).
    Removing gd32f30x_bkp.o(.ARM.exidx), (8 bytes).
    Removing gd32f30x_crc.o(.rev16_text), (4 bytes).
    Removing gd32f30x_crc.o(.revsh_text), (4 bytes).
    Removing gd32f30x_crc.o(.rrx_text), (6 bytes).
    Removing gd32f30x_crc.o(i._Z10crc_deinitv), (24 bytes).
    Removing gd32f30x_crc.o(i._Z22crc_data_register_readv), (12 bytes).
    Removing gd32f30x_crc.o(i._Z23crc_data_register_resetv), (20 bytes).
    Removing gd32f30x_crc.o(i._Z24crc_block_data_calculatePjj), (36 bytes).
    Removing gd32f30x_crc.o(i._Z25crc_single_data_calculatej), (16 bytes).
    Removing gd32f30x_crc.o(i._Z27crc_free_data_register_readv), (12 bytes).
    Removing gd32f30x_crc.o(i._Z28crc_free_data_register_writeh), (12 bytes).
    Removing gd32f30x_crc.o(.ARM.exidx), (8 bytes).
    Removing gd32f30x_crc.o(.ARM.exidx), (8 bytes).
    Removing gd32f30x_crc.o(.ARM.exidx), (8 bytes).
    Removing gd32f30x_crc.o(.ARM.exidx), (8 bytes).
    Removing gd32f30x_crc.o(.ARM.exidx), (8 bytes).
    Removing gd32f30x_crc.o(.ARM.exidx), (8 bytes).
    Removing gd32f30x_crc.o(.ARM.exidx), (8 bytes).
    Removing gd32f30x_ctc.o(.rev16_text), (4 bytes).
    Removing gd32f30x_ctc.o(.revsh_text), (4 bytes).
    Removing gd32f30x_ctc.o(.rrx_text), (6 bytes).
    Removing gd32f30x_ctc.o(i._Z10ctc_deinitv), (20 bytes).
    Removing gd32f30x_ctc.o(i._Z12ctc_flag_getj), (24 bytes).
    Removing gd32f30x_ctc.o(i._Z14ctc_flag_clearj), (36 bytes).
    Removing gd32f30x_ctc.o(i._Z18ctc_counter_enablev), (20 bytes).
    Removing gd32f30x_ctc.o(i._Z19ctc_counter_disablev), (20 bytes).
    Removing gd32f30x_ctc.o(i._Z20ctc_interrupt_enablej), (16 bytes).
    Removing gd32f30x_ctc.o(i._Z21ctc_interrupt_disablej), (16 bytes).
    Removing gd32f30x_ctc.o(i._Z22ctc_interrupt_flag_getj), (56 bytes).
    Removing gd32f30x_ctc.o(i._Z24ctc_interrupt_flag_clearj), (36 bytes).
    Removing gd32f30x_ctc.o(i._Z26ctc_counter_direction_readv), (24 bytes).
    Removing gd32f30x_ctc.o(i._Z26ctc_irc48m_trim_value_readv), (16 bytes).
    Removing gd32f30x_ctc.o(i._Z27ctc_refsource_signal_selectj), (28 bytes).
    Removing gd32f30x_ctc.o(i._Z28ctc_clock_limit_value_configh), (28 bytes).
    Removing gd32f30x_ctc.o(i._Z28ctc_irc48m_trim_value_configh), (28 bytes).
    Removing gd32f30x_ctc.o(i._Z29ctc_counter_reload_value_readv), (16 bytes).
    Removing gd32f30x_ctc.o(i._Z29ctc_hardware_trim_mode_configj), (28 bytes).
    Removing gd32f30x_ctc.o(i._Z29ctc_refsource_polarity_configj), (28 bytes).
    Removing gd32f30x_ctc.o(i._Z30ctc_counter_capture_value_readv), (16 bytes).
    Removing gd32f30x_ctc.o(i._Z30ctc_refsource_prescaler_configj), (28 bytes).
    Removing gd32f30x_ctc.o(i._Z31ctc_counter_reload_value_configt), (28 bytes).
    Removing gd32f30x_ctc.o(i._Z37ctc_software_refsource_pulse_generatev), (20 bytes).
    Removing gd32f30x_ctc.o(.ARM.exidx), (8 bytes).
    Removing gd32f30x_ctc.o(.ARM.exidx), (8 bytes).
    Removing gd32f30x_ctc.o(.ARM.exidx), (8 bytes).
    Removing gd32f30x_ctc.o(.ARM.exidx), (8 bytes).
    Removing gd32f30x_ctc.o(.ARM.exidx), (8 bytes).
    Removing gd32f30x_ctc.o(.ARM.exidx), (8 bytes).
    Removing gd32f30x_ctc.o(.ARM.exidx), (8 bytes).
    Removing gd32f30x_ctc.o(.ARM.exidx), (8 bytes).
    Removing gd32f30x_ctc.o(.ARM.exidx), (8 bytes).
    Removing gd32f30x_ctc.o(.ARM.exidx), (8 bytes).
    Removing gd32f30x_ctc.o(.ARM.exidx), (8 bytes).
    Removing gd32f30x_ctc.o(.ARM.exidx), (8 bytes).
    Removing gd32f30x_ctc.o(.ARM.exidx), (8 bytes).
    Removing gd32f30x_ctc.o(.ARM.exidx), (8 bytes).
    Removing gd32f30x_ctc.o(.ARM.exidx), (8 bytes).
    Removing gd32f30x_ctc.o(.ARM.exidx), (8 bytes).
    Removing gd32f30x_ctc.o(.ARM.exidx), (8 bytes).
    Removing gd32f30x_ctc.o(.ARM.exidx), (8 bytes).
    Removing gd32f30x_ctc.o(.ARM.exidx), (8 bytes).
    Removing gd32f30x_ctc.o(.ARM.exidx), (8 bytes).
    Removing gd32f30x_ctc.o(.ARM.exidx), (8 bytes).
    Removing gd32f30x_dac.o(.rev16_text), (4 bytes).
    Removing gd32f30x_dac.o(.revsh_text), (4 bytes).
    Removing gd32f30x_dac.o(.rrx_text), (6 bytes).
    Removing gd32f30x_dac.o(i._Z10dac_deinitv), (20 bytes).
    Removing gd32f30x_dac.o(i._Z10dac_enablej), (36 bytes).
    Removing gd32f30x_dac.o(i._Z11dac_disablej), (36 bytes).
    Removing gd32f30x_dac.o(i._Z12dac_data_setjjt), (88 bytes).
    Removing gd32f30x_dac.o(i._Z14dac_dma_enablej), (36 bytes).
    Removing gd32f30x_dac.o(i._Z15dac_dma_disablej), (36 bytes).
    Removing gd32f30x_dac.o(i._Z18dac_trigger_enablej), (36 bytes).
    Removing gd32f30x_dac.o(i._Z19dac_trigger_disablej), (36 bytes).
    Removing gd32f30x_dac.o(i._Z20dac_output_value_getj), (28 bytes).
    Removing gd32f30x_dac.o(i._Z20dac_wave_mode_configjj), (52 bytes).
    Removing gd32f30x_dac.o(i._Z21dac_concurrent_enablev), (24 bytes).
    Removing gd32f30x_dac.o(i._Z21dac_lfsr_noise_configjj), (52 bytes).
    Removing gd32f30x_dac.o(i._Z22dac_concurrent_disablev), (24 bytes).
    Removing gd32f30x_dac.o(i._Z23dac_concurrent_data_setjtt), (64 bytes).
    Removing gd32f30x_dac.o(i._Z24dac_output_buffer_enablej), (36 bytes).
    Removing gd32f30x_dac.o(i._Z25dac_output_buffer_disablej), (36 bytes).
    Removing gd32f30x_dac.o(i._Z25dac_triangle_noise_configjj), (52 bytes).
    Removing gd32f30x_dac.o(i._Z25dac_trigger_source_configjj), (52 bytes).
    Removing gd32f30x_dac.o(i._Z25dac_wave_bit_width_configjj), (52 bytes).
    Removing gd32f30x_dac.o(i._Z27dac_software_trigger_enablej), (36 bytes).
    Removing gd32f30x_dac.o(i._Z28dac_software_trigger_disablej), (36 bytes).
    Removing gd32f30x_dac.o(i._Z35dac_concurrent_output_buffer_enablev), (24 bytes).
    Removing gd32f30x_dac.o(i._Z36dac_concurrent_output_buffer_disablev), (24 bytes).
    Removing gd32f30x_dac.o(i._Z38dac_concurrent_software_trigger_enablev), (20 bytes).
    Removing gd32f30x_dac.o(i._Z39dac_concurrent_software_trigger_disablev), (20 bytes).
    Removing gd32f30x_dac.o(.ARM.exidx), (8 bytes).
    Removing gd32f30x_dac.o(.ARM.exidx), (8 bytes).
    Removing gd32f30x_dac.o(.ARM.exidx), (8 bytes).
    Removing gd32f30x_dac.o(.ARM.exidx), (8 bytes).
    Removing gd32f30x_dac.o(.ARM.exidx), (8 bytes).
    Removing gd32f30x_dac.o(.ARM.exidx), (8 bytes).
    Removing gd32f30x_dac.o(.ARM.exidx), (8 bytes).
    Removing gd32f30x_dac.o(.ARM.exidx), (8 bytes).
    Removing gd32f30x_dac.o(.ARM.exidx), (8 bytes).
    Removing gd32f30x_dac.o(.ARM.exidx), (8 bytes).
    Removing gd32f30x_dac.o(.ARM.exidx), (8 bytes).
    Removing gd32f30x_dac.o(.ARM.exidx), (8 bytes).
    Removing gd32f30x_dac.o(.ARM.exidx), (8 bytes).
    Removing gd32f30x_dac.o(.ARM.exidx), (8 bytes).
    Removing gd32f30x_dac.o(.ARM.exidx), (8 bytes).
    Removing gd32f30x_dac.o(.ARM.exidx), (8 bytes).
    Removing gd32f30x_dac.o(.ARM.exidx), (8 bytes).
    Removing gd32f30x_dac.o(.ARM.exidx), (8 bytes).
    Removing gd32f30x_dac.o(.ARM.exidx), (8 bytes).
    Removing gd32f30x_dac.o(.ARM.exidx), (8 bytes).
    Removing gd32f30x_dac.o(.ARM.exidx), (8 bytes).
    Removing gd32f30x_dac.o(.ARM.exidx), (8 bytes).
    Removing gd32f30x_dac.o(.ARM.exidx), (8 bytes).
    Removing gd32f30x_dac.o(.ARM.exidx), (8 bytes).
    Removing gd32f30x_dac.o(.ARM.exidx), (8 bytes).
    Removing gd32f30x_dbg.o(.rev16_text), (4 bytes).
    Removing gd32f30x_dbg.o(.revsh_text), (4 bytes).
    Removing gd32f30x_dbg.o(.rrx_text), (6 bytes).
    Removing gd32f30x_dbg.o(i._Z10dbg_id_getv), (12 bytes).
    Removing gd32f30x_dbg.o(i._Z17dbg_periph_enable15dbg_periph_enum), (16 bytes).
    Removing gd32f30x_dbg.o(i._Z18dbg_periph_disable15dbg_periph_enum), (16 bytes).
    Removing gd32f30x_dbg.o(i._Z20dbg_low_power_enablej), (16 bytes).
    Removing gd32f30x_dbg.o(i._Z20dbg_trace_pin_enablev), (20 bytes).
    Removing gd32f30x_dbg.o(i._Z21dbg_low_power_disablej), (16 bytes).
    Removing gd32f30x_dbg.o(i._Z21dbg_trace_pin_disablev), (20 bytes).
    Removing gd32f30x_dbg.o(i._Z22dbg_trace_pin_mode_setj), (28 bytes).
    Removing gd32f30x_dbg.o(.ARM.exidx), (8 bytes).
    Removing gd32f30x_dbg.o(.ARM.exidx), (8 bytes).
    Removing gd32f30x_dbg.o(.ARM.exidx), (8 bytes).
    Removing gd32f30x_dbg.o(.ARM.exidx), (8 bytes).
    Removing gd32f30x_dbg.o(.ARM.exidx), (8 bytes).
    Removing gd32f30x_dbg.o(.ARM.exidx), (8 bytes).
    Removing gd32f30x_dbg.o(.ARM.exidx), (8 bytes).
    Removing gd32f30x_dbg.o(.ARM.exidx), (8 bytes).
    Removing gd32f30x_dma.o(.rev16_text), (4 bytes).
    Removing gd32f30x_dma.o(.revsh_text), (4 bytes).
    Removing gd32f30x_dma.o(.rrx_text), (6 bytes).
    Removing gd32f30x_dma.o(i._Z12dma_flag_getj16dma_channel_enumj), (24 bytes).
    Removing gd32f30x_dma.o(i._Z14dma_flag_clearj16dma_channel_enumj), (16 bytes).
    Removing gd32f30x_dma.o(i._Z19dma_channel_disablej16dma_channel_enum), (50 bytes).
    Removing gd32f30x_dma.o(i._Z20dma_interrupt_enablej16dma_channel_enumj), (50 bytes).
    Removing gd32f30x_dma.o(i._Z21dma_interrupt_disablej16dma_channel_enumj), (50 bytes).
    Removing gd32f30x_dma.o(i._Z22dma_interrupt_flag_getj16dma_channel_enumj), (130 bytes).
    Removing gd32f30x_dma.o(i._Z23dma_circulation_disablej16dma_channel_enum), (50 bytes).
    Removing gd32f30x_dma.o(i._Z23dma_transfer_number_getj16dma_channel_enum), (34 bytes).
    Removing gd32f30x_dma.o(i._Z24dma_interrupt_flag_clearj16dma_channel_enumj), (16 bytes).
    Removing gd32f30x_dma.o(i._Z26dma_periph_increase_enablej16dma_channel_enum), (50 bytes).
    Removing gd32f30x_dma.o(i._Z27dma_memory_increase_disablej16dma_channel_enum), (50 bytes).
    Removing gd32f30x_dma.o(i._Z27dma_memory_to_memory_enablej16dma_channel_enum), (50 bytes).
    Removing gd32f30x_dma.o(i._Z28dma_memory_to_memory_disablej16dma_channel_enum), (50 bytes).
    Removing gd32f30x_dma.o(i._Z8dma_initj16dma_channel_enum20dma_parameter_struct), (308 bytes).
    Removing gd32f30x_dma.o(.ARM.exidx), (8 bytes).
    Removing gd32f30x_dma.o(.ARM.exidx), (8 bytes).
    Removing gd32f30x_dma.o(.ARM.exidx), (8 bytes).
    Removing gd32f30x_dma.o(.ARM.exidx), (8 bytes).
    Removing gd32f30x_dma.o(.ARM.exidx), (8 bytes).
    Removing gd32f30x_dma.o(.ARM.exidx), (8 bytes).
    Removing gd32f30x_dma.o(.ARM.exidx), (8 bytes).
    Removing gd32f30x_dma.o(.ARM.exidx), (8 bytes).
    Removing gd32f30x_dma.o(.ARM.exidx), (8 bytes).
    Removing gd32f30x_dma.o(.ARM.exidx), (8 bytes).
    Removing gd32f30x_dma.o(.ARM.exidx), (8 bytes).
    Removing gd32f30x_dma.o(.ARM.exidx), (8 bytes).
    Removing gd32f30x_dma.o(.ARM.exidx), (8 bytes).
    Removing gd32f30x_dma.o(.ARM.exidx), (8 bytes).
    Removing gd32f30x_dma.o(.ARM.exidx), (8 bytes).
    Removing gd32f30x_dma.o(.ARM.exidx), (8 bytes).
    Removing gd32f30x_dma.o(.ARM.exidx), (8 bytes).
    Removing gd32f30x_dma.o(.ARM.exidx), (8 bytes).
    Removing gd32f30x_dma.o(.ARM.exidx), (8 bytes).
    Removing gd32f30x_dma.o(.ARM.exidx), (8 bytes).
    Removing gd32f30x_dma.o(.ARM.exidx), (8 bytes).
    Removing gd32f30x_dma.o(.ARM.exidx), (8 bytes).
    Removing gd32f30x_dma.o(.ARM.exidx), (8 bytes).
    Removing gd32f30x_dma.o(.ARM.exidx), (8 bytes).
    Removing gd32f30x_dma.o(.ARM.exidx), (8 bytes).
    Removing gd32f30x_dma.o(.ARM.exidx), (8 bytes).
    Removing gd32f30x_dma.o(.ARM.exidx), (8 bytes).
    Removing gd32f30x_enet.o(.rev16_text), (4 bytes).
    Removing gd32f30x_enet.o(.revsh_text), (4 bytes).
    Removing gd32f30x_enet.o(.rrx_text), (6 bytes).
    Removing gd32f30x_exmc.o(.rev16_text), (4 bytes).
    Removing gd32f30x_exmc.o(.revsh_text), (4 bytes).
    Removing gd32f30x_exmc.o(.rrx_text), (6 bytes).
    Removing gd32f30x_exmc.o(i._Z12exmc_ecc_getj), (12 bytes).
    Removing gd32f30x_exmc.o(i._Z13exmc_flag_getjj), (28 bytes).
    Removing gd32f30x_exmc.o(i._Z14exmc_nand_initP26exmc_nand_parameter_struct), (174 bytes).
    Removing gd32f30x_exmc.o(i._Z15exmc_flag_clearjj), (20 bytes).
    Removing gd32f30x_exmc.o(i._Z16exmc_nand_deinitj), (42 bytes).
    Removing gd32f30x_exmc.o(i._Z16exmc_nand_enablej), (22 bytes).
    Removing gd32f30x_exmc.o(i._Z16exmc_pccard_initP28exmc_pccard_parameter_struct), (192 bytes).
    Removing gd32f30x_exmc.o(i._Z17exmc_nand_disablej), (22 bytes).
    Removing gd32f30x_exmc.o(i._Z17exmc_norsram_initP29exmc_norsram_parameter_struct), (284 bytes).
    Removing gd32f30x_exmc.o(i._Z18exmc_pccard_deinitv), (40 bytes).
    Removing gd32f30x_exmc.o(i._Z18exmc_pccard_enablev), (24 bytes).
    Removing gd32f30x_exmc.o(i._Z19exmc_norsram_deinitj), (52 bytes).
    Removing gd32f30x_exmc.o(i._Z19exmc_norsram_enablej), (22 bytes).
    Removing gd32f30x_exmc.o(i._Z19exmc_pccard_disablev), (24 bytes).
    Removing gd32f30x_exmc.o(i._Z20exmc_nand_ecc_configj11EventStatus), (48 bytes).
    Removing gd32f30x_exmc.o(i._Z20exmc_norsram_disablej), (22 bytes).
    Removing gd32f30x_exmc.o(i._Z21exmc_interrupt_enablejj), (20 bytes).
    Removing gd32f30x_exmc.o(i._Z22exmc_interrupt_disablejj), (20 bytes).
    Removing gd32f30x_exmc.o(i._Z23exmc_interrupt_flag_getjj), (38 bytes).
    Removing gd32f30x_exmc.o(i._Z24exmc_nand_parameter_initP26exmc_nand_parameter_struct), (54 bytes).
    Removing gd32f30x_exmc.o(i._Z25exmc_interrupt_flag_clearjj), (22 bytes).
    Removing gd32f30x_exmc.o(i._Z26exmc_pccard_parameter_initP28exmc_pccard_parameter_struct), (60 bytes).
    Removing gd32f30x_exmc.o(i._Z27exmc_norsram_parameter_initP29exmc_norsram_parameter_struct), (106 bytes).
    Removing gd32f30x_exmc.o(i._Z29exmc_norsram_page_size_configjj), (40 bytes).
    Removing gd32f30x_exmc.o(.ARM.exidx), (8 bytes).
    Removing gd32f30x_exmc.o(.ARM.exidx), (8 bytes).
    Removing gd32f30x_exmc.o(.ARM.exidx), (8 bytes).
    Removing gd32f30x_exmc.o(.ARM.exidx), (8 bytes).
    Removing gd32f30x_exmc.o(.ARM.exidx), (8 bytes).
    Removing gd32f30x_exmc.o(.ARM.exidx), (8 bytes).
    Removing gd32f30x_exmc.o(.ARM.exidx), (8 bytes).
    Removing gd32f30x_exmc.o(.ARM.exidx), (8 bytes).
    Removing gd32f30x_exmc.o(.ARM.exidx), (8 bytes).
    Removing gd32f30x_exmc.o(.ARM.exidx), (8 bytes).
    Removing gd32f30x_exmc.o(.ARM.exidx), (8 bytes).
    Removing gd32f30x_exmc.o(.ARM.exidx), (8 bytes).
    Removing gd32f30x_exmc.o(.ARM.exidx), (8 bytes).
    Removing gd32f30x_exmc.o(.ARM.exidx), (8 bytes).
    Removing gd32f30x_exmc.o(.ARM.exidx), (8 bytes).
    Removing gd32f30x_exmc.o(.ARM.exidx), (8 bytes).
    Removing gd32f30x_exmc.o(.ARM.exidx), (8 bytes).
    Removing gd32f30x_exmc.o(.ARM.exidx), (8 bytes).
    Removing gd32f30x_exmc.o(.ARM.exidx), (8 bytes).
    Removing gd32f30x_exmc.o(.ARM.exidx), (8 bytes).
    Removing gd32f30x_exmc.o(.ARM.exidx), (8 bytes).
    Removing gd32f30x_exmc.o(.ARM.exidx), (8 bytes).
    Removing gd32f30x_exmc.o(.ARM.exidx), (8 bytes).
    Removing gd32f30x_exmc.o(.ARM.exidx), (8 bytes).
    Removing gd32f30x_exti.o(.rev16_text), (4 bytes).
    Removing gd32f30x_exti.o(.revsh_text), (4 bytes).
    Removing gd32f30x_exti.o(.rrx_text), (6 bytes).
    Removing gd32f30x_exti.o(i._Z11exti_deinitv), (28 bytes).
    Removing gd32f30x_exti.o(i._Z13exti_flag_get14exti_line_enum), (24 bytes).
    Removing gd32f30x_exti.o(i._Z15exti_flag_clear14exti_line_enum), (12 bytes).
    Removing gd32f30x_exti.o(i._Z17exti_event_enable14exti_line_enum), (16 bytes).
    Removing gd32f30x_exti.o(i._Z18exti_event_disable14exti_line_enum), (16 bytes).
    Removing gd32f30x_exti.o(i._Z21exti_interrupt_enable14exti_line_enum), (16 bytes).
    Removing gd32f30x_exti.o(i._Z22exti_interrupt_disable14exti_line_enum), (16 bytes).
    Removing gd32f30x_exti.o(i._Z30exti_software_interrupt_enable14exti_line_enum), (16 bytes).
    Removing gd32f30x_exti.o(i._Z31exti_software_interrupt_disable14exti_line_enum), (16 bytes).
    Removing gd32f30x_exti.o(.ARM.exidx), (8 bytes).
    Removing gd32f30x_exti.o(.ARM.exidx), (8 bytes).
    Removing gd32f30x_exti.o(.ARM.exidx), (8 bytes).
    Removing gd32f30x_exti.o(.ARM.exidx), (8 bytes).
    Removing gd32f30x_exti.o(.ARM.exidx), (8 bytes).
    Removing gd32f30x_exti.o(.ARM.exidx), (8 bytes).
    Removing gd32f30x_exti.o(.ARM.exidx), (8 bytes).
    Removing gd32f30x_exti.o(.ARM.exidx), (8 bytes).
    Removing gd32f30x_exti.o(.ARM.exidx), (8 bytes).
    Removing gd32f30x_exti.o(.ARM.exidx), (8 bytes).
    Removing gd32f30x_exti.o(.ARM.exidx), (8 bytes).
    Removing gd32f30x_exti.o(.ARM.exidx), (8 bytes).
    Removing gd32f30x_fmc.o(.rev16_text), (4 bytes).
    Removing gd32f30x_fmc.o(.revsh_text), (4 bytes).
    Removing gd32f30x_fmc.o(.rrx_text), (6 bytes).
    Removing gd32f30x_fmc.o(i._Z10ob_spc_getv), (24 bytes).
    Removing gd32f30x_fmc.o(i._Z11ob_data_getv), (16 bytes).
    Removing gd32f30x_fmc.o(i._Z11ob_user_getv), (16 bytes).
    Removing gd32f30x_fmc.o(i._Z13fmc_wscnt_setj), (24 bytes).
    Removing gd32f30x_fmc.o(i._Z13ob_user_writehhhh), (96 bytes).
    Removing gd32f30x_fmc.o(i._Z14fmc_bank0_lockv), (20 bytes).
    Removing gd32f30x_fmc.o(i._Z14fmc_bank1_lockv), (20 bytes).
    Removing gd32f30x_fmc.o(i._Z14fmc_flag_clearj), (32 bytes).
    Removing gd32f30x_fmc.o(i._Z14fmc_mass_erasev), (196 bytes).
    Removing gd32f30x_fmc.o(i._Z15fmc_bank0_erasev), (68 bytes).
    Removing gd32f30x_fmc.o(i._Z15fmc_bank1_erasev), (68 bytes).
    Removing gd32f30x_fmc.o(i._Z15ob_data_programjh), (68 bytes).
    Removing gd32f30x_fmc.o(i._Z16fmc_bank0_unlockv), (36 bytes).
    Removing gd32f30x_fmc.o(i._Z16fmc_bank1_unlockv), (36 bytes).
    Removing gd32f30x_fmc.o(i._Z18fmc_word_reprogramjj), (244 bytes).
    Removing gd32f30x_fmc.o(i._Z20fmc_halfword_programjt), (192 bytes).
    Removing gd32f30x_fmc.o(i._Z20fmc_interrupt_enablej), (32 bytes).
    Removing gd32f30x_fmc.o(i._Z21fmc_interrupt_disablej), (32 bytes).
    Removing gd32f30x_fmc.o(i._Z22fmc_interrupt_flag_get23fmc_interrupt_flag_enum), (108 bytes).
    Removing gd32f30x_fmc.o(i._Z23ob_write_protection_getv), (12 bytes).
    Removing gd32f30x_fmc.o(i._Z24fmc_interrupt_flag_clear23fmc_interrupt_flag_enum), (32 bytes).
    Removing gd32f30x_fmc.o(i._Z26ob_write_protection_enablej), (168 bytes).
    Removing gd32f30x_fmc.o(i._Z29ob_security_protection_configh), (132 bytes).
    Removing gd32f30x_fmc.o(i._Z7ob_lockv), (20 bytes).
    Removing gd32f30x_fmc.o(i._Z8ob_erasev), (140 bytes).
    Removing gd32f30x_fmc.o(i._Z9ob_unlockv), (36 bytes).
    Removing gd32f30x_fmc.o(.ARM.exidx), (8 bytes).
    Removing gd32f30x_fmc.o(.ARM.exidx), (8 bytes).
    Removing gd32f30x_fmc.o(.ARM.exidx), (8 bytes).
    Removing gd32f30x_fmc.o(.ARM.exidx), (8 bytes).
    Removing gd32f30x_fmc.o(.ARM.exidx), (8 bytes).
    Removing gd32f30x_fmc.o(.ARM.exidx), (8 bytes).
    Removing gd32f30x_fmc.o(.ARM.exidx), (8 bytes).
    Removing gd32f30x_fmc.o(.ARM.exidx), (8 bytes).
    Removing gd32f30x_fmc.o(.ARM.exidx), (8 bytes).
    Removing gd32f30x_fmc.o(.ARM.exidx), (8 bytes).
    Removing gd32f30x_fmc.o(.ARM.exidx), (8 bytes).
    Removing gd32f30x_fmc.o(.ARM.exidx), (8 bytes).
    Removing gd32f30x_fmc.o(.ARM.exidx), (8 bytes).
    Removing gd32f30x_fmc.o(.ARM.exidx), (8 bytes).
    Removing gd32f30x_fmc.o(.ARM.exidx), (8 bytes).
    Removing gd32f30x_fmc.o(.ARM.exidx), (8 bytes).
    Removing gd32f30x_fmc.o(.ARM.exidx), (8 bytes).
    Removing gd32f30x_fmc.o(.ARM.exidx), (8 bytes).
    Removing gd32f30x_fmc.o(.ARM.exidx), (8 bytes).
    Removing gd32f30x_fmc.o(.ARM.exidx), (8 bytes).
    Removing gd32f30x_fmc.o(.ARM.exidx), (8 bytes).
    Removing gd32f30x_fmc.o(.ARM.exidx), (8 bytes).
    Removing gd32f30x_fmc.o(.ARM.exidx), (8 bytes).
    Removing gd32f30x_fmc.o(.ARM.exidx), (8 bytes).
    Removing gd32f30x_fmc.o(.ARM.exidx), (8 bytes).
    Removing gd32f30x_fmc.o(.ARM.exidx), (8 bytes).
    Removing gd32f30x_fmc.o(.ARM.exidx), (8 bytes).
    Removing gd32f30x_fmc.o(.ARM.exidx), (8 bytes).
    Removing gd32f30x_fmc.o(.ARM.exidx), (8 bytes).
    Removing gd32f30x_fmc.o(.ARM.exidx), (8 bytes).
    Removing gd32f30x_fmc.o(.ARM.exidx), (8 bytes).
    Removing gd32f30x_fmc.o(.ARM.exidx), (8 bytes).
    Removing gd32f30x_fmc.o(.ARM.exidx), (8 bytes).
    Removing gd32f30x_fmc.o(.ARM.exidx), (8 bytes).
    Removing gd32f30x_fmc.o(.ARM.exidx), (8 bytes).
    Removing gd32f30x_fwdgt.o(.rev16_text), (4 bytes).
    Removing gd32f30x_fwdgt.o(.revsh_text), (4 bytes).
    Removing gd32f30x_fwdgt.o(.rrx_text), (6 bytes).
    Removing gd32f30x_fwdgt.o(i._Z12fwdgt_configth), (104 bytes).
    Removing gd32f30x_fwdgt.o(i._Z12fwdgt_enablev), (16 bytes).
    Removing gd32f30x_fwdgt.o(i._Z14fwdgt_flag_gett), (24 bytes).
    Removing gd32f30x_fwdgt.o(i._Z18fwdgt_write_enablev), (16 bytes).
    Removing gd32f30x_fwdgt.o(i._Z19fwdgt_write_disablev), (12 bytes).
    Removing gd32f30x_fwdgt.o(i._Z20fwdgt_counter_reloadv), (16 bytes).
    Removing gd32f30x_fwdgt.o(.ARM.exidx), (8 bytes).
    Removing gd32f30x_fwdgt.o(.ARM.exidx), (8 bytes).
    Removing gd32f30x_fwdgt.o(.ARM.exidx), (8 bytes).
    Removing gd32f30x_fwdgt.o(.ARM.exidx), (8 bytes).
    Removing gd32f30x_fwdgt.o(.ARM.exidx), (8 bytes).
    Removing gd32f30x_fwdgt.o(.ARM.exidx), (8 bytes).
    Removing gd32f30x_gpio.o(.rev16_text), (4 bytes).
    Removing gd32f30x_gpio.o(.revsh_text), (4 bytes).
    Removing gd32f30x_gpio.o(.rrx_text), (6 bytes).
    Removing gd32f30x_gpio.o(i._Z11gpio_deinitj), (196 bytes).
    Removing gd32f30x_gpio.o(i._Z13gpio_pin_lockjj), (18 bytes).
    Removing gd32f30x_gpio.o(i._Z14gpio_bit_writejj10FlagStatus), (10 bytes).
    Removing gd32f30x_gpio.o(i._Z15gpio_port_writejt), (4 bytes).
    Removing gd32f30x_gpio.o(i._Z16gpio_afio_deinitv), (20 bytes).
    Removing gd32f30x_gpio.o(i._Z19gpio_input_port_getj), (8 bytes).
    Removing gd32f30x_gpio.o(i._Z19gpio_output_bit_getjj), (16 bytes).
    Removing gd32f30x_gpio.o(i._Z20gpio_output_port_getj), (8 bytes).
    Removing gd32f30x_gpio.o(i._Z24gpio_compensation_configj), (24 bytes).
    Removing gd32f30x_gpio.o(i._Z24gpio_event_output_confighh), (28 bytes).
    Removing gd32f30x_gpio.o(i._Z24gpio_event_output_enablev), (20 bytes).
    Removing gd32f30x_gpio.o(i._Z25gpio_event_output_disablev), (20 bytes).
    Removing gd32f30x_gpio.o(i._Z26gpio_compensation_flag_getv), (24 bytes).
    Removing gd32f30x_gpio.o(.ARM.exidx), (8 bytes).
    Removing gd32f30x_gpio.o(.ARM.exidx), (8 bytes).
    Removing gd32f30x_gpio.o(.ARM.exidx), (8 bytes).
    Removing gd32f30x_gpio.o(.ARM.exidx), (8 bytes).
    Removing gd32f30x_gpio.o(.ARM.exidx), (8 bytes).
    Removing gd32f30x_gpio.o(.ARM.exidx), (8 bytes).
    Removing gd32f30x_gpio.o(.ARM.exidx), (8 bytes).
    Removing gd32f30x_gpio.o(.ARM.exidx), (8 bytes).
    Removing gd32f30x_gpio.o(.ARM.exidx), (8 bytes).
    Removing gd32f30x_gpio.o(.ARM.exidx), (8 bytes).
    Removing gd32f30x_gpio.o(.ARM.exidx), (8 bytes).
    Removing gd32f30x_gpio.o(.ARM.exidx), (8 bytes).
    Removing gd32f30x_gpio.o(.ARM.exidx), (8 bytes).
    Removing gd32f30x_gpio.o(.ARM.exidx), (8 bytes).
    Removing gd32f30x_gpio.o(.ARM.exidx), (8 bytes).
    Removing gd32f30x_gpio.o(.ARM.exidx), (8 bytes).
    Removing gd32f30x_gpio.o(.ARM.exidx), (8 bytes).
    Removing gd32f30x_gpio.o(.ARM.exidx), (8 bytes).
    Removing gd32f30x_gpio.o(.ARM.exidx), (8 bytes).
    Removing gd32f30x_i2c.o(.rev16_text), (4 bytes).
    Removing gd32f30x_i2c.o(.revsh_text), (4 bytes).
    Removing gd32f30x_i2c.o(.rrx_text), (6 bytes).
    Removing gd32f30x_i2c.o(i._Z11i2c_disablej), (10 bytes).
    Removing gd32f30x_i2c.o(i._Z14i2c_dma_enablejj), (16 bytes).
    Removing gd32f30x_i2c.o(i._Z14i2c_flag_clearjj), (14 bytes).
    Removing gd32f30x_i2c.o(i._Z14i2c_pec_enablejj), (16 bytes).
    Removing gd32f30x_i2c.o(i._Z17i2c_pec_value_getj), (10 bytes).
    Removing gd32f30x_i2c.o(i._Z19i2c_dualaddr_enablejj), (24 bytes).
    Removing gd32f30x_i2c.o(i._Z20i2c_interrupt_enablejj), (8 bytes).
    Removing gd32f30x_i2c.o(i._Z20i2c_smbus_arp_enablejj), (16 bytes).
    Removing gd32f30x_i2c.o(i._Z21i2c_interrupt_disablejj), (8 bytes).
    Removing gd32f30x_i2c.o(i._Z21i2c_smbus_issue_alertjj), (16 bytes).
    Removing gd32f30x_i2c.o(i._Z21i2c_smbus_type_configjj), (24 bytes).
    Removing gd32f30x_i2c.o(i._Z22i2c_interrupt_flag_getjj), (94 bytes).
    Removing gd32f30x_i2c.o(i._Z23i2c_pec_transfer_enablejj), (16 bytes).
    Removing gd32f30x_i2c.o(i._Z24i2c_interrupt_flag_clearjj), (14 bytes).
    Removing gd32f30x_i2c.o(i._Z25i2c_software_reset_configjj), (16 bytes).
    Removing gd32f30x_i2c.o(i._Z26i2c_stretch_scl_low_configjj), (16 bytes).
    Removing gd32f30x_i2c.o(i._Z28i2c_dma_last_transfer_enablejj), (16 bytes).
    Removing gd32f30x_i2c.o(i._Z34i2c_slave_response_to_gcall_configjj), (16 bytes).
    Removing gd32f30x_i2c.o(.ARM.exidx), (8 bytes).
    Removing gd32f30x_i2c.o(.ARM.exidx), (8 bytes).
    Removing gd32f30x_i2c.o(.ARM.exidx), (8 bytes).
    Removing gd32f30x_i2c.o(.ARM.exidx), (8 bytes).
    Removing gd32f30x_i2c.o(.ARM.exidx), (8 bytes).
    Removing gd32f30x_i2c.o(.ARM.exidx), (8 bytes).
    Removing gd32f30x_i2c.o(.ARM.exidx), (8 bytes).
    Removing gd32f30x_i2c.o(.ARM.exidx), (8 bytes).
    Removing gd32f30x_i2c.o(.ARM.exidx), (8 bytes).
    Removing gd32f30x_i2c.o(.ARM.exidx), (8 bytes).
    Removing gd32f30x_i2c.o(.ARM.exidx), (8 bytes).
    Removing gd32f30x_i2c.o(.ARM.exidx), (8 bytes).
    Removing gd32f30x_i2c.o(.ARM.exidx), (8 bytes).
    Removing gd32f30x_i2c.o(.ARM.exidx), (8 bytes).
    Removing gd32f30x_i2c.o(.ARM.exidx), (8 bytes).
    Removing gd32f30x_i2c.o(.ARM.exidx), (8 bytes).
    Removing gd32f30x_i2c.o(.ARM.exidx), (8 bytes).
    Removing gd32f30x_i2c.o(.ARM.exidx), (8 bytes).
    Removing gd32f30x_i2c.o(.ARM.exidx), (8 bytes).
    Removing gd32f30x_i2c.o(.ARM.exidx), (8 bytes).
    Removing gd32f30x_i2c.o(.ARM.exidx), (8 bytes).
    Removing gd32f30x_i2c.o(.ARM.exidx), (8 bytes).
    Removing gd32f30x_i2c.o(.ARM.exidx), (8 bytes).
    Removing gd32f30x_i2c.o(.ARM.exidx), (8 bytes).
    Removing gd32f30x_i2c.o(.ARM.exidx), (8 bytes).
    Removing gd32f30x_i2c.o(.ARM.exidx), (8 bytes).
    Removing gd32f30x_i2c.o(.ARM.exidx), (8 bytes).
    Removing gd32f30x_i2c.o(.ARM.exidx), (8 bytes).
    Removing gd32f30x_i2c.o(.ARM.exidx), (8 bytes).
    Removing gd32f30x_i2c.o(.ARM.exidx), (8 bytes).
    Removing gd32f30x_misc.o(.rev16_text), (4 bytes).
    Removing gd32f30x_misc.o(.revsh_text), (4 bytes).
    Removing gd32f30x_misc.o(.rrx_text), (6 bytes).
    Removing gd32f30x_misc.o(i._Z16nvic_irq_disableh), (24 bytes).
    Removing gd32f30x_misc.o(i._Z19system_lowpower_seth), (16 bytes).
    Removing gd32f30x_misc.o(i._Z21system_lowpower_reseth), (16 bytes).
    Removing gd32f30x_misc.o(i._Z21systick_clksource_setj), (40 bytes).
    Removing gd32f30x_misc.o(.ARM.exidx), (8 bytes).
    Removing gd32f30x_misc.o(.ARM.exidx), (8 bytes).
    Removing gd32f30x_misc.o(.ARM.exidx), (8 bytes).
    Removing gd32f30x_misc.o(.ARM.exidx), (8 bytes).
    Removing gd32f30x_misc.o(.ARM.exidx), (8 bytes).
    Removing gd32f30x_misc.o(.ARM.exidx), (8 bytes).
    Removing gd32f30x_misc.o(.ARM.exidx), (8 bytes).
    Removing gd32f30x_pmu.o(.rev16_text), (4 bytes).
    Removing gd32f30x_pmu.o(.revsh_text), (4 bytes).
    Removing gd32f30x_pmu.o(.rrx_text), (6 bytes).
    Removing gd32f30x_pmu.o(i._Z10pmu_deinitv), (20 bytes).
    Removing gd32f30x_pmu.o(i._Z12pmu_flag_getj), (24 bytes).
    Removing gd32f30x_pmu.o(i._Z14pmu_flag_clearj), (48 bytes).
    Removing gd32f30x_pmu.o(i._Z14pmu_lvd_selectj), (48 bytes).
    Removing gd32f30x_pmu.o(i._Z15pmu_lvd_disablev), (20 bytes).
    Removing gd32f30x_pmu.o(i._Z16pmu_to_sleepmodeh), (28 bytes).
    Removing gd32f30x_pmu.o(i._Z18pmu_to_standbymodeh), (52 bytes).
    Removing gd32f30x_pmu.o(i._Z20pmu_to_deepsleepmodejh), (68 bytes).
    Removing gd32f30x_pmu.o(i._Z21pmu_ldo_output_selectj), (28 bytes).
    Removing gd32f30x_pmu.o(i._Z21pmu_wakeup_pin_enablev), (20 bytes).
    Removing gd32f30x_pmu.o(i._Z22pmu_wakeup_pin_disablev), (20 bytes).
    Removing gd32f30x_pmu.o(i._Z24pmu_backup_write_disablev), (20 bytes).
    Removing gd32f30x_pmu.o(i._Z25pmu_lowdriver_mode_enablev), (20 bytes).
    Removing gd32f30x_pmu.o(i._Z26pmu_highdriver_mode_enablev), (20 bytes).
    Removing gd32f30x_pmu.o(i._Z26pmu_lowdriver_mode_disablev), (20 bytes).
    Removing gd32f30x_pmu.o(i._Z26pmu_lowpower_driver_configj), (28 bytes).
    Removing gd32f30x_pmu.o(i._Z27pmu_highdriver_mode_disablev), (20 bytes).
    Removing gd32f30x_pmu.o(i._Z28pmu_highdriver_switch_selectj), (44 bytes).
    Removing gd32f30x_pmu.o(i._Z29pmu_normalpower_driver_configj), (28 bytes).
    Removing gd32f30x_pmu.o(.ARM.exidx), (8 bytes).
    Removing gd32f30x_pmu.o(.ARM.exidx), (8 bytes).
    Removing gd32f30x_pmu.o(.ARM.exidx), (8 bytes).
    Removing gd32f30x_pmu.o(.ARM.exidx), (8 bytes).
    Removing gd32f30x_pmu.o(.ARM.exidx), (8 bytes).
    Removing gd32f30x_pmu.o(.ARM.exidx), (8 bytes).
    Removing gd32f30x_pmu.o(.ARM.exidx), (8 bytes).
    Removing gd32f30x_pmu.o(.ARM.exidx), (8 bytes).
    Removing gd32f30x_pmu.o(.ARM.exidx), (8 bytes).
    Removing gd32f30x_pmu.o(.ARM.exidx), (8 bytes).
    Removing gd32f30x_pmu.o(.ARM.exidx), (8 bytes).
    Removing gd32f30x_pmu.o(.ARM.exidx), (8 bytes).
    Removing gd32f30x_pmu.o(.ARM.exidx), (8 bytes).
    Removing gd32f30x_pmu.o(.ARM.exidx), (8 bytes).
    Removing gd32f30x_pmu.o(.ARM.exidx), (8 bytes).
    Removing gd32f30x_pmu.o(.ARM.exidx), (8 bytes).
    Removing gd32f30x_pmu.o(.ARM.exidx), (8 bytes).
    Removing gd32f30x_pmu.o(.ARM.exidx), (8 bytes).
    Removing gd32f30x_pmu.o(.ARM.exidx), (8 bytes).
    Removing gd32f30x_pmu.o(.ARM.exidx), (8 bytes).
    Removing gd32f30x_rcu.o(.rev16_text), (4 bytes).
    Removing gd32f30x_rcu.o(.revsh_text), (4 bytes).
    Removing gd32f30x_rcu.o(.rrx_text), (6 bytes).
    Removing gd32f30x_rcu.o(i._Z10rcu_deinitv), (84 bytes).
    Removing gd32f30x_rcu.o(i._Z11rcu_osci_on18rcu_osci_type_enum), (32 bytes).
    Removing gd32f30x_rcu.o(i._Z12rcu_flag_get13rcu_flag_enum), (36 bytes).
    Removing gd32f30x_rcu.o(i._Z12rcu_osci_off18rcu_osci_type_enum), (32 bytes).
    Removing gd32f30x_rcu.o(i._Z14rcu_pll_configjj), (32 bytes).
    Removing gd32f30x_rcu.o(i._Z17rcu_ckout0_configj), (24 bytes).
    Removing gd32f30x_rcu.o(i._Z17rcu_predv0_configj), (32 bytes).
    Removing gd32f30x_rcu.o(i._Z18rcu_osci_stab_wait18rcu_osci_type_enum), (272 bytes).
    Removing gd32f30x_rcu.o(i._Z20rcu_ahb_clock_configj), (24 bytes).
    Removing gd32f30x_rcu.o(i._Z20rcu_interrupt_enable12rcu_int_enum), (32 bytes).
    Removing gd32f30x_rcu.o(i._Z20rcu_pllpresel_configj), (24 bytes).
    Removing gd32f30x_rcu.o(i._Z20rcu_usb_clock_configj), (24 bytes).
    Removing gd32f30x_rcu.o(i._Z21rcu_apb1_clock_configj), (24 bytes).
    Removing gd32f30x_rcu.o(i._Z21rcu_interrupt_disable12rcu_int_enum), (32 bytes).
    Removing gd32f30x_rcu.o(i._Z22rcu_ck48m_clock_configj), (28 bytes).
    Removing gd32f30x_rcu.o(i._Z22rcu_interrupt_flag_get17rcu_int_flag_enum), (36 bytes).
    Removing gd32f30x_rcu.o(i._Z24rcu_all_reset_flag_clearv), (20 bytes).
    Removing gd32f30x_rcu.o(i._Z24rcu_interrupt_flag_clear23rcu_int_flag_clear_enum), (32 bytes).
    Removing gd32f30x_rcu.o(i._Z24rcu_periph_clock_disable15rcu_periph_enum), (32 bytes).
    Removing gd32f30x_rcu.o(i._Z25rcu_deepsleep_voltage_setj), (16 bytes).
    Removing gd32f30x_rcu.o(i._Z26rcu_irc8m_adjust_value_setj), (28 bytes).
    Removing gd32f30x_rcu.o(i._Z27rcu_osci_bypass_mode_enable18rcu_osci_type_enum), (100 bytes).
    Removing gd32f30x_rcu.o(i._Z27rcu_system_clock_source_getv), (16 bytes).
    Removing gd32f30x_rcu.o(i._Z28rcu_osci_bypass_mode_disable18rcu_osci_type_enum), (100 bytes).
    Removing gd32f30x_rcu.o(i._Z29rcu_periph_clock_sleep_enable21rcu_periph_sleep_enum), (32 bytes).
    Removing gd32f30x_rcu.o(i._Z30rcu_hxtal_clock_monitor_enablev), (20 bytes).
    Removing gd32f30x_rcu.o(i._Z30rcu_periph_clock_sleep_disable21rcu_periph_sleep_enum), (32 bytes).
    Removing gd32f30x_rcu.o(i._Z30rcu_system_clock_source_configj), (24 bytes).
    Removing gd32f30x_rcu.o(i._Z31rcu_hxtal_clock_monitor_disablev), (20 bytes).
    Removing gd32f30x_rcu.o(i._Z33rcu_lxtal_drive_capability_configj), (24 bytes).
    Removing gd32f30x_rcu.o(.ARM.exidx), (8 bytes).
    Removing gd32f30x_rcu.o(.ARM.exidx), (8 bytes).
    Removing gd32f30x_rcu.o(.ARM.exidx), (8 bytes).
    Removing gd32f30x_rcu.o(.ARM.exidx), (8 bytes).
    Removing gd32f30x_rcu.o(.ARM.exidx), (8 bytes).
    Removing gd32f30x_rcu.o(.ARM.exidx), (8 bytes).
    Removing gd32f30x_rcu.o(.ARM.exidx), (8 bytes).
    Removing gd32f30x_rcu.o(.ARM.exidx), (8 bytes).
    Removing gd32f30x_rcu.o(.ARM.exidx), (8 bytes).
    Removing gd32f30x_rcu.o(.ARM.exidx), (8 bytes).
    Removing gd32f30x_rcu.o(.ARM.exidx), (8 bytes).
    Removing gd32f30x_rcu.o(.ARM.exidx), (8 bytes).
    Removing gd32f30x_rcu.o(.ARM.exidx), (8 bytes).
    Removing gd32f30x_rcu.o(.ARM.exidx), (8 bytes).
    Removing gd32f30x_rcu.o(.ARM.exidx), (8 bytes).
    Removing gd32f30x_rcu.o(.ARM.exidx), (8 bytes).
    Removing gd32f30x_rcu.o(.ARM.exidx), (8 bytes).
    Removing gd32f30x_rcu.o(.ARM.exidx), (8 bytes).
    Removing gd32f30x_rcu.o(.ARM.exidx), (8 bytes).
    Removing gd32f30x_rcu.o(.ARM.exidx), (8 bytes).
    Removing gd32f30x_rcu.o(.ARM.exidx), (8 bytes).
    Removing gd32f30x_rcu.o(.ARM.exidx), (8 bytes).
    Removing gd32f30x_rcu.o(.ARM.exidx), (8 bytes).
    Removing gd32f30x_rcu.o(.ARM.exidx), (8 bytes).
    Removing gd32f30x_rcu.o(.ARM.exidx), (8 bytes).
    Removing gd32f30x_rcu.o(.ARM.exidx), (8 bytes).
    Removing gd32f30x_rcu.o(.ARM.exidx), (8 bytes).
    Removing gd32f30x_rcu.o(.ARM.exidx), (8 bytes).
    Removing gd32f30x_rcu.o(.ARM.exidx), (8 bytes).
    Removing gd32f30x_rcu.o(.ARM.exidx), (8 bytes).
    Removing gd32f30x_rcu.o(.ARM.exidx), (8 bytes).
    Removing gd32f30x_rcu.o(.ARM.exidx), (8 bytes).
    Removing gd32f30x_rcu.o(.ARM.exidx), (8 bytes).
    Removing gd32f30x_rcu.o(.ARM.exidx), (8 bytes).
    Removing gd32f30x_rcu.o(.ARM.exidx), (8 bytes).
    Removing gd32f30x_rcu.o(.ARM.exidx), (8 bytes).
    Removing gd32f30x_rcu.o(.ARM.exidx), (8 bytes).
    Removing gd32f30x_rcu.o(.ARM.exidx), (8 bytes).
    Removing gd32f30x_rcu.o(.ARM.exidx), (8 bytes).
    Removing gd32f30x_rtc.o(.rev16_text), (4 bytes).
    Removing gd32f30x_rtc.o(.revsh_text), (4 bytes).
    Removing gd32f30x_rtc.o(.rrx_text), (6 bytes).
    Removing gd32f30x_rtc.o(i._Z12rtc_flag_getj), (24 bytes).
    Removing gd32f30x_rtc.o(i._Z14rtc_flag_clearj), (16 bytes).
    Removing gd32f30x_rtc.o(i._Z15rtc_divider_getv), (24 bytes).
    Removing gd32f30x_rtc.o(i._Z16rtc_alarm_configj), (32 bytes).
    Removing gd32f30x_rtc.o(i._Z20rtc_interrupt_enablej), (16 bytes).
    Removing gd32f30x_rtc.o(i._Z21rtc_interrupt_disablej), (16 bytes).
    Removing gd32f30x_rtc.o(.ARM.exidx), (8 bytes).
    Removing gd32f30x_rtc.o(.ARM.exidx), (8 bytes).
    Removing gd32f30x_rtc.o(.ARM.exidx), (8 bytes).
    Removing gd32f30x_rtc.o(.ARM.exidx), (8 bytes).
    Removing gd32f30x_rtc.o(.ARM.exidx), (8 bytes).
    Removing gd32f30x_rtc.o(.ARM.exidx), (8 bytes).
    Removing gd32f30x_rtc.o(.ARM.exidx), (8 bytes).
    Removing gd32f30x_rtc.o(.ARM.exidx), (8 bytes).
    Removing gd32f30x_rtc.o(.ARM.exidx), (8 bytes).
    Removing gd32f30x_rtc.o(.ARM.exidx), (8 bytes).
    Removing gd32f30x_rtc.o(.ARM.exidx), (8 bytes).
    Removing gd32f30x_rtc.o(.ARM.exidx), (8 bytes).
    Removing gd32f30x_rtc.o(.ARM.exidx), (8 bytes).
    Removing gd32f30x_sdio.o(.rev16_text), (4 bytes).
    Removing gd32f30x_sdio.o(.revsh_text), (4 bytes).
    Removing gd32f30x_sdio.o(.rrx_text), (6 bytes).
    Removing gd32f30x_sdio.o(i._Z11sdio_deinitv), (28 bytes).
    Removing gd32f30x_sdio.o(i._Z13sdio_flag_getj), (20 bytes).
    Removing gd32f30x_sdio.o(i._Z14sdio_data_readv), (12 bytes).
    Removing gd32f30x_sdio.o(i._Z15sdio_csm_enablev), (20 bytes).
    Removing gd32f30x_sdio.o(i._Z15sdio_data_writej), (12 bytes).
    Removing gd32f30x_sdio.o(i._Z15sdio_dma_enablev), (20 bytes).
    Removing gd32f30x_sdio.o(i._Z15sdio_dsm_enablev), (20 bytes).
    Removing gd32f30x_sdio.o(i._Z15sdio_flag_clearj), (12 bytes).
    Removing gd32f30x_sdio.o(i._Z16sdio_csm_disablev), (20 bytes).
    Removing gd32f30x_sdio.o(i._Z16sdio_data_configjjj), (52 bytes).
    Removing gd32f30x_sdio.o(i._Z16sdio_dma_disablev), (20 bytes).
    Removing gd32f30x_sdio.o(i._Z16sdio_dsm_disablev), (20 bytes).
    Removing gd32f30x_sdio.o(i._Z17sdio_bus_mode_setj), (28 bytes).
    Removing gd32f30x_sdio.o(i._Z17sdio_clock_configjjjt), (52 bytes).
    Removing gd32f30x_sdio.o(i._Z17sdio_clock_enablev), (20 bytes).
    Removing gd32f30x_sdio.o(i._Z17sdio_response_getj), (56 bytes).
    Removing gd32f30x_sdio.o(i._Z18sdio_clock_disablev), (20 bytes).
    Removing gd32f30x_sdio.o(i._Z18sdio_wait_type_setj), (28 bytes).
    Removing gd32f30x_sdio.o(i._Z19sdio_suspend_enablev), (20 bytes).
    Removing gd32f30x_sdio.o(i._Z20sdio_power_state_getv), (12 bytes).
    Removing gd32f30x_sdio.o(i._Z20sdio_power_state_setj), (12 bytes).
    Removing gd32f30x_sdio.o(i._Z20sdio_readwait_enablev), (20 bytes).
    Removing gd32f30x_sdio.o(i._Z20sdio_suspend_disablev), (20 bytes).
    Removing gd32f30x_sdio.o(i._Z21sdio_data_counter_getv), (12 bytes).
    Removing gd32f30x_sdio.o(i._Z21sdio_fifo_counter_getv), (12 bytes).
    Removing gd32f30x_sdio.o(i._Z21sdio_interrupt_enablej), (16 bytes).
    Removing gd32f30x_sdio.o(i._Z21sdio_operation_enablev), (20 bytes).
    Removing gd32f30x_sdio.o(i._Z21sdio_readwait_disablev), (20 bytes).
    Removing gd32f30x_sdio.o(i._Z22sdio_command_index_getv), (12 bytes).
    Removing gd32f30x_sdio.o(i._Z22sdio_interrupt_disablej), (16 bytes).
    Removing gd32f30x_sdio.o(i._Z22sdio_operation_disablev), (20 bytes).
    Removing gd32f30x_sdio.o(i._Z22sdio_readwait_type_setj), (40 bytes).
    Removing gd32f30x_sdio.o(i._Z23sdio_interrupt_flag_getj), (36 bytes).
    Removing gd32f30x_sdio.o(i._Z25sdio_ceata_command_enablev), (20 bytes).
    Removing gd32f30x_sdio.o(i._Z25sdio_data_transfer_configjj), (28 bytes).
    Removing gd32f30x_sdio.o(i._Z25sdio_interrupt_flag_clearj), (12 bytes).
    Removing gd32f30x_sdio.o(i._Z25sdio_stop_readwait_enablev), (20 bytes).
    Removing gd32f30x_sdio.o(i._Z26sdio_ceata_command_disablev), (20 bytes).
    Removing gd32f30x_sdio.o(i._Z26sdio_hardware_clock_enablev), (20 bytes).
    Removing gd32f30x_sdio.o(i._Z26sdio_stop_readwait_disablev), (20 bytes).
    Removing gd32f30x_sdio.o(i._Z27sdio_ceata_interrupt_enablev), (20 bytes).
    Removing gd32f30x_sdio.o(i._Z27sdio_hardware_clock_disablev), (20 bytes).
    Removing gd32f30x_sdio.o(i._Z28sdio_ceata_interrupt_disablev), (20 bytes).
    Removing gd32f30x_sdio.o(i._Z28sdio_command_response_configjjj), (44 bytes).
    Removing gd32f30x_sdio.o(i._Z36sdio_ceata_command_completion_enablev), (20 bytes).
    Removing gd32f30x_sdio.o(i._Z37sdio_ceata_command_completion_disablev), (20 bytes).
    Removing gd32f30x_sdio.o(.ARM.exidx), (8 bytes).
    Removing gd32f30x_sdio.o(.ARM.exidx), (8 bytes).
    Removing gd32f30x_sdio.o(.ARM.exidx), (8 bytes).
    Removing gd32f30x_sdio.o(.ARM.exidx), (8 bytes).
    Removing gd32f30x_sdio.o(.ARM.exidx), (8 bytes).
    Removing gd32f30x_sdio.o(.ARM.exidx), (8 bytes).
    Removing gd32f30x_sdio.o(.ARM.exidx), (8 bytes).
    Removing gd32f30x_sdio.o(.ARM.exidx), (8 bytes).
    Removing gd32f30x_sdio.o(.ARM.exidx), (8 bytes).
    Removing gd32f30x_sdio.o(.ARM.exidx), (8 bytes).
    Removing gd32f30x_sdio.o(.ARM.exidx), (8 bytes).
    Removing gd32f30x_sdio.o(.ARM.exidx), (8 bytes).
    Removing gd32f30x_sdio.o(.ARM.exidx), (8 bytes).
    Removing gd32f30x_sdio.o(.ARM.exidx), (8 bytes).
    Removing gd32f30x_sdio.o(.ARM.exidx), (8 bytes).
    Removing gd32f30x_sdio.o(.ARM.exidx), (8 bytes).
    Removing gd32f30x_sdio.o(.ARM.exidx), (8 bytes).
    Removing gd32f30x_sdio.o(.ARM.exidx), (8 bytes).
    Removing gd32f30x_sdio.o(.ARM.exidx), (8 bytes).
    Removing gd32f30x_sdio.o(.ARM.exidx), (8 bytes).
    Removing gd32f30x_sdio.o(.ARM.exidx), (8 bytes).
    Removing gd32f30x_sdio.o(.ARM.exidx), (8 bytes).
    Removing gd32f30x_sdio.o(.ARM.exidx), (8 bytes).
    Removing gd32f30x_sdio.o(.ARM.exidx), (8 bytes).
    Removing gd32f30x_sdio.o(.ARM.exidx), (8 bytes).
    Removing gd32f30x_sdio.o(.ARM.exidx), (8 bytes).
    Removing gd32f30x_sdio.o(.ARM.exidx), (8 bytes).
    Removing gd32f30x_sdio.o(.ARM.exidx), (8 bytes).
    Removing gd32f30x_sdio.o(.ARM.exidx), (8 bytes).
    Removing gd32f30x_sdio.o(.ARM.exidx), (8 bytes).
    Removing gd32f30x_sdio.o(.ARM.exidx), (8 bytes).
    Removing gd32f30x_sdio.o(.ARM.exidx), (8 bytes).
    Removing gd32f30x_sdio.o(.ARM.exidx), (8 bytes).
    Removing gd32f30x_sdio.o(.ARM.exidx), (8 bytes).
    Removing gd32f30x_sdio.o(.ARM.exidx), (8 bytes).
    Removing gd32f30x_sdio.o(.ARM.exidx), (8 bytes).
    Removing gd32f30x_sdio.o(.ARM.exidx), (8 bytes).
    Removing gd32f30x_sdio.o(.ARM.exidx), (8 bytes).
    Removing gd32f30x_sdio.o(.ARM.exidx), (8 bytes).
    Removing gd32f30x_sdio.o(.ARM.exidx), (8 bytes).
    Removing gd32f30x_sdio.o(.ARM.exidx), (8 bytes).
    Removing gd32f30x_sdio.o(.ARM.exidx), (8 bytes).
    Removing gd32f30x_sdio.o(.ARM.exidx), (8 bytes).
    Removing gd32f30x_sdio.o(.ARM.exidx), (8 bytes).
    Removing gd32f30x_sdio.o(.ARM.exidx), (8 bytes).
    Removing gd32f30x_sdio.o(.ARM.exidx), (8 bytes).
    Removing gd32f30x_spi.o(.rev16_text), (4 bytes).
    Removing gd32f30x_spi.o(.revsh_text), (4 bytes).
    Removing gd32f30x_spi.o(.rrx_text), (6 bytes).
    Removing gd32f30x_spi.o(i._Z10i2s_enablej), (10 bytes).
    Removing gd32f30x_spi.o(i._Z10spi_crc_onj), (10 bytes).
    Removing gd32f30x_spi.o(i._Z11i2s_disablej), (10 bytes).
    Removing gd32f30x_spi.o(i._Z11qspi_enablej), (14 bytes).
    Removing gd32f30x_spi.o(i._Z11spi_crc_getjh), (16 bytes).
    Removing gd32f30x_spi.o(i._Z11spi_crc_offj), (10 bytes).
    Removing gd32f30x_spi.o(i._Z11spi_disablej), (10 bytes).
    Removing gd32f30x_spi.o(i._Z12qspi_disablej), (14 bytes).
    Removing gd32f30x_spi.o(i._Z12spi_crc_nextj), (10 bytes).
    Removing gd32f30x_spi.o(i._Z14i2s_psc_configjjjj), (164 bytes).
    Removing gd32f30x_spi.o(i._Z14spi_dma_enablejh), (22 bytes).
    Removing gd32f30x_spi.o(i._Z14spi_i2s_deinitj), (88 bytes).
    Removing gd32f30x_spi.o(i._Z15spi_dma_disablejh), (22 bytes).
    Removing gd32f30x_spi.o(i._Z16qspi_read_enablej), (14 bytes).
    Removing gd32f30x_spi.o(i._Z17qspi_write_enablej), (14 bytes).
    Removing gd32f30x_spi.o(i._Z18spi_ti_mode_enablej), (10 bytes).
    Removing gd32f30x_spi.o(i._Z19spi_crc_error_clearj), (10 bytes).
    Removing gd32f30x_spi.o(i._Z19spi_ti_mode_disablej), (10 bytes).
    Removing gd32f30x_spi.o(i._Z20spi_i2s_data_receivej), (8 bytes).
    Removing gd32f30x_spi.o(i._Z20spi_nss_internal_lowj), (10 bytes).
    Removing gd32f30x_spi.o(i._Z20spi_nssp_mode_enablej), (10 bytes).
    Removing gd32f30x_spi.o(i._Z21spi_nss_internal_highj), (10 bytes).
    Removing gd32f30x_spi.o(i._Z21spi_nss_output_enablej), (10 bytes).
    Removing gd32f30x_spi.o(i._Z21spi_nssp_mode_disablej), (10 bytes).
    Removing gd32f30x_spi.o(i._Z22spi_crc_polynomial_getj), (8 bytes).
    Removing gd32f30x_spi.o(i._Z22spi_crc_polynomial_setjt), (12 bytes).
    Removing gd32f30x_spi.o(i._Z22spi_nss_output_disablej), (10 bytes).
    Removing gd32f30x_spi.o(i._Z23qspi_io23_output_enablej), (14 bytes).
    Removing gd32f30x_spi.o(i._Z24qspi_io23_output_disablej), (14 bytes).
    Removing gd32f30x_spi.o(i._Z24spi_i2s_interrupt_enablejh), (48 bytes).
    Removing gd32f30x_spi.o(i._Z25spi_i2s_interrupt_disablejh), (48 bytes).
    Removing gd32f30x_spi.o(i._Z26spi_i2s_interrupt_flag_getjh), (112 bytes).
    Removing gd32f30x_spi.o(i._Z32spi_i2s_data_frame_format_configjt), (16 bytes).
    Removing gd32f30x_spi.o(i._Z33spi_bidirectional_transfer_configjj), (26 bytes).
    Removing gd32f30x_spi.o(i._Z8i2s_initjjjj), (28 bytes).
    Removing gd32f30x_spi.o(.ARM.exidx), (8 bytes).
    Removing gd32f30x_spi.o(.ARM.exidx), (8 bytes).
    Removing gd32f30x_spi.o(.ARM.exidx), (8 bytes).
    Removing gd32f30x_spi.o(.ARM.exidx), (8 bytes).
    Removing gd32f30x_spi.o(.ARM.exidx), (8 bytes).
    Removing gd32f30x_spi.o(.ARM.exidx), (8 bytes).
    Removing gd32f30x_spi.o(.ARM.exidx), (8 bytes).
    Removing gd32f30x_spi.o(.ARM.exidx), (8 bytes).
    Removing gd32f30x_spi.o(.ARM.exidx), (8 bytes).
    Removing gd32f30x_spi.o(.ARM.exidx), (8 bytes).
    Removing gd32f30x_spi.o(.ARM.exidx), (8 bytes).
    Removing gd32f30x_spi.o(.ARM.exidx), (8 bytes).
    Removing gd32f30x_spi.o(.ARM.exidx), (8 bytes).
    Removing gd32f30x_spi.o(.ARM.exidx), (8 bytes).
    Removing gd32f30x_spi.o(.ARM.exidx), (8 bytes).
    Removing gd32f30x_spi.o(.ARM.exidx), (8 bytes).
    Removing gd32f30x_spi.o(.ARM.exidx), (8 bytes).
    Removing gd32f30x_spi.o(.ARM.exidx), (8 bytes).
    Removing gd32f30x_spi.o(.ARM.exidx), (8 bytes).
    Removing gd32f30x_spi.o(.ARM.exidx), (8 bytes).
    Removing gd32f30x_spi.o(.ARM.exidx), (8 bytes).
    Removing gd32f30x_spi.o(.ARM.exidx), (8 bytes).
    Removing gd32f30x_spi.o(.ARM.exidx), (8 bytes).
    Removing gd32f30x_spi.o(.ARM.exidx), (8 bytes).
    Removing gd32f30x_spi.o(.ARM.exidx), (8 bytes).
    Removing gd32f30x_spi.o(.ARM.exidx), (8 bytes).
    Removing gd32f30x_spi.o(.ARM.exidx), (8 bytes).
    Removing gd32f30x_spi.o(.ARM.exidx), (8 bytes).
    Removing gd32f30x_spi.o(.ARM.exidx), (8 bytes).
    Removing gd32f30x_spi.o(.ARM.exidx), (8 bytes).
    Removing gd32f30x_spi.o(.ARM.exidx), (8 bytes).
    Removing gd32f30x_spi.o(.ARM.exidx), (8 bytes).
    Removing gd32f30x_spi.o(.ARM.exidx), (8 bytes).
    Removing gd32f30x_spi.o(.ARM.exidx), (8 bytes).
    Removing gd32f30x_spi.o(.ARM.exidx), (8 bytes).
    Removing gd32f30x_spi.o(.ARM.exidx), (8 bytes).
    Removing gd32f30x_spi.o(.ARM.exidx), (8 bytes).
    Removing gd32f30x_spi.o(.ARM.exidx), (8 bytes).
    Removing gd32f30x_spi.o(.ARM.exidx), (8 bytes).
    Removing gd32f30x_timer.o(.rev16_text), (4 bytes).
    Removing gd32f30x_timer.o(.revsh_text), (4 bytes).
    Removing gd32f30x_timer.o(.rrx_text), (6 bytes).
    Removing gd32f30x_timer.o(i._Z14timer_flag_getjj), (16 bytes).
    Removing gd32f30x_timer.o(i._Z16timer_dma_enablejt), (8 bytes).
    Removing gd32f30x_timer.o(i._Z16timer_flag_clearjj), (8 bytes).
    Removing gd32f30x_timer.o(i._Z17timer_dma_disablejt), (8 bytes).
    Removing gd32f30x_timer.o(i._Z18timer_break_configjP28timer_break_parameter_struct), (30 bytes).
    Removing gd32f30x_timer.o(i._Z18timer_break_enablej), (10 bytes).
    Removing gd32f30x_timer.o(i._Z18timer_counter_readj), (8 bytes).
    Removing gd32f30x_timer.o(i._Z19timer_break_disablej), (10 bytes).
    Removing gd32f30x_timer.o(i._Z20timer_prescaler_readj), (10 bytes).
    Removing gd32f30x_timer.o(i._Z22timer_hall_mode_configjh), (26 bytes).
    Removing gd32f30x_timer.o(i._Z22timer_interrupt_enablejj), (8 bytes).
    Removing gd32f30x_timer.o(i._Z23timer_counter_alignmentjt), (16 bytes).
    Removing gd32f30x_timer.o(i._Z23timer_interrupt_disablejj), (8 bytes).
    Removing gd32f30x_timer.o(i._Z23timer_slave_mode_selectjj), (16 bytes).
    Removing gd32f30x_timer.o(i._Z24timer_interrupt_flag_getjj), (24 bytes).
    Removing gd32f30x_timer.o(i._Z25timer_dma_transfer_configjjj), (24 bytes).
    Removing gd32f30x_timer.o(i._Z25timer_update_event_enablej), (10 bytes).
    Removing gd32f30x_timer.o(i._Z26timer_counter_up_directionj), (10 bytes).
    Removing gd32f30x_timer.o(i._Z26timer_input_capture_configjtP25timer_ic_parameter_struct), (326 bytes).
    Removing gd32f30x_timer.o(i._Z26timer_interrupt_flag_clearjj), (8 bytes).
    Removing gd32f30x_timer.o(i._Z26timer_update_event_disablej), (10 bytes).
    Removing gd32f30x_timer.o(i._Z26timer_update_source_configjh), (26 bytes).
    Removing gd32f30x_timer.o(i._Z27timer_internal_clock_configj), (10 bytes).
    Removing gd32f30x_timer.o(i._Z28timer_counter_down_directionj), (10 bytes).
    Removing gd32f30x_timer.o(i._Z29timer_automatic_output_enablej), (10 bytes).
    Removing gd32f30x_timer.o(i._Z29timer_event_software_generatejt), (8 bytes).
    Removing gd32f30x_timer.o(i._Z29timer_external_trigger_configjjjj), (30 bytes).
    Removing gd32f30x_timer.o(i._Z29timer_repetition_value_configjt), (4 bytes).
    Removing gd32f30x_timer.o(i._Z30timer_automatic_output_disablej), (10 bytes).
    Removing gd32f30x_timer.o(i._Z30timer_input_pwm_capture_configjtP25timer_ic_parameter_struct), (356 bytes).
    Removing gd32f30x_timer.o(i._Z30timer_write_cc_register_configjt), (34 bytes).
    Removing gd32f30x_timer.o(i._Z31timer_auto_reload_shadow_enablej), (10 bytes).
    Removing gd32f30x_timer.o(i._Z33timer_channel_output_clear_configjtt), (90 bytes).
    Removing gd32f30x_timer.o(i._Z33timer_channel_output_state_configjtj), (92 bytes).
    Removing gd32f30x_timer.o(i._Z33timer_external_clock_mode0_configjjjj), (40 bytes).
    Removing gd32f30x_timer.o(i._Z33timer_external_clock_mode1_configjjjj), (32 bytes).
    Removing gd32f30x_timer.o(i._Z33timer_input_trigger_source_selectjj), (16 bytes).
    Removing gd32f30x_timer.o(i._Z34timer_external_clock_mode1_disablej), (10 bytes).
    Removing gd32f30x_timer.o(i._Z35timer_channel_control_shadow_configj11EventStatus), (24 bytes).
    Removing gd32f30x_timer.o(i._Z35timer_output_value_selection_configjt), (34 bytes).
    Removing gd32f30x_timer.o(i._Z36timer_channel_output_polarity_configjtt), (92 bytes).
    Removing gd32f30x_timer.o(i._Z36timer_quadrature_decoder_mode_configjjtt), (64 bytes).
    Removing gd32f30x_timer.o(i._Z39timer_channel_dma_request_source_selectjh), (26 bytes).
    Removing gd32f30x_timer.o(i._Z41timer_channel_capture_value_register_readjt), (42 bytes).
    Removing gd32f30x_timer.o(i._Z42timer_channel_control_shadow_update_configjh), (26 bytes).
    Removing gd32f30x_timer.o(i._Z44timer_channel_input_capture_prescaler_configjtt), (90 bytes).
    Removing gd32f30x_timer.o(i._Z47timer_channel_complementary_output_state_configjtt), (70 bytes).
    Removing gd32f30x_timer.o(i._Z47timer_external_trigger_as_external_clock_configjjtj), (164 bytes).
    Removing gd32f30x_timer.o(i._Z47timer_internal_trigger_as_external_clock_configjj), (32 bytes).
    Removing gd32f30x_timer.o(i._Z50timer_channel_complementary_output_polarity_configjtt), (70 bytes).
    Removing gd32f30x_timer.o(.ARM.exidx), (8 bytes).
    Removing gd32f30x_timer.o(.ARM.exidx), (8 bytes).
    Removing gd32f30x_timer.o(.ARM.exidx), (8 bytes).
    Removing gd32f30x_timer.o(.ARM.exidx), (8 bytes).
    Removing gd32f30x_timer.o(.ARM.exidx), (8 bytes).
    Removing gd32f30x_timer.o(.ARM.exidx), (8 bytes).
    Removing gd32f30x_timer.o(.ARM.exidx), (8 bytes).
    Removing gd32f30x_timer.o(.ARM.exidx), (8 bytes).
    Removing gd32f30x_timer.o(.ARM.exidx), (8 bytes).
    Removing gd32f30x_timer.o(.ARM.exidx), (8 bytes).
    Removing gd32f30x_timer.o(.ARM.exidx), (8 bytes).
    Removing gd32f30x_timer.o(.ARM.exidx), (8 bytes).
    Removing gd32f30x_timer.o(.ARM.exidx), (8 bytes).
    Removing gd32f30x_timer.o(.ARM.exidx), (8 bytes).
    Removing gd32f30x_timer.o(.ARM.exidx), (8 bytes).
    Removing gd32f30x_timer.o(.ARM.exidx), (8 bytes).
    Removing gd32f30x_timer.o(.ARM.exidx), (8 bytes).
    Removing gd32f30x_timer.o(.ARM.exidx), (8 bytes).
    Removing gd32f30x_timer.o(.ARM.exidx), (8 bytes).
    Removing gd32f30x_timer.o(.ARM.exidx), (8 bytes).
    Removing gd32f30x_timer.o(.ARM.exidx), (8 bytes).
    Removing gd32f30x_timer.o(.ARM.exidx), (8 bytes).
    Removing gd32f30x_timer.o(.ARM.exidx), (8 bytes).
    Removing gd32f30x_timer.o(.ARM.exidx), (8 bytes).
    Removing gd32f30x_timer.o(.ARM.exidx), (8 bytes).
    Removing gd32f30x_timer.o(.ARM.exidx), (8 bytes).
    Removing gd32f30x_timer.o(.ARM.exidx), (8 bytes).
    Removing gd32f30x_timer.o(.ARM.exidx), (8 bytes).
    Removing gd32f30x_timer.o(.ARM.exidx), (8 bytes).
    Removing gd32f30x_timer.o(.ARM.exidx), (8 bytes).
    Removing gd32f30x_timer.o(.ARM.exidx), (8 bytes).
    Removing gd32f30x_timer.o(.ARM.exidx), (8 bytes).
    Removing gd32f30x_timer.o(.ARM.exidx), (8 bytes).
    Removing gd32f30x_timer.o(.ARM.exidx), (8 bytes).
    Removing gd32f30x_timer.o(.ARM.exidx), (8 bytes).
    Removing gd32f30x_timer.o(.ARM.exidx), (8 bytes).
    Removing gd32f30x_timer.o(.ARM.exidx), (8 bytes).
    Removing gd32f30x_timer.o(.ARM.exidx), (8 bytes).
    Removing gd32f30x_timer.o(.ARM.exidx), (8 bytes).
    Removing gd32f30x_timer.o(.ARM.exidx), (8 bytes).
    Removing gd32f30x_timer.o(.ARM.exidx), (8 bytes).
    Removing gd32f30x_timer.o(.ARM.exidx), (8 bytes).
    Removing gd32f30x_timer.o(.ARM.exidx), (8 bytes).
    Removing gd32f30x_timer.o(.ARM.exidx), (8 bytes).
    Removing gd32f30x_timer.o(.ARM.exidx), (8 bytes).
    Removing gd32f30x_timer.o(.ARM.exidx), (8 bytes).
    Removing gd32f30x_timer.o(.ARM.exidx), (8 bytes).
    Removing gd32f30x_timer.o(.ARM.exidx), (8 bytes).
    Removing gd32f30x_timer.o(.ARM.exidx), (8 bytes).
    Removing gd32f30x_timer.o(.ARM.exidx), (8 bytes).
    Removing gd32f30x_timer.o(.ARM.exidx), (8 bytes).
    Removing gd32f30x_timer.o(.ARM.exidx), (8 bytes).
    Removing gd32f30x_timer.o(.ARM.exidx), (8 bytes).
    Removing gd32f30x_timer.o(.ARM.exidx), (8 bytes).
    Removing gd32f30x_timer.o(.ARM.exidx), (8 bytes).
    Removing gd32f30x_timer.o(.ARM.exidx), (8 bytes).
    Removing gd32f30x_timer.o(.ARM.exidx), (8 bytes).
    Removing gd32f30x_timer.o(.ARM.exidx), (8 bytes).
    Removing gd32f30x_timer.o(.ARM.exidx), (8 bytes).
    Removing gd32f30x_timer.o(.ARM.exidx), (8 bytes).
    Removing gd32f30x_timer.o(.ARM.exidx), (8 bytes).
    Removing gd32f30x_timer.o(.ARM.exidx), (8 bytes).
    Removing gd32f30x_timer.o(.ARM.exidx), (8 bytes).
    Removing gd32f30x_timer.o(.ARM.exidx), (8 bytes).
    Removing gd32f30x_timer.o(.ARM.exidx), (8 bytes).
    Removing gd32f30x_timer.o(.ARM.exidx), (8 bytes).
    Removing gd32f30x_timer.o(.ARM.exidx), (8 bytes).
    Removing gd32f30x_usart.o(.rev16_text), (4 bytes).
    Removing gd32f30x_usart.o(.revsh_text), (4 bytes).
    Removing gd32f30x_usart.o(.rrx_text), (6 bytes).
    Removing gd32f30x_usart.o(i._Z14usart_flag_getj15usart_flag_enum), (30 bytes).
    Removing gd32f30x_usart.o(i._Z16usart_flag_clearj15usart_flag_enum), (26 bytes).
    Removing gd32f30x_usart.o(i._Z16usart_send_breakj), (10 bytes).
    Removing gd32f30x_usart.o(i._Z19usart_invert_configj17usart_invert_enum), (104 bytes).
    Removing gd32f30x_usart.o(i._Z20usart_address_configjh), (20 bytes).
    Removing gd32f30x_usart.o(i._Z21usart_lin_mode_enablej), (10 bytes).
    Removing gd32f30x_usart.o(i._Z22usart_irda_mode_enablej), (10 bytes).
    Removing gd32f30x_usart.o(i._Z22usart_lin_mode_disablej), (10 bytes).
    Removing gd32f30x_usart.o(i._Z22usart_mute_mode_enablej), (10 bytes).
    Removing gd32f30x_usart.o(i._Z22usart_prescaler_configjh), (16 bytes).
    Removing gd32f30x_usart.o(i._Z23usart_guard_time_configjj), (24 bytes).
    Removing gd32f30x_usart.o(i._Z23usart_halfduplex_enablej), (10 bytes).
    Removing gd32f30x_usart.o(i._Z23usart_irda_mode_disablej), (10 bytes).
    Removing gd32f30x_usart.o(i._Z23usart_mute_mode_disablej), (10 bytes).
    Removing gd32f30x_usart.o(i._Z24usart_halfduplex_disablej), (10 bytes).
    Removing gd32f30x_usart.o(i._Z25usart_block_length_configjj), (28 bytes).
    Removing gd32f30x_usart.o(i._Z26usart_irda_lowpower_configjj), (20 bytes).
    Removing gd32f30x_usart.o(i._Z27usart_smartcard_mode_enablej), (10 bytes).
    Removing gd32f30x_usart.o(i._Z28usart_smartcard_mode_disablej), (10 bytes).
    Removing gd32f30x_usart.o(i._Z29usart_mute_mode_wakeup_configjj), (16 bytes).
    Removing gd32f30x_usart.o(i._Z29usart_receiver_timeout_enablej), (14 bytes).
    Removing gd32f30x_usart.o(i._Z30usart_hardware_flow_cts_configjj), (16 bytes).
    Removing gd32f30x_usart.o(i._Z30usart_hardware_flow_rts_configjj), (16 bytes).
    Removing gd32f30x_usart.o(i._Z30usart_receiver_timeout_disablej), (14 bytes).
    Removing gd32f30x_usart.o(i._Z30usart_synchronous_clock_configjjjj), (34 bytes).
    Removing gd32f30x_usart.o(i._Z30usart_synchronous_clock_enablej), (10 bytes).
    Removing gd32f30x_usart.o(i._Z31usart_synchronous_clock_disablej), (10 bytes).
    Removing gd32f30x_usart.o(i._Z32usart_smartcard_autoretry_configjj), (26 bytes).
    Removing gd32f30x_usart.o(i._Z32usart_smartcard_mode_nack_enablej), (10 bytes).
    Removing gd32f30x_usart.o(i._Z33usart_smartcard_mode_nack_disablej), (10 bytes).
    Removing gd32f30x_usart.o(i._Z39usart_lin_break_detection_length_configjj), (20 bytes).
    Removing gd32f30x_usart.o(i._Z39usart_receiver_timeout_threshold_configjj), (20 bytes).
    Removing gd32f30x_usart.o(.ARM.exidx), (8 bytes).
    Removing gd32f30x_usart.o(.ARM.exidx), (8 bytes).
    Removing gd32f30x_usart.o(.ARM.exidx), (8 bytes).
    Removing gd32f30x_usart.o(.ARM.exidx), (8 bytes).
    Removing gd32f30x_usart.o(.ARM.exidx), (8 bytes).
    Removing gd32f30x_usart.o(.ARM.exidx), (8 bytes).
    Removing gd32f30x_usart.o(.ARM.exidx), (8 bytes).
    Removing gd32f30x_usart.o(.ARM.exidx), (8 bytes).
    Removing gd32f30x_usart.o(.ARM.exidx), (8 bytes).
    Removing gd32f30x_usart.o(.ARM.exidx), (8 bytes).
    Removing gd32f30x_usart.o(.ARM.exidx), (8 bytes).
    Removing gd32f30x_usart.o(.ARM.exidx), (8 bytes).
    Removing gd32f30x_usart.o(.ARM.exidx), (8 bytes).
    Removing gd32f30x_usart.o(.ARM.exidx), (8 bytes).
    Removing gd32f30x_usart.o(.ARM.exidx), (8 bytes).
    Removing gd32f30x_usart.o(.ARM.exidx), (8 bytes).
    Removing gd32f30x_usart.o(.ARM.exidx), (8 bytes).
    Removing gd32f30x_usart.o(.ARM.exidx), (8 bytes).
    Removing gd32f30x_usart.o(.ARM.exidx), (8 bytes).
    Removing gd32f30x_usart.o(.ARM.exidx), (8 bytes).
    Removing gd32f30x_usart.o(.ARM.exidx), (8 bytes).
    Removing gd32f30x_usart.o(.ARM.exidx), (8 bytes).
    Removing gd32f30x_usart.o(.ARM.exidx), (8 bytes).
    Removing gd32f30x_usart.o(.ARM.exidx), (8 bytes).
    Removing gd32f30x_usart.o(.ARM.exidx), (8 bytes).
    Removing gd32f30x_usart.o(.ARM.exidx), (8 bytes).
    Removing gd32f30x_usart.o(.ARM.exidx), (8 bytes).
    Removing gd32f30x_usart.o(.ARM.exidx), (8 bytes).
    Removing gd32f30x_usart.o(.ARM.exidx), (8 bytes).
    Removing gd32f30x_usart.o(.ARM.exidx), (8 bytes).
    Removing gd32f30x_usart.o(.ARM.exidx), (8 bytes).
    Removing gd32f30x_usart.o(.ARM.exidx), (8 bytes).
    Removing gd32f30x_usart.o(.ARM.exidx), (8 bytes).
    Removing gd32f30x_usart.o(.ARM.exidx), (8 bytes).
    Removing gd32f30x_usart.o(.ARM.exidx), (8 bytes).
    Removing gd32f30x_usart.o(.ARM.exidx), (8 bytes).
    Removing gd32f30x_usart.o(.ARM.exidx), (8 bytes).
    Removing gd32f30x_usart.o(.ARM.exidx), (8 bytes).
    Removing gd32f30x_usart.o(.ARM.exidx), (8 bytes).
    Removing gd32f30x_usart.o(.ARM.exidx), (8 bytes).
    Removing gd32f30x_usart.o(.ARM.exidx), (8 bytes).
    Removing gd32f30x_usart.o(.ARM.exidx), (8 bytes).
    Removing gd32f30x_usart.o(.ARM.exidx), (8 bytes).
    Removing gd32f30x_usart.o(.ARM.exidx), (8 bytes).
    Removing gd32f30x_usart.o(.ARM.exidx), (8 bytes).
    Removing gd32f30x_usart.o(.ARM.exidx), (8 bytes).
    Removing gd32f30x_usart.o(.ARM.exidx), (8 bytes).
    Removing gd32f30x_usart.o(.ARM.exidx), (8 bytes).
    Removing gd32f30x_usart.o(.ARM.exidx), (8 bytes).
    Removing gd32f30x_usart.o(.ARM.exidx), (8 bytes).
    Removing gd32f30x_wwdgt.o(.rev16_text), (4 bytes).
    Removing gd32f30x_wwdgt.o(.revsh_text), (4 bytes).
    Removing gd32f30x_wwdgt.o(.rrx_text), (6 bytes).
    Removing gd32f30x_wwdgt.o(i._Z12wwdgt_configttj), (56 bytes).
    Removing gd32f30x_wwdgt.o(i._Z12wwdgt_deinitv), (20 bytes).
    Removing gd32f30x_wwdgt.o(i._Z12wwdgt_enablev), (20 bytes).
    Removing gd32f30x_wwdgt.o(i._Z14wwdgt_flag_getv), (24 bytes).
    Removing gd32f30x_wwdgt.o(i._Z16wwdgt_flag_clearv), (20 bytes).
    Removing gd32f30x_wwdgt.o(i._Z20wwdgt_counter_updatet), (28 bytes).
    Removing gd32f30x_wwdgt.o(i._Z22wwdgt_interrupt_enablev), (20 bytes).
    Removing gd32f30x_wwdgt.o(.ARM.exidx), (8 bytes).
    Removing gd32f30x_wwdgt.o(.ARM.exidx), (8 bytes).
    Removing gd32f30x_wwdgt.o(.ARM.exidx), (8 bytes).
    Removing gd32f30x_wwdgt.o(.ARM.exidx), (8 bytes).
    Removing gd32f30x_wwdgt.o(.ARM.exidx), (8 bytes).
    Removing gd32f30x_wwdgt.o(.ARM.exidx), (8 bytes).
    Removing gd32f30x_wwdgt.o(.ARM.exidx), (8 bytes).
    Removing system_gd32f30x.o(.rev16_text), (4 bytes).
    Removing system_gd32f30x.o(.revsh_text), (4 bytes).
    Removing system_gd32f30x.o(.rrx_text), (6 bytes).
    Removing system_gd32f30x.o(.ARM.exidx), (8 bytes).
    Removing system_gd32f30x.o(.ARM.exidx), (8 bytes).
    Removing system_gd32f30x.o(.ARM.exidx), (8 bytes).
    Removing system_gd32f30x.o(.ARM.exidx), (8 bytes).
    Removing slider.o(.ARM.exidx), (8 bytes).
    Removing slider.o(.ARM.exidx), (8 bytes).
    Removing clock.o(.ARM.exidx), (8 bytes).
    Removing clock.o(.ARM.exidx), (8 bytes).

1598 unused section(s) (total 35342 bytes) removed from the image.

==============================================================================

Image Symbol Table

    Local Symbols

    Symbol Name                              Value     Ov Type        Size  Object(Section)

    ../../../edgfe/lib_src/guard.c           0x00000000   Number         0  cxa_guard_release.o ABSOLUTE
    ../../../edgfe/lib_src/guard.c           0x00000000   Number         0  cxa_guard_acquire.o ABSOLUTE
    ../clib/angel/boardlib.s                 0x00000000   Number         0  boardinit3.o ABSOLUTE
    ../clib/angel/boardlib.s                 0x00000000   Number         0  boardinit1.o ABSOLUTE
    ../clib/angel/boardlib.s                 0x00000000   Number         0  boardinit2.o ABSOLUTE
    ../clib/angel/boardlib.s                 0x00000000   Number         0  boardshut.o ABSOLUTE
    ../clib/angel/handlers.s                 0x00000000   Number         0  __scatter_copy.o ABSOLUTE
    ../clib/angel/handlers.s                 0x00000000   Number         0  __scatter_zi.o ABSOLUTE
    ../clib/angel/kernel.s                   0x00000000   Number         0  __rtentry.o ABSOLUTE
    ../clib/angel/kernel.s                   0x00000000   Number         0  rtexit2.o ABSOLUTE
    ../clib/angel/kernel.s                   0x00000000   Number         0  rtexit.o ABSOLUTE
    ../clib/angel/kernel.s                   0x00000000   Number         0  __rtentry4.o ABSOLUTE
    ../clib/angel/kernel.s                   0x00000000   Number         0  __rtentry2.o ABSOLUTE
    ../clib/angel/rt.s                       0x00000000   Number         0  rt_raise.o ABSOLUTE
    ../clib/angel/rt.s                       0x00000000   Number         0  rt_errno_addr.o ABSOLUTE
    ../clib/angel/rt.s                       0x00000000   Number         0  rt_errno_addr_intlibspace.o ABSOLUTE
    ../clib/angel/scatter.s                  0x00000000   Number         0  __scatter.o ABSOLUTE
    ../clib/angel/startup.s                  0x00000000   Number         0  __main.o ABSOLUTE
    ../clib/angel/sys.s                      0x00000000   Number         0  sys_stackheap_outer.o ABSOLUTE
    ../clib/angel/sys.s                      0x00000000   Number         0  use_no_semi.o ABSOLUTE
    ../clib/angel/sys.s                      0x00000000   Number         0  indicate_semi.o ABSOLUTE
    ../clib/angel/sys.s                      0x00000000   Number         0  libspace.o ABSOLUTE
    ../clib/angel/sysapp.c                   0x00000000   Number         0  sys_exit.o ABSOLUTE
    ../clib/angel/sysapp.c                   0x00000000   Number         0  sys_wrch.o ABSOLUTE
    ../clib/angel/sysapp.c                   0x00000000   Number         0  sys_command.o ABSOLUTE
    ../clib/arm_runtime.c                    0x00000000   Number         0  init_aeabi.o ABSOLUTE
    ../clib/arm_runtime.c                    0x00000000   Number         0  init_aeabi.o ABSOLUTE
    ../clib/armsys.c                         0x00000000   Number         0  _get_argv_nomalloc.o ABSOLUTE
    ../clib/armsys.c                         0x00000000   Number         0  argv_veneer.o ABSOLUTE
    ../clib/armsys.c                         0x00000000   Number         0  argv_veneer.o ABSOLUTE
    ../clib/armsys.c                         0x00000000   Number         0  no_argv.o ABSOLUTE
    ../clib/fenv.c                           0x00000000   Number         0  _rserrno.o ABSOLUTE
    ../clib/heapalloc.c                      0x00000000   Number         0  hrguard.o ABSOLUTE
    ../clib/heapaux.c                        0x00000000   Number         0  heapauxi.o ABSOLUTE
    ../clib/libinit.s                        0x00000000   Number         0  libinit2.o ABSOLUTE
    ../clib/libinit.s                        0x00000000   Number         0  libshutdown.o ABSOLUTE
    ../clib/libinit.s                        0x00000000   Number         0  libshutdown2.o ABSOLUTE
    ../clib/libinit.s                        0x00000000   Number         0  libinit.o ABSOLUTE
    ../clib/memcpset.s                       0x00000000   Number         0  rt_memcpy_w.o ABSOLUTE
    ../clib/signal.c                         0x00000000   Number         0  defsig_other.o ABSOLUTE
    ../clib/signal.c                         0x00000000   Number         0  defsig_rtmem_outer.o ABSOLUTE
    ../clib/signal.c                         0x00000000   Number         0  defsig_rtmem_formal.o ABSOLUTE
    ../clib/signal.c                         0x00000000   Number         0  defsig_general.o ABSOLUTE
    ../clib/signal.c                         0x00000000   Number         0  defsig_abrt_inner.o ABSOLUTE
    ../clib/signal.c                         0x00000000   Number         0  __raise.o ABSOLUTE
    ../clib/signal.c                         0x00000000   Number         0  defsig_rtmem_inner.o ABSOLUTE
    ../clib/signal.c                         0x00000000   Number         0  defsig_exit.o ABSOLUTE
    ../clib/signal.c                         0x00000000   Number         0  defsig_fpe_inner.o ABSOLUTE
    ../clib/signal.c                         0x00000000   Number         0  defsig_segv_inner.o ABSOLUTE
    ../clib/signal.c                         0x00000000   Number         0  defsig_stak_inner.o ABSOLUTE
    ../clib/signal.c                         0x00000000   Number         0  defsig_rtred_inner.o ABSOLUTE
    ../clib/signal.c                         0x00000000   Number         0  defsig_pvfn_inner.o ABSOLUTE
    ../clib/signal.c                         0x00000000   Number         0  defsig_cppl_inner.o ABSOLUTE
    ../clib/signal.s                         0x00000000   Number         0  defsig.o ABSOLUTE
    ../clib/stdlib.c                         0x00000000   Number         0  exit.o ABSOLUTE
    ../clib/string.c                         0x00000000   Number         0  strncat.o ABSOLUTE
    ../fplib/basic.s                         0x00000000   Number         0  basic.o ABSOLUTE
    ../fplib/d2f.s                           0x00000000   Number         0  d2f.o ABSOLUTE
    ../fplib/daddsub.s                       0x00000000   Number         0  daddsub_clz.o ABSOLUTE
    ../fplib/dcmpi.s                         0x00000000   Number         0  dcmpi.o ABSOLUTE
    ../fplib/ddiv.s                          0x00000000   Number         0  ddiv.o ABSOLUTE
    ../fplib/dfix.s                          0x00000000   Number         0  dfix.o ABSOLUTE
    ../fplib/dfixu.s                         0x00000000   Number         0  dfixu.o ABSOLUTE
    ../fplib/dflt.s                          0x00000000   Number         0  dflt_clz.o ABSOLUTE
    ../fplib/dleqf.s                         0x00000000   Number         0  dleqf.o ABSOLUTE
    ../fplib/dmul.s                          0x00000000   Number         0  dmul.o ABSOLUTE
    ../fplib/dnaninf.s                       0x00000000   Number         0  dnaninf.o ABSOLUTE
    ../fplib/dretinf.s                       0x00000000   Number         0  dretinf.o ABSOLUTE
    ../fplib/drleqf.s                        0x00000000   Number         0  drleqf.o ABSOLUTE
    ../fplib/f2d.s                           0x00000000   Number         0  f2d.o ABSOLUTE
    ../fplib/fnaninf.s                       0x00000000   Number         0  fnaninf.o ABSOLUTE
    ../fplib/fpinit.s                        0x00000000   Number         0  fpinit.o ABSOLUTE
    ../fplib/fretinf.s                       0x00000000   Number         0  fretinf.o ABSOLUTE
    ../fplib/istatus.s                       0x00000000   Number         0  istatus.o ABSOLUTE
    ../fplib/usenofp.s                       0x00000000   Number         0  usenofp.o ABSOLUTE
    ../mathlib/cos.c                         0x00000000   Number         0  cos_x.o ABSOLUTE
    ../mathlib/cos.c                         0x00000000   Number         0  cos.o ABSOLUTE
    ../mathlib/cos_i.c                       0x00000000   Number         0  cos_i.o ABSOLUTE
    ../mathlib/cosf.c                        0x00000000   Number         0  cosf.o ABSOLUTE
    ../mathlib/cosf.c                        0x00000000   Number         0  cosf_x.o ABSOLUTE
    ../mathlib/dunder.c                      0x00000000   Number         0  dunder.o ABSOLUTE
    ../mathlib/fabs.c                        0x00000000   Number         0  fabs.o ABSOLUTE
    ../mathlib/fpclassify.c                  0x00000000   Number         0  fpclassify.o ABSOLUTE
    ../mathlib/fpclassifyf.c                 0x00000000   Number         0  fpclassifyf.o ABSOLUTE
    ../mathlib/funder.c                      0x00000000   Number         0  funder.o ABSOLUTE
    ../mathlib/logf.c                        0x00000000   Number         0  logf_x.o ABSOLUTE
    ../mathlib/logf.c                        0x00000000   Number         0  logf.o ABSOLUTE
    ../mathlib/poly.c                        0x00000000   Number         0  poly.o ABSOLUTE
    ../mathlib/powf.c                        0x00000000   Number         0  powf_x.o ABSOLUTE
    ../mathlib/powf.c                        0x00000000   Number         0  powf.o ABSOLUTE
    ../mathlib/rred.c                        0x00000000   Number         0  rred.o ABSOLUTE
    ../mathlib/rredf.c                       0x00000000   Number         0  rredf.o ABSOLUTE
    ../mathlib/sin.c                         0x00000000   Number         0  sin.o ABSOLUTE
    ../mathlib/sin.c                         0x00000000   Number         0  sin_x.o ABSOLUTE
    ../mathlib/sin_i.c                       0x00000000   Number         0  sin_i_x.o ABSOLUTE
    ../mathlib/sin_i.c                       0x00000000   Number         0  sin_i.o ABSOLUTE
    ../mathlib/sinf.c                        0x00000000   Number         0  sinf.o ABSOLUTE
    ../mathlib/sinf.c                        0x00000000   Number         0  sinf_x.o ABSOLUTE
    ../mathlib/sqrtf.c                       0x00000000   Number         0  sqrtf.o ABSOLUTE
    ../mathlib/sqrtf.c                       0x00000000   Number         0  sqrtf_x.o ABSOLUTE
    RTE\Device\GD32F303CC\gd32f30x_adc.c     0x00000000   Number         0  gd32f30x_adc.o ABSOLUTE
    RTE\Device\GD32F303CC\gd32f30x_bkp.c     0x00000000   Number         0  gd32f30x_bkp.o ABSOLUTE
    RTE\Device\GD32F303CC\gd32f30x_crc.c     0x00000000   Number         0  gd32f30x_crc.o ABSOLUTE
    RTE\Device\GD32F303CC\gd32f30x_ctc.c     0x00000000   Number         0  gd32f30x_ctc.o ABSOLUTE
    RTE\Device\GD32F303CC\gd32f30x_dac.c     0x00000000   Number         0  gd32f30x_dac.o ABSOLUTE
    RTE\Device\GD32F303CC\gd32f30x_dbg.c     0x00000000   Number         0  gd32f30x_dbg.o ABSOLUTE
    RTE\Device\GD32F303CC\gd32f30x_dma.c     0x00000000   Number         0  gd32f30x_dma.o ABSOLUTE
    RTE\Device\GD32F303CC\gd32f30x_enet.c    0x00000000   Number         0  gd32f30x_enet.o ABSOLUTE
    RTE\Device\GD32F303CC\gd32f30x_exmc.c    0x00000000   Number         0  gd32f30x_exmc.o ABSOLUTE
    RTE\Device\GD32F303CC\gd32f30x_exti.c    0x00000000   Number         0  gd32f30x_exti.o ABSOLUTE
    RTE\Device\GD32F303CC\gd32f30x_fmc.c     0x00000000   Number         0  gd32f30x_fmc.o ABSOLUTE
    RTE\Device\GD32F303CC\gd32f30x_fwdgt.c   0x00000000   Number         0  gd32f30x_fwdgt.o ABSOLUTE
    RTE\Device\GD32F303CC\gd32f30x_gpio.c    0x00000000   Number         0  gd32f30x_gpio.o ABSOLUTE
    RTE\Device\GD32F303CC\gd32f30x_i2c.c     0x00000000   Number         0  gd32f30x_i2c.o ABSOLUTE
    RTE\Device\GD32F303CC\gd32f30x_misc.c    0x00000000   Number         0  gd32f30x_misc.o ABSOLUTE
    RTE\Device\GD32F303CC\gd32f30x_pmu.c     0x00000000   Number         0  gd32f30x_pmu.o ABSOLUTE
    RTE\Device\GD32F303CC\gd32f30x_rcu.c     0x00000000   Number         0  gd32f30x_rcu.o ABSOLUTE
    RTE\Device\GD32F303CC\gd32f30x_rtc.c     0x00000000   Number         0  gd32f30x_rtc.o ABSOLUTE
    RTE\Device\GD32F303CC\gd32f30x_sdio.c    0x00000000   Number         0  gd32f30x_sdio.o ABSOLUTE
    RTE\Device\GD32F303CC\gd32f30x_spi.c     0x00000000   Number         0  gd32f30x_spi.o ABSOLUTE
    RTE\Device\GD32F303CC\gd32f30x_timer.c   0x00000000   Number         0  gd32f30x_timer.o ABSOLUTE
    RTE\Device\GD32F303CC\gd32f30x_usart.c   0x00000000   Number         0  gd32f30x_usart.o ABSOLUTE
    RTE\Device\GD32F303CC\gd32f30x_wwdgt.c   0x00000000   Number         0  gd32f30x_wwdgt.o ABSOLUTE
    RTE\Device\GD32F303CC\startup_gd32f30x_hd.s 0x00000000   Number         0  startup_gd32f30x_hd.o ABSOLUTE
    RTE\Device\GD32F303CC\system_gd32f30x.c  0x00000000   Number         0  system_gd32f30x.o ABSOLUTE
    RTE\\Device\\GD32F303CC\\gd32f30x_adc.c  0x00000000   Number         0  gd32f30x_adc.o ABSOLUTE
    RTE\\Device\\GD32F303CC\\gd32f30x_bkp.c  0x00000000   Number         0  gd32f30x_bkp.o ABSOLUTE
    RTE\\Device\\GD32F303CC\\gd32f30x_crc.c  0x00000000   Number         0  gd32f30x_crc.o ABSOLUTE
    RTE\\Device\\GD32F303CC\\gd32f30x_ctc.c  0x00000000   Number         0  gd32f30x_ctc.o ABSOLUTE
    RTE\\Device\\GD32F303CC\\gd32f30x_dac.c  0x00000000   Number         0  gd32f30x_dac.o ABSOLUTE
    RTE\\Device\\GD32F303CC\\gd32f30x_dbg.c  0x00000000   Number         0  gd32f30x_dbg.o ABSOLUTE
    RTE\\Device\\GD32F303CC\\gd32f30x_dma.c  0x00000000   Number         0  gd32f30x_dma.o ABSOLUTE
    RTE\\Device\\GD32F303CC\\gd32f30x_enet.c 0x00000000   Number         0  gd32f30x_enet.o ABSOLUTE
    RTE\\Device\\GD32F303CC\\gd32f30x_exmc.c 0x00000000   Number         0  gd32f30x_exmc.o ABSOLUTE
    RTE\\Device\\GD32F303CC\\gd32f30x_exti.c 0x00000000   Number         0  gd32f30x_exti.o ABSOLUTE
    RTE\\Device\\GD32F303CC\\gd32f30x_fmc.c  0x00000000   Number         0  gd32f30x_fmc.o ABSOLUTE
    RTE\\Device\\GD32F303CC\\gd32f30x_fwdgt.c 0x00000000   Number         0  gd32f30x_fwdgt.o ABSOLUTE
    RTE\\Device\\GD32F303CC\\gd32f30x_gpio.c 0x00000000   Number         0  gd32f30x_gpio.o ABSOLUTE
    RTE\\Device\\GD32F303CC\\gd32f30x_i2c.c  0x00000000   Number         0  gd32f30x_i2c.o ABSOLUTE
    RTE\\Device\\GD32F303CC\\gd32f30x_misc.c 0x00000000   Number         0  gd32f30x_misc.o ABSOLUTE
    RTE\\Device\\GD32F303CC\\gd32f30x_pmu.c  0x00000000   Number         0  gd32f30x_pmu.o ABSOLUTE
    RTE\\Device\\GD32F303CC\\gd32f30x_rcu.c  0x00000000   Number         0  gd32f30x_rcu.o ABSOLUTE
    RTE\\Device\\GD32F303CC\\gd32f30x_rtc.c  0x00000000   Number         0  gd32f30x_rtc.o ABSOLUTE
    RTE\\Device\\GD32F303CC\\gd32f30x_sdio.c 0x00000000   Number         0  gd32f30x_sdio.o ABSOLUTE
    RTE\\Device\\GD32F303CC\\gd32f30x_spi.c  0x00000000   Number         0  gd32f30x_spi.o ABSOLUTE
    RTE\\Device\\GD32F303CC\\gd32f30x_timer.c 0x00000000   Number         0  gd32f30x_timer.o ABSOLUTE
    RTE\\Device\\GD32F303CC\\gd32f30x_usart.c 0x00000000   Number         0  gd32f30x_usart.o ABSOLUTE
    RTE\\Device\\GD32F303CC\\gd32f30x_wwdgt.c 0x00000000   Number         0  gd32f30x_wwdgt.o ABSOLUTE
    RTE\\Device\\GD32F303CC\\system_gd32f30x.c 0x00000000   Number         0  system_gd32f30x.o ABSOLUTE
    User\Activity\About\about.cpp            0x00000000   Number         0  about.o ABSOLUTE
    User\Activity\Error\error.cpp            0x00000000   Number         0  error.o ABSOLUTE
    User\Activity\Search\search.cpp          0x00000000   Number         0  search.o ABSOLUTE
    User\Activity\Setup clock\setup_clock.cpp 0x00000000   Number         0  setup_clock.o ABSOLUTE
    User\Activity\Setup\setup.cpp            0x00000000   Number         0  setup.o ABSOLUTE
    User\Activity\Sleep\sleep.cpp            0x00000000   Number         0  sleep.o ABSOLUTE
    User\Activity\Start timers\start_timers.cpp 0x00000000   Number         0  start_timers.o ABSOLUTE
    User\Activity\System\system.cpp          0x00000000   Number         0  system.o ABSOLUTE
    User\Can\can.cpp                         0x00000000   Number         0  can.o ABSOLUTE
    User\Can\gd32f30x_can.c                  0x00000000   Number         0  gd32f30x_can.o ABSOLUTE
    User\Can\pgn_rvc.cpp                     0x00000000   Number         0  pgn_rvc.o ABSOLUTE
    User\Can\rvc.cpp                         0x00000000   Number         0  rvc.o ABSOLUTE
    User\Canvas\canvas.cpp                   0x00000000   Number         0  canvas.o ABSOLUTE
    User\Display\display.cpp                 0x00000000   Number         0  display.o ABSOLUTE
    User\Font\font.c                         0x00000000   Number         0  font.o ABSOLUTE
    User\Main\core.cpp                       0x00000000   Number         0  core.o ABSOLUTE
    User\Main\hcu.cpp                        0x00000000   Number         0  hcu.o ABSOLUTE
    User\Main\main.cpp                       0x00000000   Number         0  main.o ABSOLUTE
    User\Main\usart.cpp                      0x00000000   Number         0  usart.o ABSOLUTE
    User\Memory\memory.cpp                   0x00000000   Number         0  memory.o ABSOLUTE
    User\Objects\Checkbox\checkbox.cpp       0x00000000   Number         0  checkbox.o ABSOLUTE
    User\Objects\Clock\clock.cpp             0x00000000   Number         0  clock.o ABSOLUTE
    User\Objects\Slider\slider.cpp           0x00000000   Number         0  slider.o ABSOLUTE
    User\Objects\Start timer\start_timer.cpp 0x00000000   Number         0  start_timer.o ABSOLUTE
    User\Sensor\sensor.cpp                   0x00000000   Number         0  sensor.o ABSOLUTE
    User\Temperature\temperature.cpp         0x00000000   Number         0  temperature.o ABSOLUTE
    User\Text\text.cpp                       0x00000000   Number         0  text.o ABSOLUTE
    User\Time\unix_time.cpp                  0x00000000   Number         0  unix_time.o ABSOLUTE
    User\\Activity\\About\\about.cpp         0x00000000   Number         0  about.o ABSOLUTE
    User\\Activity\\Error\\error.cpp         0x00000000   Number         0  error.o ABSOLUTE
    User\\Activity\\Search\\search.cpp       0x00000000   Number         0  search.o ABSOLUTE
    User\\Activity\\Setup clock\\setup_clock.cpp 0x00000000   Number         0  setup_clock.o ABSOLUTE
    User\\Activity\\Setup\\setup.cpp         0x00000000   Number         0  setup.o ABSOLUTE
    User\\Activity\\Sleep\\sleep.cpp         0x00000000   Number         0  sleep.o ABSOLUTE
    User\\Activity\\Start timers\\start_timers.cpp 0x00000000   Number         0  start_timers.o ABSOLUTE
    User\\Activity\\System\\system.cpp       0x00000000   Number         0  system.o ABSOLUTE
    User\\Can\\can.cpp                       0x00000000   Number         0  can.o ABSOLUTE
    User\\Can\\gd32f30x_can.c                0x00000000   Number         0  gd32f30x_can.o ABSOLUTE
    User\\Can\\pgn_rvc.cpp                   0x00000000   Number         0  pgn_rvc.o ABSOLUTE
    User\\Can\\rvc.cpp                       0x00000000   Number         0  rvc.o ABSOLUTE
    User\\Canvas\\canvas.cpp                 0x00000000   Number         0  canvas.o ABSOLUTE
    User\\Display\\display.cpp               0x00000000   Number         0  display.o ABSOLUTE
    User\\Main\\core.cpp                     0x00000000   Number         0  core.o ABSOLUTE
    User\\Main\\hcu.cpp                      0x00000000   Number         0  hcu.o ABSOLUTE
    User\\Main\\main.cpp                     0x00000000   Number         0  main.o ABSOLUTE
    User\\Main\\usart.cpp                    0x00000000   Number         0  usart.o ABSOLUTE
    User\\Memory\\memory.cpp                 0x00000000   Number         0  memory.o ABSOLUTE
    User\\Objects\\Checkbox\\checkbox.cpp    0x00000000   Number         0  checkbox.o ABSOLUTE
    User\\Objects\\Clock\\clock.cpp          0x00000000   Number         0  clock.o ABSOLUTE
    User\\Objects\\Slider\\slider.cpp        0x00000000   Number         0  slider.o ABSOLUTE
    User\\Objects\\Start timer\\start_timer.cpp 0x00000000   Number         0  start_timer.o ABSOLUTE
    User\\Sensor\\sensor.cpp                 0x00000000   Number         0  sensor.o ABSOLUTE
    User\\Temperature\\temperature.cpp       0x00000000   Number         0  temperature.o ABSOLUTE
    User\\Text\\text.cpp                     0x00000000   Number         0  text.o ABSOLUTE
    User\\Time\\unix_time.cpp                0x00000000   Number         0  unix_time.o ABSOLUTE
    dc.s                                     0x00000000   Number         0  dc.o ABSOLUTE
    RESET                                    0x0800c000   Section      304  startup_gd32f30x_hd.o(RESET)
    !!!main                                  0x0800c130   Section        8  __main.o(!!!main)
    !!!scatter                               0x0800c138   Section       52  __scatter.o(!!!scatter)
    !!handler_copy                           0x0800c16c   Section       26  __scatter_copy.o(!!handler_copy)
    !!handler_zi                             0x0800c188   Section       28  __scatter_zi.o(!!handler_zi)
    .ARM.Collect$$libinit$$00000000          0x0800c1a4   Section        2  libinit.o(.ARM.Collect$$libinit$$00000000)
    .ARM.Collect$$libinit$$00000001          0x0800c1a6   Section        4  libinit2.o(.ARM.Collect$$libinit$$00000001)
    .ARM.Collect$$libinit$$00000004          0x0800c1aa   Section        0  libinit2.o(.ARM.Collect$$libinit$$00000004)
    .ARM.Collect$$libinit$$0000000A          0x0800c1aa   Section        0  libinit2.o(.ARM.Collect$$libinit$$0000000A)
    .ARM.Collect$$libinit$$0000000C          0x0800c1aa   Section        0  libinit2.o(.ARM.Collect$$libinit$$0000000C)
    .ARM.Collect$$libinit$$0000000E          0x0800c1aa   Section        0  libinit2.o(.ARM.Collect$$libinit$$0000000E)
    .ARM.Collect$$libinit$$00000011          0x0800c1aa   Section        0  libinit2.o(.ARM.Collect$$libinit$$00000011)
    .ARM.Collect$$libinit$$00000013          0x0800c1aa   Section        0  libinit2.o(.ARM.Collect$$libinit$$00000013)
    .ARM.Collect$$libinit$$00000015          0x0800c1aa   Section        0  libinit2.o(.ARM.Collect$$libinit$$00000015)
    .ARM.Collect$$libinit$$00000017          0x0800c1aa   Section        0  libinit2.o(.ARM.Collect$$libinit$$00000017)
    .ARM.Collect$$libinit$$00000019          0x0800c1aa   Section        0  libinit2.o(.ARM.Collect$$libinit$$00000019)
    .ARM.Collect$$libinit$$0000001B          0x0800c1aa   Section        0  libinit2.o(.ARM.Collect$$libinit$$0000001B)
    .ARM.Collect$$libinit$$0000001D          0x0800c1aa   Section        0  libinit2.o(.ARM.Collect$$libinit$$0000001D)
    .ARM.Collect$$libinit$$0000001F          0x0800c1aa   Section        0  libinit2.o(.ARM.Collect$$libinit$$0000001F)
    .ARM.Collect$$libinit$$00000021          0x0800c1aa   Section        0  libinit2.o(.ARM.Collect$$libinit$$00000021)
    .ARM.Collect$$libinit$$00000023          0x0800c1aa   Section        0  libinit2.o(.ARM.Collect$$libinit$$00000023)
    .ARM.Collect$$libinit$$00000025          0x0800c1aa   Section        0  libinit2.o(.ARM.Collect$$libinit$$00000025)
    .ARM.Collect$$libinit$$0000002C          0x0800c1aa   Section        0  libinit2.o(.ARM.Collect$$libinit$$0000002C)
    .ARM.Collect$$libinit$$0000002E          0x0800c1aa   Section        0  libinit2.o(.ARM.Collect$$libinit$$0000002E)
    .ARM.Collect$$libinit$$00000030          0x0800c1aa   Section        0  libinit2.o(.ARM.Collect$$libinit$$00000030)
    .ARM.Collect$$libinit$$00000031          0x0800c1aa   Section        4  libinit2.o(.ARM.Collect$$libinit$$00000031)
    .ARM.Collect$$libinit$$00000032          0x0800c1ae   Section        0  libinit2.o(.ARM.Collect$$libinit$$00000032)
    .ARM.Collect$$libinit$$00000033          0x0800c1ae   Section        2  libinit2.o(.ARM.Collect$$libinit$$00000033)
    .ARM.Collect$$libshutdown$$00000000      0x0800c1b0   Section        2  libshutdown.o(.ARM.Collect$$libshutdown$$00000000)
    .ARM.Collect$$libshutdown$$00000002      0x0800c1b2   Section        0  libshutdown2.o(.ARM.Collect$$libshutdown$$00000002)
    .ARM.Collect$$libshutdown$$00000004      0x0800c1b2   Section        0  libshutdown2.o(.ARM.Collect$$libshutdown$$00000004)
    .ARM.Collect$$libshutdown$$00000006      0x0800c1b2   Section        0  libshutdown2.o(.ARM.Collect$$libshutdown$$00000006)
    .ARM.Collect$$libshutdown$$00000009      0x0800c1b2   Section        0  libshutdown2.o(.ARM.Collect$$libshutdown$$00000009)
    .ARM.Collect$$libshutdown$$0000000C      0x0800c1b2   Section        0  libshutdown2.o(.ARM.Collect$$libshutdown$$0000000C)
    .ARM.Collect$$libshutdown$$0000000E      0x0800c1b2   Section        0  libshutdown2.o(.ARM.Collect$$libshutdown$$0000000E)
    .ARM.Collect$$libshutdown$$00000011      0x0800c1b2   Section        0  libshutdown2.o(.ARM.Collect$$libshutdown$$00000011)
    .ARM.Collect$$libshutdown$$00000012      0x0800c1b2   Section        2  libshutdown2.o(.ARM.Collect$$libshutdown$$00000012)
    .ARM.Collect$$rtentry$$00000000          0x0800c1b4   Section        0  __rtentry.o(.ARM.Collect$$rtentry$$00000000)
    .ARM.Collect$$rtentry$$00000002          0x0800c1b4   Section        0  __rtentry2.o(.ARM.Collect$$rtentry$$00000002)
    .ARM.Collect$$rtentry$$00000004          0x0800c1b4   Section        6  __rtentry4.o(.ARM.Collect$$rtentry$$00000004)
    .ARM.Collect$$rtentry$$00000009          0x0800c1ba   Section        0  __rtentry2.o(.ARM.Collect$$rtentry$$00000009)
    .ARM.Collect$$rtentry$$0000000A          0x0800c1ba   Section        4  __rtentry2.o(.ARM.Collect$$rtentry$$0000000A)
    .ARM.Collect$$rtentry$$0000000C          0x0800c1be   Section        0  __rtentry2.o(.ARM.Collect$$rtentry$$0000000C)
    .ARM.Collect$$rtentry$$0000000D          0x0800c1be   Section        8  __rtentry2.o(.ARM.Collect$$rtentry$$0000000D)
    .ARM.Collect$$rtexit$$00000000           0x0800c1c6   Section        2  rtexit.o(.ARM.Collect$$rtexit$$00000000)
    .ARM.Collect$$rtexit$$00000002           0x0800c1c8   Section        0  rtexit2.o(.ARM.Collect$$rtexit$$00000002)
    .ARM.Collect$$rtexit$$00000003           0x0800c1c8   Section        4  rtexit2.o(.ARM.Collect$$rtexit$$00000003)
    .ARM.Collect$$rtexit$$00000004           0x0800c1cc   Section        6  rtexit2.o(.ARM.Collect$$rtexit$$00000004)
    .text                                    0x0800c1d4   Section       64  startup_gd32f30x_hd.o(.text)
    $v0                                      0x0800c1d4   Number         0  startup_gd32f30x_hd.o(.text)
    .text                                    0x0800c214   Section        0  strncat.o(.text)
    .text                                    0x0800c238   Section      100  rt_memcpy_w.o(.text)
    .text                                    0x0800c29c   Section        0  heapauxi.o(.text)
    .text                                    0x0800c2a4   Section        0  init_aeabi.o(.text)
    .text                                    0x0800c2c8   Section        0  _rserrno.o(.text)
    .text                                    0x0800c2e0   Section        8  rt_errno_addr_intlibspace.o(.text)
    .text                                    0x0800c2e8   Section        8  libspace.o(.text)
    .text                                    0x0800c2f0   Section       74  sys_stackheap_outer.o(.text)
    .text                                    0x0800c33a   Section        0  exit.o(.text)
    .text                                    0x0800c34c   Section        2  use_no_semi.o(.text)
    .text                                    0x0800c34e   Section        0  indicate_semi.o(.text)
    .text                                    0x0800c350   Section        0  sys_exit.o(.text)
    i.CAN0_RX1_IRQHandler                    0x0800c35c   Section        0  can.o(i.CAN0_RX1_IRQHandler)
    i.EXTI0_IRQHandler                       0x0800c3bc   Section        0  sensor.o(i.EXTI0_IRQHandler)
    i.EXTI5_9_IRQHandler                     0x0800c40c   Section        0  sensor.o(i.EXTI5_9_IRQHandler)
    i.HardFault_Handler                      0x0800c428   Section        0  core.o(i.HardFault_Handler)
    i.NMI_Handler                            0x0800c42c   Section        0  core.o(i.NMI_Handler)
    i.SysTick_Handler                        0x0800c430   Section        0  core.o(i.SysTick_Handler)
    i.SystemCoreClockUpdate                  0x0800c440   Section        0  system_gd32f30x.o(i.SystemCoreClockUpdate)
    i.SystemInit                             0x0800c4fc   Section        0  system_gd32f30x.o(i.SystemInit)
    i.USART0_IRQHandler                      0x0800c54c   Section        0  usart.o(i.USART0_IRQHandler)
    i._Z10adc_deinitj                        0x0800c648   Section        0  gd32f30x_adc.o(i._Z10adc_deinitj)
    i._Z10adc_enablej                        0x0800c6a0   Section        0  gd32f30x_adc.o(i._Z10adc_enablej)
    i._Z10bkp_deinitv                        0x0800c6b2   Section        0  gd32f30x_bkp.o(i._Z10bkp_deinitv)
    i._Z10can_deinitj                        0x0800c6c0   Section        0  gd32f30x_can.o(i._Z10can_deinitj)
    i._Z10dma_deinitj16dma_channel_enum      0x0800c6e0   Section        0  gd32f30x_dma.o(i._Z10dma_deinitj16dma_channel_enum)
    i._Z10fmc_unlockv                        0x0800c750   Section        0  gd32f30x_fmc.o(i._Z10fmc_unlockv)
    i._Z10i2c_deinitj                        0x0800c794   Section        0  gd32f30x_i2c.o(i._Z10i2c_deinitj)
    i._Z10i2c_enablej                        0x0800c7d4   Section        0  gd32f30x_i2c.o(i._Z10i2c_enablej)
    i._Z10spi_enablej                        0x0800c7de   Section        0  gd32f30x_spi.o(i._Z10spi_enablej)
    i._Z10timer_initjP22timer_parameter_struct 0x0800c7e8   Section        0  gd32f30x_timer.o(i._Z10timer_initjP22timer_parameter_struct)
    i._Z10writeSetupv                        0x0800c880   Section        0  main.o(i._Z10writeSetupv)
    i._Z11activityAirv                       0x0800ca18   Section        0  main.o(i._Z11activityAirv)
    i._Z11adc_disablej                       0x0800cc5c   Section        0  gd32f30x_adc.o(i._Z11adc_disablej)
    i._Z12ConfigFilterjh                     0x0800cc66   Section        0  can.o(i._Z12ConfigFilterjh)
    i._Z12fmc_flag_getj                      0x0800ccc4   Section        0  gd32f30x_fmc.o(i._Z12fmc_flag_getj)
    i._Z12gpio_bit_setjj                     0x0800cce8   Section        0  gd32f30x_gpio.o(i._Z12gpio_bit_setjj)
    i._Z12handlerClockv                      0x0800ccec   Section        0  main.o(i._Z12handlerClockv)
    i._Z12handlerSleepv                      0x0800ccfc   Section        0  main.o(i._Z12handlerSleepv)
    i._Z12handlerTimerv                      0x0800cd38   Section        0  main.o(i._Z12handlerTimerv)
    i._Z12handlerUsartv                      0x0800cdb4   Section        0  main.o(i._Z12handlerUsartv)
    i._Z12i2c_flag_getjj                     0x0800cdc4   Section        0  gd32f30x_i2c.o(i._Z12i2c_flag_getjj)
    i._Z12timer_deinitj                      0x0800cdf8   Section        0  gd32f30x_timer.o(i._Z12timer_deinitj)
    i._Z12timer_enablej                      0x0800ced4   Section        0  gd32f30x_timer.o(i._Z12timer_enablej)
    i._Z12usart_deinitj                      0x0800cee0   Section        0  gd32f30x_usart.o(i._Z12usart_deinitj)
    i._Z12usart_enablej                      0x0800cf70   Section        0  gd32f30x_usart.o(i._Z12usart_enablej)
    i._Z13activityAboutv                     0x0800cf7c   Section        0  main.o(i._Z13activityAboutv)
    i._Z13activityErrorv                     0x0800cfbc   Section        0  main.o(i._Z13activityErrorv)
    i._Z13activitySetupv                     0x0800d0fc   Section        0  main.o(i._Z13activitySetupv)
    i._Z13activitySleepv                     0x0800d1d8   Section        0  main.o(i._Z13activitySleepv)
    i._Z13bkp_read_data22bkp_data_register_enum 0x0800d2a0   Section        0  gd32f30x_bkp.o(i._Z13bkp_read_data22bkp_data_register_enum)
    i._Z13can_error_getj                     0x0800d2d8   Section        0  gd32f30x_can.o(i._Z13can_error_getj)
    i._Z13handlerSensorv                     0x0800d2e4   Section        0  main.o(i._Z13handlerSensorv)
    i._Z13timer_disablej                     0x0800d320   Section        0  gd32f30x_timer.o(i._Z13timer_disablej)
    i._Z13usart_disablej                     0x0800d32a   Section        0  gd32f30x_usart.o(i._Z13usart_disablej)
    i._Z14SysTick_Configj                    0x0800d334   Section        0  sleep.o(i._Z14SysTick_Configj)
    SysTick_Config(unsigned)                 0x0800d335   Thumb Code    50  sleep.o(i._Z14SysTick_Configj)
    i._Z14activitySearchv                    0x0800d368   Section        0  main.o(i._Z14activitySearchv)
    i._Z14adc_flag_clearjj                   0x0800d404   Section        0  gd32f30x_adc.o(i._Z14adc_flag_clearjj)
    i._Z14bkp_write_data22bkp_data_register_enumt 0x0800d40c   Section        0  gd32f30x_bkp.o(i._Z14bkp_write_data22bkp_data_register_enumt)
    i._Z14fmc_page_erasej                    0x0800d440   Section        0  gd32f30x_fmc.o(i._Z14fmc_page_erasej)
    i._Z14gpio_bit_resetjj                   0x0800d52c   Section        0  gd32f30x_gpio.o(i._Z14gpio_bit_resetjj)
    i._Z14i2c_ack_configjj                   0x0800d530   Section        0  gd32f30x_i2c.o(i._Z14i2c_ack_configjj)
    i._Z14rtc_lwoff_waitv                    0x0800d548   Section        0  gd32f30x_rtc.o(i._Z14rtc_lwoff_waitv)
    i._Z15adc_mode_configj                   0x0800d55c   Section        0  gd32f30x_adc.o(i._Z15adc_mode_configj)
    i._Z15can_filter_initP27can_filter_parameter_struct 0x0800d578   Section        0  gd32f30x_can.o(i._Z15can_filter_initP27can_filter_parameter_struct)
    i._Z15i2c_stop_on_busj                   0x0800d688   Section        0  gd32f30x_i2c.o(i._Z15i2c_stop_on_busj)
    i._Z15nvic_irq_enablehhh                 0x0800d694   Section        0  gd32f30x_misc.o(i._Z15nvic_irq_enablehhh)
    i._Z15rtc_counter_getv                   0x0800d758   Section        0  gd32f30x_rtc.o(i._Z15rtc_counter_getv)
    i._Z15rtc_counter_setj                   0x0800d76c   Section        0  gd32f30x_rtc.o(i._Z15rtc_counter_setj)
    i._Z16fmc_word_programjj                 0x0800d78c   Section        0  gd32f30x_fmc.o(i._Z16fmc_word_programjj)
    i._Z16i2c_clock_configjjj                0x0800d84c   Section        0  gd32f30x_i2c.o(i._Z16i2c_clock_configjjj)
    i._Z16i2c_data_receivej                  0x0800d978   Section        0  gd32f30x_i2c.o(i._Z16i2c_data_receivej)
    i._Z16i2c_start_on_busj                  0x0800d980   Section        0  gd32f30x_i2c.o(i._Z16i2c_start_on_busj)
    i._Z16spi_i2s_flag_getjj                 0x0800d98a   Section        0  gd32f30x_spi.o(i._Z16spi_i2s_flag_getjj)
    i._Z17i2c_ackpos_configjj                0x0800d99a   Section        0  gd32f30x_i2c.o(i._Z17i2c_ackpos_configjj)
    i._Z17i2c_data_transmitjh                0x0800d9b0   Section        0  gd32f30x_i2c.o(i._Z17i2c_data_transmitjh)
    i._Z17rtc_prescaler_setj                 0x0800d9b8   Section        0  gd32f30x_rtc.o(i._Z17rtc_prescaler_setj)
    i._Z18__NVIC_SetPriority4IRQnj           0x0800d9d8   Section        0  sleep.o(i._Z18__NVIC_SetPriority4IRQnj)
    __NVIC_SetPriority(IRQn, unsigned)       0x0800d9d9   Thumb Code    32  sleep.o(i._Z18__NVIC_SetPriority4IRQnj)
    i._Z18__NVIC_SetPriority4IRQnj           0x0800da00   Section        0  core.o(i._Z18__NVIC_SetPriority4IRQnj)
    __NVIC_SetPriority(IRQn, unsigned)       0x0800da01   Thumb Code    32  core.o(i._Z18__NVIC_SetPriority4IRQnj)
    i._Z18activitySetupClockv                0x0800da28   Section        0  main.o(i._Z18activitySetupClockv)
    i._Z18dma_channel_enablej16dma_channel_enum 0x0800daac   Section        0  gd32f30x_dma.o(i._Z18dma_channel_enablej16dma_channel_enum)
    i._Z18gpio_input_bit_getjj               0x0800dade   Section        0  gd32f30x_gpio.o(i._Z18gpio_input_bit_getjj)
    i._Z18handlerTemperaturev                0x0800daf0   Section        0  main.o(i._Z18handlerTemperaturev)
    i._Z18rcu_clock_freq_get19rcu_clock_freq_enum 0x0800db20   Section        0  gd32f30x_rcu.o(i._Z18rcu_clock_freq_get19rcu_clock_freq_enum)
    i._Z18usart_baudrate_setjj               0x0800dc7c   Section        0  gd32f30x_usart.o(i._Z18usart_baudrate_setjj)
    i._Z18usart_data_receivej                0x0800dd0c   Section        0  gd32f30x_usart.o(i._Z18usart_data_receivej)
    i._Z18usart_stop_bit_setjj               0x0800dd16   Section        0  gd32f30x_usart.o(i._Z18usart_stop_bit_setjj)
    i._Z19activityStartTimersv               0x0800dd28   Section        0  main.o(i._Z19activityStartTimersv)
    i._Z19adc_dma_mode_enablej               0x0800dd80   Section        0  gd32f30x_adc.o(i._Z19adc_dma_mode_enablej)
    i._Z19can_message_receivejhP26can_receive_message_struct 0x0800dd8a   Section        0  gd32f30x_can.o(i._Z19can_message_receivejhP26can_receive_message_struct)
    i._Z19dma_priority_configj16dma_channel_enumj 0x0800de6e   Section        0  gd32f30x_dma.o(i._Z19dma_priority_configj16dma_channel_enumj)
    i._Z19fmc_bank0_state_getv               0x0800dea8   Section        0  gd32f30x_fmc.o(i._Z19fmc_bank0_state_getv)
    i._Z19fmc_bank1_state_getv               0x0800ded8   Section        0  gd32f30x_fmc.o(i._Z19fmc_bank1_state_getv)
    i._Z19system_clock_configv               0x0800df08   Section        0  system_gd32f30x.o(i._Z19system_clock_configv)
    system_clock_config()                    0x0800df09   Thumb Code     8  system_gd32f30x.o(i._Z19system_clock_configv)
    i._Z19usart_data_transmitjj              0x0800df10   Section        0  gd32f30x_usart.o(i._Z19usart_data_transmitjj)
    i._Z19usart_parity_configjj              0x0800df18   Section        0  gd32f30x_usart.o(i._Z19usart_parity_configjj)
    i._Z20can_interrupt_enablejj             0x0800df28   Section        0  gd32f30x_can.o(i._Z20can_interrupt_enablejj)
    i._Z20can_message_transmitjP27can_trasnmit_message_struct 0x0800df30   Section        0  gd32f30x_can.o(i._Z20can_message_transmitjP27can_trasnmit_message_struct)
    i._Z20can_struct_para_init20can_struct_type_enumPv 0x0800e080   Section        0  gd32f30x_can.o(i._Z20can_struct_para_init20can_struct_type_enumPv)
    i._Z20fmc_bank0_ready_waitj              0x0800e124   Section        0  gd32f30x_fmc.o(i._Z20fmc_bank0_ready_waitj)
    i._Z20fmc_bank1_ready_waitj              0x0800e146   Section        0  gd32f30x_fmc.o(i._Z20fmc_bank1_ready_waitj)
    i._Z20i2c_mode_addr_configjjjj           0x0800e168   Section        0  gd32f30x_i2c.o(i._Z20i2c_mode_addr_configjjjj)
    i._Z20rcu_adc_clock_configj              0x0800e180   Section        0  gd32f30x_rcu.o(i._Z20rcu_adc_clock_configj)
    i._Z20rcu_bkp_reset_enablev              0x0800e1ec   Section        0  gd32f30x_rcu.o(i._Z20rcu_bkp_reset_enablev)
    i._Z20rcu_rtc_clock_configj              0x0800e200   Section        0  gd32f30x_rcu.o(i._Z20rcu_rtc_clock_configj)
    i._Z20usart_receive_configjj             0x0800e218   Section        0  gd32f30x_usart.o(i._Z20usart_receive_configjj)
    i._Z21adc_interrupt_disablejj            0x0800e228   Section        0  gd32f30x_adc.o(i._Z21adc_interrupt_disablejj)
    i._Z21adc_resolution_configjj            0x0800e254   Section        0  gd32f30x_adc.o(i._Z21adc_resolution_configjj)
    i._Z21gpio_pin_remap_configj11EventStatus 0x0800e268   Section        0  gd32f30x_gpio.o(i._Z21gpio_pin_remap_configj11EventStatus)
    i._Z21i2c_master_addressingjjj           0x0800e2f8   Section        0  gd32f30x_i2c.o(i._Z21i2c_master_addressingjjj)
    i._Z21nvic_vector_table_setjj            0x0800e30c   Section        0  gd32f30x_misc.o(i._Z21nvic_vector_table_setjj)
    i._Z21rcu_apb2_clock_configj             0x0800e320   Section        0  gd32f30x_rcu.o(i._Z21rcu_apb2_clock_configj)
    i._Z21rcu_bkp_reset_disablev             0x0800e338   Section        0  gd32f30x_rcu.o(i._Z21rcu_bkp_reset_disablev)
    i._Z21spi_i2s_data_transmitjt            0x0800e34c   Section        0  gd32f30x_spi.o(i._Z21spi_i2s_data_transmitjt)
    i._Z21usart_transmit_configjj            0x0800e350   Section        0  gd32f30x_usart.o(i._Z21usart_transmit_configjj)
    i._Z21usart_word_length_setjj            0x0800e360   Section        0  gd32f30x_usart.o(i._Z21usart_word_length_setjj)
    i._Z22adc_calibration_enablej            0x0800e370   Section        0  gd32f30x_adc.o(i._Z22adc_calibration_enablej)
    i._Z22can_interrupt_flag_getj23can_interrupt_flag_enum 0x0800e39c   Section        0  gd32f30x_can.o(i._Z22can_interrupt_flag_getj23can_interrupt_flag_enum)
    i._Z22dma_circulation_enablej16dma_channel_enum 0x0800e410   Section        0  gd32f30x_dma.o(i._Z22dma_circulation_enablej16dma_channel_enum)
    i._Z22rtc_register_sync_waitv            0x0800e444   Section        0  gd32f30x_rtc.o(i._Z22rtc_register_sync_waitv)
    i._Z22timer_prescaler_configjth          0x0800e464   Section        0  gd32f30x_timer.o(i._Z22timer_prescaler_configjth)
    i._Z22usart_interrupt_enablejj           0x0800e472   Section        0  gd32f30x_usart.o(i._Z22usart_interrupt_enablejj)
    i._Z23dma_memory_width_configj16dma_channel_enumj 0x0800e48c   Section        0  gd32f30x_dma.o(i._Z23dma_memory_width_configj16dma_channel_enumj)
    i._Z23dma_periph_width_configj16dma_channel_enumj 0x0800e4c6   Section        0  gd32f30x_dma.o(i._Z23dma_periph_width_configj16dma_channel_enumj)
    i._Z23exti_interrupt_flag_get14exti_line_enum 0x0800e500   Section        0  gd32f30x_exti.o(i._Z23exti_interrupt_flag_get14exti_line_enum)
    i._Z23gpio_exti_source_selecthh          0x0800e524   Section        0  gd32f30x_gpio.o(i._Z23gpio_exti_source_selecthh)
    i._Z23nvic_priority_group_setj           0x0800e5bc   Section        0  gd32f30x_misc.o(i._Z23nvic_priority_group_setj)
    i._Z23pmu_backup_write_enablev           0x0800e5d0   Section        0  gd32f30x_pmu.o(i._Z23pmu_backup_write_enablev)
    i._Z23rcu_periph_clock_enable15rcu_periph_enum 0x0800e5e4   Section        0  gd32f30x_rcu.o(i._Z23rcu_periph_clock_enable15rcu_periph_enum)
    i._Z23rcu_periph_reset_enable21rcu_periph_reset_enum 0x0800e604   Section        0  gd32f30x_rcu.o(i._Z23rcu_periph_reset_enable21rcu_periph_reset_enum)
    i._Z23system_clock_120m_hxtalv           0x0800e624   Section        0  system_gd32f30x.o(i._Z23system_clock_120m_hxtalv)
    system_clock_120m_hxtal()                0x0800e625   Thumb Code   256  system_gd32f30x.o(i._Z23system_clock_120m_hxtalv)
    i._Z23usart_data_first_configjj          0x0800e734   Section        0  gd32f30x_usart.o(i._Z23usart_data_first_configjj)
    i._Z23usart_interrupt_disablejj          0x0800e748   Section        0  gd32f30x_usart.o(i._Z23usart_interrupt_disablejj)
    i._Z24can_interrupt_flag_clearj23can_interrupt_flag_enum 0x0800e762   Section        0  gd32f30x_can.o(i._Z24can_interrupt_flag_clearj23can_interrupt_flag_enum)
    i._Z24rcu_periph_reset_disable21rcu_periph_reset_enum 0x0800e774   Section        0  gd32f30x_rcu.o(i._Z24rcu_periph_reset_disable21rcu_periph_reset_enum)
    i._Z24usart_dma_receive_configjj         0x0800e794   Section        0  gd32f30x_usart.o(i._Z24usart_dma_receive_configjj)
    i._Z24usart_interrupt_flag_getjj         0x0800e7a4   Section        0  gd32f30x_usart.o(i._Z24usart_interrupt_flag_getjj)
    i._Z25adc_channel_length_configjhj       0x0800e7dc   Section        0  gd32f30x_adc.o(i._Z25adc_channel_length_configjhj)
    i._Z25adc_data_alignment_configjj        0x0800e822   Section        0  gd32f30x_adc.o(i._Z25adc_data_alignment_configjj)
    i._Z25dma_memory_address_configj16dma_channel_enumj 0x0800e838   Section        0  gd32f30x_dma.o(i._Z25dma_memory_address_configj16dma_channel_enumj)
    i._Z25dma_periph_address_configj16dma_channel_enumj 0x0800e85c   Section        0  gd32f30x_dma.o(i._Z25dma_periph_address_configj16dma_channel_enumj)
    i._Z25exti_interrupt_flag_clear14exti_line_enum 0x0800e880   Section        0  gd32f30x_exti.o(i._Z25exti_interrupt_flag_clear14exti_line_enum)
    i._Z25usart_dma_transmit_configjj        0x0800e88c   Section        0  gd32f30x_usart.o(i._Z25usart_dma_transmit_configjj)
    i._Z26adc_regular_channel_configjhhj     0x0800e89c   Section        0  gd32f30x_adc.o(i._Z26adc_regular_channel_configjhhj)
    i._Z26dma_memory_increase_enablej16dma_channel_enum 0x0800e948   Section        0  gd32f30x_dma.o(i._Z26dma_memory_increase_enablej16dma_channel_enum)
    i._Z26dma_transfer_number_configj16dma_channel_enumj 0x0800e97a   Section        0  gd32f30x_dma.o(i._Z26dma_transfer_number_configj16dma_channel_enumj)
    i._Z26timer_counter_value_configjj       0x0800e9a0   Section        0  gd32f30x_timer.o(i._Z26timer_counter_value_configjj)
    i._Z26usart_interrupt_flag_clearjj       0x0800e9a4   Section        0  gd32f30x_usart.o(i._Z26usart_interrupt_flag_clearjj)
    i._Z27adc_external_trigger_configjh11EventStatus 0x0800e9be   Section        0  gd32f30x_adc.o(i._Z27adc_external_trigger_configjh11EventStatus)
    i._Z27adc_special_function_configjj11EventStatus 0x0800e9fc   Section        0  gd32f30x_adc.o(i._Z27adc_special_function_configjj11EventStatus)
    i._Z27dma_periph_increase_disablej16dma_channel_enum 0x0800ea56   Section        0  gd32f30x_dma.o(i._Z27dma_periph_increase_disablej16dma_channel_enum)
    i._Z27rtc_configuration_mode_exitv       0x0800ea88   Section        0  gd32f30x_rtc.o(i._Z27rtc_configuration_mode_exitv)
    i._Z27timer_channel_output_configjtP25timer_oc_parameter_struct 0x0800ea9c   Section        0  gd32f30x_timer.o(i._Z27timer_channel_output_configjtP25timer_oc_parameter_struct)
    i._Z27timer_primary_output_configj11EventStatus 0x0800ec88   Section        0  gd32f30x_timer.o(i._Z27timer_primary_output_configj11EventStatus)
    i._Z28dma_periph_and_channel_checkj16dma_channel_enum 0x0800eca0   Section        0  gd32f30x_dma.o(i._Z28dma_periph_and_channel_checkj16dma_channel_enum)
    dma_periph_and_channel_check(unsigned, dma_channel_enum) 0x0800eca1   Thumb Code    18  gd32f30x_dma.o(i._Z28dma_periph_and_channel_checkj16dma_channel_enum)
    i._Z28rtc_configuration_mode_enterv      0x0800ecb8   Section        0  gd32f30x_rtc.o(i._Z28rtc_configuration_mode_enterv)
    i._Z29adc_tempsensor_vrefint_enablev     0x0800eccc   Section        0  gd32f30x_adc.o(i._Z29adc_tempsensor_vrefint_enablev)
    i._Z29dma_transfer_direction_configj16dma_channel_enumj 0x0800ece0   Section        0  gd32f30x_dma.o(i._Z29dma_transfer_direction_configj16dma_channel_enumj)
    i._Z29timer_autoreload_value_configjj    0x0800ed34   Section        0  gd32f30x_timer.o(i._Z29timer_autoreload_value_configjj)
    i._Z30can_receive_message_length_getjh   0x0800ed38   Section        0  gd32f30x_can.o(i._Z30can_receive_message_length_getjh)
    i._Z30timer_master_slave_mode_configjh   0x0800ed52   Section        0  gd32f30x_timer.o(i._Z30timer_master_slave_mode_configjh)
    i._Z30timer_single_pulse_mode_configjh   0x0800ed6c   Section        0  gd32f30x_timer.o(i._Z30timer_single_pulse_mode_configjh)
    i._Z32timer_auto_reload_shadow_disablej  0x0800ed86   Section        0  gd32f30x_timer.o(i._Z32timer_auto_reload_shadow_disablej)
    i._Z32timer_channel_output_fast_configjtt 0x0800ed90   Section        0  gd32f30x_timer.o(i._Z32timer_channel_output_fast_configjtt)
    i._Z32timer_channel_output_mode_configjtt 0x0800edea   Section        0  gd32f30x_timer.o(i._Z32timer_channel_output_mode_configjtt)
    i._Z34adc_external_trigger_source_configjhj 0x0800ee44   Section        0  gd32f30x_adc.o(i._Z34adc_external_trigger_source_configjhj)
    i._Z34timer_channel_output_shadow_configjtt 0x0800ee74   Section        0  gd32f30x_timer.o(i._Z34timer_channel_output_shadow_configjtt)
    i._Z39timer_channel_output_pulse_value_configjtj 0x0800eece   Section        0  gd32f30x_timer.o(i._Z39timer_channel_output_pulse_value_configjtj)
    i._Z41timer_master_output_trigger_source_selectjj 0x0800eef4   Section        0  gd32f30x_timer.o(i._Z41timer_master_output_trigger_source_selectjj)
    i._Z7initAllv                            0x0800ef04   Section        0  main.o(i._Z7initAllv)
    i._Z8can_initjP20can_parameter_struct    0x0800ef78   Section        0  gd32f30x_can.o(i._Z8can_initjP20can_parameter_struct)
    i._Z8fmc_lockv                           0x0800f09c   Section        0  gd32f30x_fmc.o(i._Z8fmc_lockv)
    i._Z8setNewIdv                           0x0800f0c8   Section        0  main.o(i._Z8setNewIdv)
    i._Z8spi_initjP20spi_parameter_struct    0x0800f1d0   Section        0  gd32f30x_spi.o(i._Z8spi_initjP20spi_parameter_struct)
    i._Z9exti_init14exti_line_enum14exti_mode_enum19exti_trig_type_enum 0x0800f204   Section        0  gd32f30x_exti.o(i._Z9exti_init14exti_line_enum14exti_mode_enum19exti_trig_type_enum)
    i._Z9gpio_initjjjj                       0x0800f2bc   Section        0  gd32f30x_gpio.o(i._Z9gpio_initjjjj)
    i._Z9readSetupv                          0x0800f360   Section        0  main.o(i._Z9readSetupv)
    i._Z9setNewKeyv                          0x0800f69c   Section        0  main.o(i._Z9setNewKeyv)
    i._ZN10SetupClock10viewMinuteEb          0x0800f714   Section        0  setup_clock.o(i._ZN10SetupClock10viewMinuteEb)
    i._ZN10SetupClock10viewScreenEv          0x0800f838   Section        0  setup_clock.o(i._ZN10SetupClock10viewScreenEv)
    i._ZN10SetupClock11setPositionEb         0x0800f8ec   Section        0  setup_clock.o(i._ZN10SetupClock11setPositionEb)
    i._ZN10SetupClock14viewCorrectionEb      0x0800f934   Section        0  setup_clock.o(i._ZN10SetupClock14viewCorrectionEb)
    i._ZN10SetupClock7handlerEv              0x0800faa4   Section        0  setup_clock.o(i._ZN10SetupClock7handlerEv)
